---
triple:          'arm64-apple-darwin'
binary-path:     geometry
relocations:
  - { offsetInCU: 0x44, offset: 0x44, size: 0x8, addend: 0x0, symName: __ZN5EigenL4lastE, symObjAddr: 0x1D1EC2, symBinAddr: 0x100038000, symSize: 0x0 }
  - { offsetInCU: 0x348C, offset: 0x348C, size: 0x8, addend: 0x0, symName: __ZN5Eigen8internal28check_static_allocation_sizeIdLi3EEEvv, symObjAddr: 0x13F74, symBinAddr: 0x100018190, symSize: 0x4 }
  - { offsetInCU: 0x34B9, offset: 0x34B9, size: 0x8, addend: 0x0, symName: __ZN5Eigen8internal24call_assignment_no_aliasINS_6MatrixIdLi3ELi1ELi0ELi3ELi1EEENS_14CwiseNullaryOpINS0_18scalar_constant_opIdEES3_EENS0_9assign_opIddEEEEvRT_RKT0_RKT1_, symObjAddr: 0x140E8, symBinAddr: 0x100018304, symSize: 0x3C }
  - { offsetInCU: 0x3591, offset: 0x3591, size: 0x8, addend: 0x0, symName: __ZN5Eigen8internal18check_for_aliasingINS_6MatrixIdLi3ELi1ELi0ELi3ELi1EEENS_14CwiseNullaryOpINS0_18scalar_constant_opIdEES3_EEEEvRKT_RKT0_, symObjAddr: 0x141A4, symBinAddr: 0x1000183C0, symSize: 0x14 }
  - { offsetInCU: 0x35DC, offset: 0x35DC, size: 0x8, addend: 0x0, symName: __ZN5Eigen8internal26call_dense_assignment_loopINS_6MatrixIdLi3ELi1ELi0ELi3ELi1EEEEEvRT_RKNS_14CwiseNullaryOpINS0_18scalar_constant_opINS4_6ScalarEEES4_EERKNS0_9assign_opIS8_S8_EE, symObjAddr: 0x141B8, symBinAddr: 0x1000183D4, symSize: 0x6C }
  - { offsetInCU: 0x362D, offset: 0x362D, size: 0x8, addend: 0x0, symName: __ZN5Eigen8internal17resize_if_allowedINS_6MatrixIdLi3ELi1ELi0ELi3ELi1EEENS_14CwiseNullaryOpINS0_18scalar_constant_opIdEES3_EEddEEvRT_RKT0_RKNS0_9assign_opIT1_T2_EE, symObjAddr: 0x14224, symBinAddr: 0x100018440, symSize: 0xF8 }
  - { offsetInCU: 0x36E5, offset: 0x36E5, size: 0x8, addend: 0x0, symName: __ZN5Eigen8internal22ignore_unused_variableIlEEvRKT_, symObjAddr: 0x163E0, symBinAddr: 0x10001A5FC, symSize: 0x10 }
  - { offsetInCU: 0x37B7, offset: 0x37B7, size: 0x8, addend: 0x0, symName: __ZN5Eigen8internal6preduxI19__simd128_float64_tEENS0_15unpacket_traitsIT_E4typeERKS4_, symObjAddr: 0x16DD8, symBinAddr: 0x10001AFF4, symSize: 0x50 }
  - { offsetInCU: 0x383F, offset: 0x383F, size: 0x8, addend: 0x0, symName: __ZN5Eigen8internal4pmulI19__simd128_float64_tEET_RKS3_S5_, symObjAddr: 0x16F54, symBinAddr: 0x10001B170, symSize: 0x40 }
  - { offsetInCU: 0x3885, offset: 0x3885, size: 0x8, addend: 0x0, symName: __ZN5Eigen8internal6ploaduI19__simd128_float64_tEET_PKNS0_15unpacket_traitsIS3_E4typeE, symObjAddr: 0x16FA8, symBinAddr: 0x10001B1C4, symSize: 0x28 }
  - { offsetInCU: 0x394F, offset: 0x394F, size: 0x8, addend: 0x0, symName: __ZN5Eigen8internal15call_assignmentINS_6MatrixIdLi3ELi1ELi0ELi3ELi1EEENS_13CwiseBinaryOpINS0_18scalar_quotient_opIddEEKS3_KNS_14CwiseNullaryOpINS0_18scalar_constant_opIdEES7_EEEEEEvRT_RKT0_, symObjAddr: 0x1770C, symBinAddr: 0x10001B928, symSize: 0x50 }
  - { offsetInCU: 0x399A, offset: 0x399A, size: 0x8, addend: 0x0, symName: __ZN5Eigen8internal15call_assignmentINS_6MatrixIdLi3ELi1ELi0ELi3ELi1EEENS_13CwiseBinaryOpINS0_18scalar_quotient_opIddEEKS3_KNS_14CwiseNullaryOpINS0_18scalar_constant_opIdEES7_EEEENS0_9assign_opIddEEEEvRT_RKT0_RKT1_NS0_9enable_ifIXntsr25evaluator_assume_aliasingISI_EE5valueEPvE4typeE, symObjAddr: 0x17770, symBinAddr: 0x10001B98C, symSize: 0x38 }
  - { offsetInCU: 0x3A08, offset: 0x3A08, size: 0x8, addend: 0x0, symName: __ZN5Eigen8internal24call_assignment_no_aliasINS_6MatrixIdLi3ELi1ELi0ELi3ELi1EEENS_13CwiseBinaryOpINS0_18scalar_quotient_opIddEEKS3_KNS_14CwiseNullaryOpINS0_18scalar_constant_opIdEES7_EEEENS0_9assign_opIddEEEEvRT_RKT0_RKT1_, symObjAddr: 0x177A8, symBinAddr: 0x10001B9C4, symSize: 0x3C }
  - { offsetInCU: 0x3AD6, offset: 0x3AD6, size: 0x8, addend: 0x0, symName: __ZN5Eigen8internal18check_for_aliasingINS_6MatrixIdLi3ELi1ELi0ELi3ELi1EEENS_13CwiseBinaryOpINS0_18scalar_quotient_opIddEEKS3_KNS_14CwiseNullaryOpINS0_18scalar_constant_opIdEES7_EEEEEEvRKT_RKT0_, symObjAddr: 0x17824, symBinAddr: 0x10001BA40, symSize: 0x14 }
  - { offsetInCU: 0x3B21, offset: 0x3B21, size: 0x8, addend: 0x0, symName: __ZN5Eigen8internal26call_dense_assignment_loopINS_6MatrixIdLi3ELi1ELi0ELi3ELi1EEENS_13CwiseBinaryOpINS0_18scalar_quotient_opIddEEKS3_KNS_14CwiseNullaryOpINS0_18scalar_constant_opIdEES7_EEEENS0_9assign_opIddEEEEvRT_RKT0_RKT1_, symObjAddr: 0x17838, symBinAddr: 0x10001BA54, symSize: 0xE0 }
  - { offsetInCU: 0x3BD5, offset: 0x3BD5, size: 0x8, addend: 0x0, symName: __ZN5Eigen8internal17resize_if_allowedINS_6MatrixIdLi3ELi1ELi0ELi3ELi1EEENS_13CwiseBinaryOpINS0_18scalar_quotient_opIddEEKS3_KNS_14CwiseNullaryOpINS0_18scalar_constant_opIdEES7_EEEEddEEvRT_RKT0_RKNS0_9assign_opIT1_T2_EE, symObjAddr: 0x1794C, symBinAddr: 0x10001BB68, symSize: 0xF8 }
  - { offsetInCU: 0x3D11, offset: 0x3D11, size: 0x8, addend: 0x0, symName: __ZN5Eigen8internal7pstoreuId19__simd128_float64_tEEvPT_RKT0_, symObjAddr: 0x18180, symBinAddr: 0x10001C39C, symSize: 0x2C }
  - { offsetInCU: 0x3D79, offset: 0x3D79, size: 0x8, addend: 0x0, symName: __ZN5Eigen8internal4pdivI19__simd128_float64_tEET_RKS3_S5_, symObjAddr: 0x1822C, symBinAddr: 0x10001C448, symSize: 0x40 }
  - { offsetInCU: 0x3DBF, offset: 0x3DBF, size: 0x8, addend: 0x0, symName: __ZN5Eigen8internal5pset1I19__simd128_float64_tEET_RKNS0_15unpacket_traitsIS3_E4typeE, symObjAddr: 0x182C0, symBinAddr: 0x10001C4DC, symSize: 0x44 }
  - { offsetInCU: 0x3E2E, offset: 0x3E2E, size: 0x8, addend: 0x0, symName: __ZN5Eigen8internal12print_matrixINS_6MatrixIdLi1ELi3ELi1ELi1ELi3EEEEERNSt3__113basic_ostreamIcNS4_11char_traitsIcEEEES9_RKT_RKNS_8IOFormatE, symObjAddr: 0x1873C, symBinAddr: 0x10001C958, symSize: 0x580 }
  - { offsetInCU: 0x3FB7, offset: 0x3FB7, size: 0x8, addend: 0x0, symName: __ZN5Eigen8internal24call_assignment_no_aliasINS_6MatrixIdLi1ELi3ELi1ELi1ELi3EEENS_9TransposeINS2_IdLi3ELi1ELi0ELi3ELi1EEEEENS0_9assign_opIddEEEEvRT_RKT0_RKT1_, symObjAddr: 0x196C0, symBinAddr: 0x10001D8DC, symSize: 0x3C }
  - { offsetInCU: 0x4085, offset: 0x4085, size: 0x8, addend: 0x0, symName: __ZN5Eigen8internal18check_for_aliasingINS_6MatrixIdLi1ELi3ELi1ELi1ELi3EEENS_9TransposeINS2_IdLi3ELi1ELi0ELi3ELi1EEEEEEEvRKT_RKT0_, symObjAddr: 0x19750, symBinAddr: 0x10001D96C, symSize: 0x14 }
  - { offsetInCU: 0x40D0, offset: 0x40D0, size: 0x8, addend: 0x0, symName: __ZN5Eigen8internal26call_dense_assignment_loopINS_6MatrixIdLi1ELi3ELi1ELi1ELi3EEENS_9TransposeINS2_IdLi3ELi1ELi0ELi3ELi1EEEEENS0_9assign_opIddEEEEvRT_RKT0_RKT1_, symObjAddr: 0x19764, symBinAddr: 0x10001D980, symSize: 0xE0 }
  - { offsetInCU: 0x4184, offset: 0x4184, size: 0x8, addend: 0x0, symName: __ZN5Eigen8internal17resize_if_allowedINS_6MatrixIdLi1ELi3ELi1ELi1ELi3EEENS_9TransposeINS2_IdLi3ELi1ELi0ELi3ELi1EEEEEddEEvRT_RKT0_RKNS0_9assign_opIT1_T2_EE, symObjAddr: 0x19878, symBinAddr: 0x10001DA94, symSize: 0xF8 }
  - { offsetInCU: 0x4479, offset: 0x4479, size: 0x8, addend: 0x0, symName: __ZN5EigenL6lastp1E, symObjAddr: 0x1D1EC3, symBinAddr: 0x100038001, symSize: 0x0 }
  - { offsetInCU: 0x4492, offset: 0x4492, size: 0x8, addend: 0x0, symName: __ZN5EigenL3allE, symObjAddr: 0x1D1EC6, symBinAddr: 0x100038004, symSize: 0x0 }
  - { offsetInCU: 0x44AB, offset: 0x44AB, size: 0x8, addend: 0x0, symName: __ZN5EigenL3fixILi1EEE, symObjAddr: 0x1D1EC5, symBinAddr: 0x100038003, symSize: 0x0 }
  - { offsetInCU: 0x14986, offset: 0x14986, size: 0x8, addend: 0x0, symName: __ZN5Eigen6numext4conjIdEENS_8internal11conj_retvalINS2_36global_math_functions_filtering_baseIT_vE4typeEE4typeERKS5_, symObjAddr: 0x15E20, symBinAddr: 0x10001A03C, symSize: 0x24 }
  - { offsetInCU: 0x149BD, offset: 0x149BD, size: 0x8, addend: 0x0, symName: __ZN5Eigen6numext4realIdEENS_8internal11real_retvalINS2_36global_math_functions_filtering_baseIT_vE4typeEE4typeERKS5_, symObjAddr: 0x165E0, symBinAddr: 0x10001A7FC, symSize: 0x24 }
  - { offsetInCU: 0x149F4, offset: 0x149F4, size: 0x8, addend: 0x0, symName: __ZN5Eigen6numext4abs2IdEENS_8internal11abs2_retvalINS2_36global_math_functions_filtering_baseIT_vE4typeEE4typeERKS5_, symObjAddr: 0x170DC, symBinAddr: 0x10001B2F8, symSize: 0x24 }
  - { offsetInCU: 0x14A2C, offset: 0x14A2C, size: 0x8, addend: 0x0, symName: __ZN5EigenlsINS_9TransposeINS_6MatrixIdLi3ELi1ELi0ELi3ELi1EEEEEEERNSt3__113basic_ostreamIcNS5_11char_traitsIcEEEESA_RKNS_9DenseBaseIT_EE, symObjAddr: 0x427C, symBinAddr: 0x100008498, symSize: 0x208 }
  - { offsetInCU: 0x26751, offset: 0x26751, size: 0x8, addend: 0x0, symName: __ZNSt3__14__fs10filesystem6existsB8ue170006ERKNS1_4pathE, symObjAddr: 0x5BC4, symBinAddr: 0x100009DE0, symSize: 0x50 }
  - { offsetInCU: 0x2677D, offset: 0x2677D, size: 0x8, addend: 0x0, symName: __ZNSt3__14__fs10filesystem6existsB8ue170006ENS1_11file_statusE, symObjAddr: 0x75F0, symBinAddr: 0x10000B80C, symSize: 0x78 }
  - { offsetInCU: 0x268B6, offset: 0x268B6, size: 0x8, addend: 0x0, symName: __ZNSt3__14__fs10filesystem12status_knownB8ue170006ENS1_11file_statusE, symObjAddr: 0x7694, symBinAddr: 0x10000B8B0, symSize: 0x30 }
  - { offsetInCU: 0x2D3D2, offset: 0x2D3D2, size: 0x8, addend: 0x0, symName: __ZNSt3__124__put_character_sequenceB8ue170006IcNS_11char_traitsIcEEEERNS_13basic_ostreamIT_T0_EES7_PKS4_m, symObjAddr: 0xBDF4, symBinAddr: 0x100010010, symSize: 0x1EC }
  - { offsetInCU: 0x2E24C, offset: 0x2E24C, size: 0x8, addend: 0x0, symName: __ZNSt3__17advanceB8ue170006IPNS_5arrayIiLm2EEEllvEEvRT_T0_, symObjAddr: 0xCB44, symBinAddr: 0x100010D60, symSize: 0x38 }
  - { offsetInCU: 0x2F0C9, offset: 0x2F0C9, size: 0x8, addend: 0x0, symName: __ZNSt3__17advanceB8ue170006INS_11__wrap_iterIPNS_5arrayIiLm2EEEEEllvEEvRT_T0_, symObjAddr: 0x1C488, symBinAddr: 0x1000206A4, symSize: 0x38 }
  - { offsetInCU: 0x310DE, offset: 0x310DE, size: 0x8, addend: 0x0, symName: __ZNSt3__16copy_nB8ue170006IPKcmPcEENS_9enable_ifIXsr37__has_random_access_iterator_categoryIT_EE5valueET1_E4typeES5_T0_S6_, symObjAddr: 0x21A44, symBinAddr: 0x100025C60, symSize: 0x44 }
  - { offsetInCU: 0x37780, offset: 0x37780, size: 0x8, addend: 0x0, symName: __ZNSt3__1lsB8ue170006IcNS_11char_traitsIcEENS_9allocatorIcEEEERNS_13basic_ostreamIT_T0_EES9_RKNS_12basic_stringIS6_S7_T1_EE, symObjAddr: 0xA60, symBinAddr: 0x100004C7C, symSize: 0x4C }
  - { offsetInCU: 0x377D8, offset: 0x377D8, size: 0x8, addend: 0x0, symName: __ZNSt3__1lsB8ue170006INS_11char_traitsIcEEEERNS_13basic_ostreamIcT_EES6_PKc, symObjAddr: 0xAAC, symBinAddr: 0x100004CC8, symSize: 0x48 }
  - { offsetInCU: 0x3781E, offset: 0x3781E, size: 0x8, addend: 0x0, symName: __ZNSt3__14endlB8ue170006IcNS_11char_traitsIcEEEERNS_13basic_ostreamIT_T0_EES7_, symObjAddr: 0xB20, symBinAddr: 0x100004D3C, symSize: 0x58 }
  - { offsetInCU: 0x3785E, offset: 0x3785E, size: 0x8, addend: 0x0, symName: __ZNSt3__13getB8ue170006ILm0ENS_6vectorINS_5arrayIiLm2EEENS_9allocatorIS3_EEEES6_EEONS_13tuple_elementIXT_ENS_4pairIT0_T1_EEE4typeEOSB_, symObjAddr: 0x1EA0, symBinAddr: 0x1000060BC, symSize: 0x24 }
  - { offsetInCU: 0x378A8, offset: 0x378A8, size: 0x8, addend: 0x0, symName: __ZNSt3__13getB8ue170006ILm1ENS_6vectorINS_5arrayIiLm2EEENS_9allocatorIS3_EEEES6_EEONS_13tuple_elementIXT_ENS_4pairIT0_T1_EEE4typeEOSB_, symObjAddr: 0x1EC4, symBinAddr: 0x1000060E0, symSize: 0x24 }
  - { offsetInCU: 0x378F2, offset: 0x378F2, size: 0x8, addend: 0x0, symName: __ZNSt3__1eqB8ue170006IiLm2EEEbRKNS_5arrayIT_XT0_EEES5_, symObjAddr: 0x4514, symBinAddr: 0x100008730, symSize: 0x54 }
  - { offsetInCU: 0x37942, offset: 0x37942, size: 0x8, addend: 0x0, symName: __ZNSt3__14findB8ue170006IPiiEET_S2_S2_RKT0_, symObjAddr: 0x46D4, symBinAddr: 0x1000088F0, symSize: 0x60 }
  - { offsetInCU: 0x379AA, offset: 0x379AA, size: 0x8, addend: 0x0, symName: __ZNSt3__1eqB8ue170006IPNS_5arrayIiLm2EEEEEbRKNS_11__wrap_iterIT_EES8_, symObjAddr: 0x47EC, symBinAddr: 0x100008A08, symSize: 0x48 }
  - { offsetInCU: 0x379ED, offset: 0x379ED, size: 0x8, addend: 0x0, symName: __ZNSt3__14findB8ue170006INS_11__wrap_iterIPNS_5arrayIiLm2EEEEES3_EET_S6_S6_RKT0_, symObjAddr: 0x4834, symBinAddr: 0x100008A50, symSize: 0x78 }
  - { offsetInCU: 0x37A55, offset: 0x37A55, size: 0x8, addend: 0x0, symName: __ZNSt3__1eqB8ue170006IPiEEbRKNS_11__wrap_iterIT_EES6_, symObjAddr: 0x490C, symBinAddr: 0x100008B28, symSize: 0x48 }
  - { offsetInCU: 0x37A98, offset: 0x37A98, size: 0x8, addend: 0x0, symName: __ZNSt3__14findB8ue170006INS_11__wrap_iterIPiEEiEET_S4_S4_RKT0_, symObjAddr: 0x4954, symBinAddr: 0x100008B70, symSize: 0x78 }
  - { offsetInCU: 0x37B00, offset: 0x37B00, size: 0x8, addend: 0x0, symName: __ZNSt3__1neB8ue170006IPiEEbRKNS_11__wrap_iterIT_EES6_, symObjAddr: 0x4A2C, symBinAddr: 0x100008C48, symSize: 0x34 }
  - { offsetInCU: 0x37B61, offset: 0x37B61, size: 0x8, addend: 0x0, symName: __ZNSt3__1neB8ue170006IPZN8Geometry28calculate_bend_twist_springsEiE10SpringPairEEbRKNS_11__wrap_iterIT_EES8_, symObjAddr: 0x5750, symBinAddr: 0x10000996C, symSize: 0x34 }
  - { offsetInCU: 0x37BA4, offset: 0x37BA4, size: 0x8, addend: 0x0, symName: __ZNSt3__1neB8ue170006IPNS_5arrayIiLm2EEEEEbRKNS_11__wrap_iterIT_EES8_, symObjAddr: 0x579C, symBinAddr: 0x1000099B8, symSize: 0x34 }
  - { offsetInCU: 0x37BE7, offset: 0x37BE7, size: 0x8, addend: 0x0, symName: __ZNSt3__1neB8ue170006IPKiEEbRKNS_11__wrap_iterIT_EES7_, symObjAddr: 0x5964, symBinAddr: 0x100009B80, symSize: 0x34 }
  - { offsetInCU: 0x37C2A, offset: 0x37C2A, size: 0x8, addend: 0x0, symName: __ZNSt3__1plB8ue170006IcNS_11char_traitsIcEENS_9allocatorIcEEEENS_12basic_stringIT_T0_T1_EERKS9_PKS6_, symObjAddr: 0x5C7C, symBinAddr: 0x100009E98, symSize: 0x11C }
  - { offsetInCU: 0x395E0, offset: 0x395E0, size: 0x8, addend: 0x0, symName: __ZNSt3__17getlineB8ue170006IcNS_11char_traitsIcEENS_9allocatorIcEEEERNS_13basic_istreamIT_T0_EES9_RNS_12basic_stringIS6_S7_T1_EE, symObjAddr: 0x603C, symBinAddr: 0x10000A258, symSize: 0x5C }
  - { offsetInCU: 0x39638, offset: 0x39638, size: 0x8, addend: 0x0, symName: __ZNSt3__19transformB8ue170006INS_11__wrap_iterIPcEES3_PFiiEEET0_T_S7_S6_T1_, symObjAddr: 0x620C, symBinAddr: 0x10000A428, symSize: 0x98 }
  - { offsetInCU: 0x396AA, offset: 0x396AA, size: 0x8, addend: 0x0, symName: __ZNSt3__1eqB8ue170006ERKNS_25__hash_map_const_iteratorINS_21__hash_const_iteratorIPNS_11__hash_nodeINS_17__hash_value_typeINS_12basic_stringIcNS_11char_traitsIcEENS_9allocatorIcEEEEZN8Geometry8from_txtERKS9_E6HeaderEEPvEEEEEESL_, symObjAddr: 0x63A8, symBinAddr: 0x10000A5C4, symSize: 0x30 }
  - { offsetInCU: 0x396E7, offset: 0x396E7, size: 0x8, addend: 0x0, symName: __ZNSt3__1plB8ue170006IcNS_11char_traitsIcEENS_9allocatorIcEEEENS_12basic_stringIT_T0_T1_EEOS9_SA_, symObjAddr: 0x6410, symBinAddr: 0x10000A62C, symSize: 0x40 }
  - { offsetInCU: 0x3973F, offset: 0x3973F, size: 0x8, addend: 0x0, symName: __ZNSt3__1plB8ue170006IcNS_11char_traitsIcEENS_9allocatorIcEEEENS_12basic_stringIT_T0_T1_EEOS9_PKS6_, symObjAddr: 0x6450, symBinAddr: 0x10000A66C, symSize: 0x40 }
  - { offsetInCU: 0x39E95, offset: 0x39E95, size: 0x8, addend: 0x0, symName: __ZNSt3__17getlineB8ue170006IcNS_11char_traitsIcEENS_9allocatorIcEEEERNS_13basic_istreamIT_T0_EES9_RNS_12basic_stringIS6_S7_T1_EES6_, symObjAddr: 0x68DC, symBinAddr: 0x10000AAF8, symSize: 0x238 }
  - { offsetInCU: 0x39F53, offset: 0x39F53, size: 0x8, addend: 0x0, symName: __ZNSt3__1plB8ue170006IcNS_11char_traitsIcEENS_9allocatorIcEEEENS_12basic_stringIT_T0_T1_EEOS9_RKS9_, symObjAddr: 0x6B80, symBinAddr: 0x10000AD9C, symSize: 0x40 }
  - { offsetInCU: 0x39FAB, offset: 0x39FAB, size: 0x8, addend: 0x0, symName: __ZNSt3__1plB8ue170006IcNS_11char_traitsIcEENS_9allocatorIcEEEENS_12basic_stringIT_T0_T1_EEPKS6_OS9_, symObjAddr: 0x6BC0, symBinAddr: 0x10000ADDC, symSize: 0x44 }
  - { offsetInCU: 0x3A2EB, offset: 0x3A2EB, size: 0x8, addend: 0x0, symName: __ZNSt3__1neB8ue170006IPNS_6vectorIdNS_9allocatorIdEEEEEEbRKNS_11__wrap_iterIT_EESA_, symObjAddr: 0x6DD4, symBinAddr: 0x10000AFF0, symSize: 0x34 }
  - { offsetInCU: 0x3A32E, offset: 0x3A32E, size: 0x8, addend: 0x0, symName: __ZNSt3__1neB8ue170006IPKNS_5arrayIiLm2EEEEEbRKNS_11__wrap_iterIT_EES9_, symObjAddr: 0x702C, symBinAddr: 0x10000B248, symSize: 0x34 }
  - { offsetInCU: 0x3B1E3, offset: 0x3B1E3, size: 0x8, addend: 0x0, symName: __ZNSt3__1neB8ue170006IPKNS_5arrayIiLm3EEEEEbRKNS_11__wrap_iterIT_EES9_, symObjAddr: 0x7160, symBinAddr: 0x10000B37C, symSize: 0x34 }
  - { offsetInCU: 0x3B226, offset: 0x3B226, size: 0x8, addend: 0x0, symName: __ZNSt3__19make_pairB8ue170006IRNS_6vectorINS_5arrayIiLm2EEENS_9allocatorIS3_EEEES7_EENS_4pairINS_18__unwrap_ref_decayIT_E4typeENS9_IT0_E4typeEEEOSA_OSD_, symObjAddr: 0x7264, symBinAddr: 0x10000B480, symSize: 0x40 }
  - { offsetInCU: 0x3B2F0, offset: 0x3B2F0, size: 0x8, addend: 0x0, symName: __ZNSt3__1eqB8ue170006IPZN8Geometry28calculate_bend_twist_springsEiE10SpringPairEEbRKNS_11__wrap_iterIT_EES8_, symObjAddr: 0x7530, symBinAddr: 0x10000B74C, symSize: 0x48 }
  - { offsetInCU: 0x3B333, offset: 0x3B333, size: 0x8, addend: 0x0, symName: __ZNSt3__1eqB8ue170006IPKiEEbRKNS_11__wrap_iterIT_EES7_, symObjAddr: 0x7590, symBinAddr: 0x10000B7AC, symSize: 0x48 }
  - { offsetInCU: 0x3B376, offset: 0x3B376, size: 0x8, addend: 0x0, symName: __ZNSt3__1eqB8ue170006IPNS_6vectorIdNS_9allocatorIdEEEEEEbRKNS_11__wrap_iterIT_EESA_, symObjAddr: 0x7980, symBinAddr: 0x10000BB9C, symSize: 0x48 }
  - { offsetInCU: 0x3B3B9, offset: 0x3B3B9, size: 0x8, addend: 0x0, symName: __ZNSt3__1eqB8ue170006IPKNS_5arrayIiLm2EEEEEbRKNS_11__wrap_iterIT_EES9_, symObjAddr: 0x79E0, symBinAddr: 0x10000BBFC, symSize: 0x48 }
  - { offsetInCU: 0x3B3FC, offset: 0x3B3FC, size: 0x8, addend: 0x0, symName: __ZNSt3__1eqB8ue170006IPKNS_5arrayIiLm3EEEEEbRKNS_11__wrap_iterIT_EES9_, symObjAddr: 0x7AB0, symBinAddr: 0x10000BCCC, symSize: 0x48 }
  - { offsetInCU: 0x3B43F, offset: 0x3B43F, size: 0x8, addend: 0x0, symName: __ZNSt3__118__constexpr_strlenB8ue170006EPKc, symObjAddr: 0x7E5C, symBinAddr: 0x10000C078, symSize: 0x24 }
  - { offsetInCU: 0x3B49E, offset: 0x3B49E, size: 0x8, addend: 0x0, symName: __ZNSt3__122__make_exception_guardB8ue170006INS_6vectorINS_5arrayIiLm2EEENS_9allocatorIS3_EEE16__destroy_vectorEEENS_28__exception_guard_exceptionsIT_EES9_, symObjAddr: 0x8324, symBinAddr: 0x10000C540, symSize: 0x40 }
  - { offsetInCU: 0x3B4D3, offset: 0x3B4D3, size: 0x8, addend: 0x0, symName: __ZNSt3__119__allocate_at_leastB8ue170006INS_9allocatorINS_5arrayIiLm2EEEEEEENS_19__allocation_resultINS_16allocator_traitsIT_E7pointerEEERS7_m, symObjAddr: 0x860C, symBinAddr: 0x10000C828, symSize: 0x40 }
  - { offsetInCU: 0x3B516, offset: 0x3B516, size: 0x8, addend: 0x0, symName: __ZNSt3__13minB8ue170006ImEERKT_S3_S3_, symObjAddr: 0x8748, symBinAddr: 0x10000C964, symSize: 0x2C }
  - { offsetInCU: 0x3B745, offset: 0x3B745, size: 0x8, addend: 0x0, symName: __ZNSt3__13minB8ue170006ImNS_6__lessIvvEEEERKT_S5_S5_T0_, symObjAddr: 0x87AC, symBinAddr: 0x10000C9C8, symSize: 0x54 }
  - { offsetInCU: 0x3B847, offset: 0x3B847, size: 0x8, addend: 0x0, symName: __ZNSt3__120__throw_length_errorB8ue170006EPKc, symObjAddr: 0x8850, symBinAddr: 0x10000CA6C, symSize: 0x64 }
  - { offsetInCU: 0x3B871, offset: 0x3B871, size: 0x8, addend: 0x0, symName: __ZNSt3__117__libcpp_allocateB8ue170006Emm, symObjAddr: 0x89C0, symBinAddr: 0x10000CBDC, symSize: 0x60 }
  - { offsetInCU: 0x3B8CB, offset: 0x3B8CB, size: 0x8, addend: 0x0, symName: __ZNSt3__124__is_overaligned_for_newB8ue170006Em, symObjAddr: 0x8A20, symBinAddr: 0x10000CC3C, symSize: 0x20 }
  - { offsetInCU: 0x3B8F9, offset: 0x3B8F9, size: 0x8, addend: 0x0, symName: __ZNSt3__121__libcpp_operator_newB8ue170006IJmSt11align_val_tEEEPvDpT_, symObjAddr: 0x8A40, symBinAddr: 0x10000CC5C, symSize: 0x2C }
  - { offsetInCU: 0x3B946, offset: 0x3B946, size: 0x8, addend: 0x0, symName: __ZNSt3__121__libcpp_operator_newB8ue170006IJmEEEPvDpT_, symObjAddr: 0x8A6C, symBinAddr: 0x10000CC88, symSize: 0x24 }
  - { offsetInCU: 0x3B980, offset: 0x3B980, size: 0x8, addend: 0x0, symName: __ZNSt3__112__to_addressB8ue170006INS_5arrayIiLm2EEEEEPT_S4_, symObjAddr: 0x8B88, symBinAddr: 0x10000CDA4, symSize: 0x14 }
  - { offsetInCU: 0x3B9B5, offset: 0x3B9B5, size: 0x8, addend: 0x0, symName: __ZNSt3__130__uninitialized_allocator_copyB8ue170006INS_9allocatorINS_5arrayIiLm2EEEEEPS3_S5_S5_EET2_RT_T0_T1_S6_, symObjAddr: 0x8C38, symBinAddr: 0x10000CE54, symSize: 0x80 }
  - { offsetInCU: 0x3BA52, offset: 0x3BA52, size: 0x8, addend: 0x0, symName: __ZNSt3__114__unwrap_rangeB8ue170006IPNS_5arrayIiLm2EEES3_EENS_4pairIT0_S5_EET_S7_, symObjAddr: 0x8D28, symBinAddr: 0x10000CF44, symSize: 0x60 }
  - { offsetInCU: 0x3BA9E, offset: 0x3BA9E, size: 0x8, addend: 0x0, symName: __ZNSt3__135__uninitialized_allocator_copy_implB8ue170006INS_9allocatorINS_5arrayIiLm2EEEEES3_S3_S3_LPv0EEEPT2_RT_PT0_SB_S7_, symObjAddr: 0x8D88, symBinAddr: 0x10000CFA4, symSize: 0x38 }
  - { offsetInCU: 0x3BB1F, offset: 0x3BB1F, size: 0x8, addend: 0x0, symName: __ZNSt3__113__unwrap_iterB8ue170006IPNS_5arrayIiLm2EEENS_18__unwrap_iter_implIS3_Lb1EEELi0EEEDTclsrT0_8__unwrapclsr3stdE7declvalIT_EEEES7_, symObjAddr: 0x8DC0, symBinAddr: 0x10000CFDC, symSize: 0x24 }
  - { offsetInCU: 0x3BB63, offset: 0x3BB63, size: 0x8, addend: 0x0, symName: __ZNSt3__113__rewrap_iterB8ue170006IPNS_5arrayIiLm2EEES3_NS_18__unwrap_iter_implIS3_Lb1EEEEET_S6_T0_, symObjAddr: 0x8DE4, symBinAddr: 0x10000D000, symSize: 0x3C }
  - { offsetInCU: 0x3BBB8, offset: 0x3BBB8, size: 0x8, addend: 0x0, symName: __ZNSt3__19make_pairB8ue170006IPNS_5arrayIiLm2EEES3_EENS_4pairINS_18__unwrap_ref_decayIT_E4typeENS5_IT0_E4typeEEEOS6_OS9_, symObjAddr: 0x8E20, symBinAddr: 0x10000D03C, symSize: 0x38 }
  - { offsetInCU: 0x3BD39, offset: 0x3BD39, size: 0x8, addend: 0x0, symName: __ZNSt3__14copyB8ue170006IPNS_5arrayIiLm2EEES3_EET0_T_S5_S4_, symObjAddr: 0x8EC8, symBinAddr: 0x10000D0E4, symSize: 0x40 }
  - { offsetInCU: 0x3BD93, offset: 0x3BD93, size: 0x8, addend: 0x0, symName: __ZNSt3__16__copyB8ue170006INS_17_ClassicAlgPolicyEPNS_5arrayIiLm2EEES4_S4_EENS_4pairIT0_T2_EES6_T1_S7_, symObjAddr: 0x8F08, symBinAddr: 0x10000D124, symSize: 0x44 }
  - { offsetInCU: 0x3BDFF, offset: 0x3BDFF, size: 0x8, addend: 0x0, symName: __ZNSt3__123__dispatch_copy_or_moveB8ue170006INS_17_ClassicAlgPolicyENS_11__copy_loopIS1_EENS_14__copy_trivialEPNS_5arrayIiLm2EEES7_S7_EENS_4pairIT2_T4_EES9_T3_SA_, symObjAddr: 0x8F4C, symBinAddr: 0x10000D168, symSize: 0x44 }
  - { offsetInCU: 0x3BE7D, offset: 0x3BE7D, size: 0x8, addend: 0x0, symName: __ZNSt3__121__unwrap_and_dispatchB8ue170006INS_10__overloadINS_11__copy_loopINS_17_ClassicAlgPolicyEEENS_14__copy_trivialEEEPNS_5arrayIiLm2EEES9_S9_Li0EEENS_4pairIT0_T2_EESB_T1_SC_, symObjAddr: 0x8F90, symBinAddr: 0x10000D1AC, symSize: 0xB4 }
  - { offsetInCU: 0x3C041, offset: 0x3C041, size: 0x8, addend: 0x0, symName: __ZNSt3__114__rewrap_rangeB8ue170006IPNS_5arrayIiLm2EEES3_EET_S4_T0_, symObjAddr: 0x908C, symBinAddr: 0x10000D2A8, symSize: 0x2C }
  - { offsetInCU: 0x3C08D, offset: 0x3C08D, size: 0x8, addend: 0x0, symName: __ZNSt3__119__copy_trivial_implB8ue170006INS_5arrayIiLm2EEES2_EENS_4pairIPT_PT0_EES5_S5_S7_, symObjAddr: 0x90B8, symBinAddr: 0x10000D2D4, symSize: 0x80 }
  - { offsetInCU: 0x3C0F5, offset: 0x3C0F5, size: 0x8, addend: 0x0, symName: __ZNSt3__119__constexpr_memmoveB8ue170006INS_5arrayIiLm2EEES2_Li0EEEPT_S4_PT0_NS_15__element_countE, symObjAddr: 0x9138, symBinAddr: 0x10000D354, symSize: 0x64 }
  - { offsetInCU: 0x3C163, offset: 0x3C163, size: 0x8, addend: 0x0, symName: __ZNSt3__19make_pairB8ue170006IRPNS_5arrayIiLm2EEES3_EENS_4pairINS_18__unwrap_ref_decayIT_E4typeENS6_IT0_E4typeEEEOS7_OSA_, symObjAddr: 0x919C, symBinAddr: 0x10000D3B8, symSize: 0x38 }
  - { offsetInCU: 0x3C205, offset: 0x3C205, size: 0x8, addend: 0x0, symName: __ZNSt3__119__libcpp_deallocateB8ue170006EPvmm, symObjAddr: 0x95D8, symBinAddr: 0x10000D7F4, symSize: 0x60 }
  - { offsetInCU: 0x3C26A, offset: 0x3C26A, size: 0x8, addend: 0x0, symName: __ZNSt3__127__do_deallocate_handle_sizeB8ue170006IJSt11align_val_tEEEvPvmDpT_, symObjAddr: 0x9638, symBinAddr: 0x10000D854, symSize: 0x30 }
  - { offsetInCU: 0x3C2BD, offset: 0x3C2BD, size: 0x8, addend: 0x0, symName: __ZNSt3__127__do_deallocate_handle_sizeB8ue170006IJEEEvPvmDpT_, symObjAddr: 0x9668, symBinAddr: 0x10000D884, symSize: 0x28 }
  - { offsetInCU: 0x3C2FB, offset: 0x3C2FB, size: 0x8, addend: 0x0, symName: __ZNSt3__124__libcpp_operator_deleteB8ue170006IJPvSt11align_val_tEEEvDpT_, symObjAddr: 0x9690, symBinAddr: 0x10000D8AC, symSize: 0x2C }
  - { offsetInCU: 0x3C344, offset: 0x3C344, size: 0x8, addend: 0x0, symName: __ZNSt3__124__libcpp_operator_deleteB8ue170006IJPvEEEvDpT_, symObjAddr: 0x96BC, symBinAddr: 0x10000D8D8, symSize: 0x24 }
  - { offsetInCU: 0x3C37A, offset: 0x3C37A, size: 0x8, addend: 0x0, symName: __ZNSt3__112__to_addressB8ue170006IN5Eigen6MatrixIdLi3ELi1ELi0ELi3ELi1EEEEEPT_S5_, symObjAddr: 0xA4A4, symBinAddr: 0x10000E6C0, symSize: 0x14 }
  - { offsetInCU: 0x3C3B0, offset: 0x3C3B0, size: 0x8, addend: 0x0, symName: __ZNSt3__112__to_addressB8ue170006INS_5arrayIiLm3EEEEEPT_S4_, symObjAddr: 0xA9A8, symBinAddr: 0x10000EBC4, symSize: 0x14 }
  - { offsetInCU: 0x3C3E6, offset: 0x3C3E6, size: 0x8, addend: 0x0, symName: __ZNSt3__112__to_addressB8ue170006INS_5arrayIiLm5EEEEEPT_S4_, symObjAddr: 0xAE6C, symBinAddr: 0x10000F088, symSize: 0x14 }
  - { offsetInCU: 0x3C41C, offset: 0x3C41C, size: 0x8, addend: 0x0, symName: __ZNSt3__112__to_addressB8ue170006INS_5arrayIiLm4EEEEEPT_S4_, symObjAddr: 0xB33C, symBinAddr: 0x10000F558, symSize: 0x14 }
  - { offsetInCU: 0x3C452, offset: 0x3C452, size: 0x8, addend: 0x0, symName: __ZNSt3__112__to_addressB8ue170006IdEEPT_S2_, symObjAddr: 0xB808, symBinAddr: 0x10000FA24, symSize: 0x14 }
  - { offsetInCU: 0x3C488, offset: 0x3C488, size: 0x8, addend: 0x0, symName: __ZNSt3__112__to_addressB8ue170006IiEEPT_S2_, symObjAddr: 0xBCAC, symBinAddr: 0x10000FEC8, symSize: 0x14 }
  - { offsetInCU: 0x3C4BD, offset: 0x3C4BD, size: 0x8, addend: 0x0, symName: __ZNSt3__116__pad_and_outputB8ue170006IcNS_11char_traitsIcEEEENS_19ostreambuf_iteratorIT_T0_EES6_PKS4_S8_S8_RNS_8ios_baseES4_, symObjAddr: 0xBFFC, symBinAddr: 0x100010218, symSize: 0x240 }
  - { offsetInCU: 0x3C58D, offset: 0x3C58D, size: 0x8, addend: 0x0, symName: __ZNSt3__112__to_addressB8ue170006IcEEPT_S2_, symObjAddr: 0xC46C, symBinAddr: 0x100010688, symSize: 0x14 }
  - { offsetInCU: 0x3C5C2, offset: 0x3C5C2, size: 0x8, addend: 0x0, symName: __ZNSt3__19use_facetB8ue170006INS_5ctypeIcEEEERKT_RKNS_6localeE, symObjAddr: 0xC5C4, symBinAddr: 0x1000107E0, symSize: 0x2C }
  - { offsetInCU: 0x3CA90, offset: 0x3CA90, size: 0x8, addend: 0x0, symName: __ZNSt3__112__to_addressB8ue170006IKcEEPT_S3_, symObjAddr: 0xC684, symBinAddr: 0x1000108A0, symSize: 0x14 }
  - { offsetInCU: 0x3CAF8, offset: 0x3CAF8, size: 0x8, addend: 0x0, symName: __ZNSt3__18distanceB8ue170006IPNS_5arrayIiLm2EEEEENS_15iterator_traitsIT_E15difference_typeES5_S5_, symObjAddr: 0xC950, symBinAddr: 0x100010B6C, symSize: 0x2C }
  - { offsetInCU: 0x3CB3B, offset: 0x3CB3B, size: 0x8, addend: 0x0, symName: __ZNSt3__14nextB8ue170006IPNS_5arrayIiLm2EEEEENS_9enable_ifIXsr29__has_input_iterator_categoryIT_EE5valueES5_E4typeES5_NS_15iterator_traitsIS5_E15difference_typeE, symObjAddr: 0xC97C, symBinAddr: 0x100010B98, symSize: 0x34 }
  - { offsetInCU: 0x3CB7F, offset: 0x3CB7F, size: 0x8, addend: 0x0, symName: __ZNSt3__121__convert_to_integralB8ue170006El, symObjAddr: 0xCB7C, symBinAddr: 0x100010D98, symSize: 0x14 }
  - { offsetInCU: 0x3CBAB, offset: 0x3CBAB, size: 0x8, addend: 0x0, symName: __ZNSt3__19__advanceB8ue170006IPNS_5arrayIiLm2EEEEEvRT_NS_15iterator_traitsIS4_E15difference_typeENS_26random_access_iterator_tagE, symObjAddr: 0xCB90, symBinAddr: 0x100010DAC, symSize: 0x28 }
  - { offsetInCU: 0x3CBF5, offset: 0x3CBF5, size: 0x8, addend: 0x0, symName: __ZNSt3__13maxB8ue170006ImEERKT_S3_S3_, symObjAddr: 0xCC6C, symBinAddr: 0x100010E88, symSize: 0x2C }
  - { offsetInCU: 0x3CC38, offset: 0x3CC38, size: 0x8, addend: 0x0, symName: __ZNSt3__13maxB8ue170006ImNS_6__lessIvvEEEERKT_S5_S5_T0_, symObjAddr: 0xCC98, symBinAddr: 0x100010EB4, symSize: 0x54 }
  - { offsetInCU: 0x3CC93, offset: 0x3CC93, size: 0x8, addend: 0x0, symName: __ZNSt3__110__distanceB8ue170006IPNS_5arrayIiLm2EEEEENS_15iterator_traitsIT_E15difference_typeES5_S5_NS_26random_access_iterator_tagE, symObjAddr: 0xCCEC, symBinAddr: 0x100010F08, symSize: 0x28 }
  - { offsetInCU: 0x3CCE1, offset: 0x3CCE1, size: 0x8, addend: 0x0, symName: __ZNSt3__142__uninitialized_allocator_move_if_noexceptB8ue170006INS_9allocatorINS_5arrayIiLm2EEEEENS_16reverse_iteratorIPS3_EES7_S3_vEET1_RT_T0_SB_S8_, symObjAddr: 0xD488, symBinAddr: 0x1000116A4, symSize: 0x78 }
  - { offsetInCU: 0x3CD5F, offset: 0x3CD5F, size: 0x8, addend: 0x0, symName: __ZNSt3__14swapB8ue170006IPNS_5arrayIiLm2EEEEENS_9enable_ifIXaasr21is_move_constructibleIT_EE5valuesr18is_move_assignableIS5_EE5valueEvE4typeERS5_S8_, symObjAddr: 0xD54C, symBinAddr: 0x100011768, symSize: 0x3C }
  - { offsetInCU: 0x3CDB0, offset: 0x3CDB0, size: 0x8, addend: 0x0, symName: __ZNSt3__14moveB8ue170006INS_16reverse_iteratorIPNS_5arrayIiLm2EEEEES5_EET0_T_S7_S6_, symObjAddr: 0xD588, symBinAddr: 0x1000117A4, symSize: 0x78 }
  - { offsetInCU: 0x3CE0A, offset: 0x3CE0A, size: 0x8, addend: 0x0, symName: __ZNSt3__16__moveB8ue170006INS_17_ClassicAlgPolicyENS_16reverse_iteratorIPNS_5arrayIiLm2EEEEES6_S6_EENS_4pairIT0_T2_EES8_T1_S9_, symObjAddr: 0xD600, symBinAddr: 0x10001181C, symSize: 0x64 }
  - { offsetInCU: 0x3CE76, offset: 0x3CE76, size: 0x8, addend: 0x0, symName: __ZNSt3__123__dispatch_copy_or_moveB8ue170006INS_17_ClassicAlgPolicyENS_11__move_loopIS1_EENS_14__move_trivialENS_16reverse_iteratorIPNS_5arrayIiLm2EEEEES9_S9_EENS_4pairIT2_T4_EESB_T3_SC_, symObjAddr: 0xD664, symBinAddr: 0x100011880, symSize: 0x64 }
  - { offsetInCU: 0x3CEF4, offset: 0x3CEF4, size: 0x8, addend: 0x0, symName: __ZNSt3__121__unwrap_and_dispatchB8ue170006INS_10__overloadINS_11__move_loopINS_17_ClassicAlgPolicyEEENS_14__move_trivialEEENS_16reverse_iteratorIPNS_5arrayIiLm2EEEEESB_SB_Li0EEENS_4pairIT0_T2_EESD_T1_SE_, symObjAddr: 0xD6C8, symBinAddr: 0x1000118E4, symSize: 0x12C }
  - { offsetInCU: 0x3CF84, offset: 0x3CF84, size: 0x8, addend: 0x0, symName: __ZNSt3__114__unwrap_rangeB8ue170006INS_16reverse_iteratorIPNS_5arrayIiLm2EEEEES5_EENS_4pairIT0_S7_EET_S9_, symObjAddr: 0xD7F4, symBinAddr: 0x100011A10, symSize: 0x84 }
  - { offsetInCU: 0x3D23A, offset: 0x3D23A, size: 0x8, addend: 0x0, symName: __ZNSt3__113__unwrap_iterB8ue170006INS_16reverse_iteratorIPNS_5arrayIiLm2EEEEENS_18__unwrap_iter_implIS5_Lb0EEELi0EEEDTclsrT0_8__unwrapclsr3stdE7declvalIT_EEEES9_, symObjAddr: 0xD918, symBinAddr: 0x100011B34, symSize: 0x44 }
  - { offsetInCU: 0x3D27E, offset: 0x3D27E, size: 0x8, addend: 0x0, symName: __ZNSt3__19make_pairB8ue170006INS_16reverse_iteratorIPNS_5arrayIiLm2EEEEES5_EENS_4pairINS_18__unwrap_ref_decayIT_E4typeENS7_IT0_E4typeEEEOS8_OSB_, symObjAddr: 0xD95C, symBinAddr: 0x100011B78, symSize: 0x38 }
  - { offsetInCU: 0x3D2CD, offset: 0x3D2CD, size: 0x8, addend: 0x0, symName: __ZNSt3__114__rewrap_rangeB8ue170006INS_16reverse_iteratorIPNS_5arrayIiLm2EEEEES5_EET_S6_T0_, symObjAddr: 0xD994, symBinAddr: 0x100011BB0, symSize: 0x5C }
  - { offsetInCU: 0x3D319, offset: 0x3D319, size: 0x8, addend: 0x0, symName: __ZNSt3__113__rewrap_iterB8ue170006INS_16reverse_iteratorIPNS_5arrayIiLm2EEEEES5_NS_18__unwrap_iter_implIS5_Lb0EEEEET_S8_T0_, symObjAddr: 0xD9F0, symBinAddr: 0x100011C0C, symSize: 0x74 }
  - { offsetInCU: 0x3D36E, offset: 0x3D36E, size: 0x8, addend: 0x0, symName: __ZNSt3__1neB8ue170006IPNS_5arrayIiLm2EEES3_EEbRKNS_16reverse_iteratorIT_EERKNS4_IT0_EE, symObjAddr: 0xDA64, symBinAddr: 0x100011C80, symSize: 0x48 }
  - { offsetInCU: 0x3D56B, offset: 0x3D56B, size: 0x8, addend: 0x0, symName: __ZNSt3__119__allocate_at_leastB8ue170006INS_9allocatorIiEEEENS_19__allocation_resultINS_16allocator_traitsIT_E7pointerEEERS5_m, symObjAddr: 0xE6C0, symBinAddr: 0x1000128DC, symSize: 0x40 }
  - { offsetInCU: 0x3D5AE, offset: 0x3D5AE, size: 0x8, addend: 0x0, symName: __ZNSt3__142__uninitialized_allocator_move_if_noexceptB8ue170006INS_9allocatorIiEENS_16reverse_iteratorIPiEES5_ivEET1_RT_T0_S9_S6_, symObjAddr: 0xE940, symBinAddr: 0x100012B5C, symSize: 0x78 }
  - { offsetInCU: 0x3D62C, offset: 0x3D62C, size: 0x8, addend: 0x0, symName: __ZNSt3__14swapB8ue170006IPiEENS_9enable_ifIXaasr21is_move_constructibleIT_EE5valuesr18is_move_assignableIS3_EE5valueEvE4typeERS3_S6_, symObjAddr: 0xEA04, symBinAddr: 0x100012C20, symSize: 0x3C }
  - { offsetInCU: 0x3D67D, offset: 0x3D67D, size: 0x8, addend: 0x0, symName: __ZNSt3__14moveB8ue170006INS_16reverse_iteratorIPiEES3_EET0_T_S5_S4_, symObjAddr: 0xEAEC, symBinAddr: 0x100012D08, symSize: 0x78 }
  - { offsetInCU: 0x3D6D7, offset: 0x3D6D7, size: 0x8, addend: 0x0, symName: __ZNSt3__16__moveB8ue170006INS_17_ClassicAlgPolicyENS_16reverse_iteratorIPiEES4_S4_EENS_4pairIT0_T2_EES6_T1_S7_, symObjAddr: 0xEB64, symBinAddr: 0x100012D80, symSize: 0x64 }
  - { offsetInCU: 0x3D743, offset: 0x3D743, size: 0x8, addend: 0x0, symName: __ZNSt3__123__dispatch_copy_or_moveB8ue170006INS_17_ClassicAlgPolicyENS_11__move_loopIS1_EENS_14__move_trivialENS_16reverse_iteratorIPiEES7_S7_EENS_4pairIT2_T4_EES9_T3_SA_, symObjAddr: 0xEBC8, symBinAddr: 0x100012DE4, symSize: 0x64 }
  - { offsetInCU: 0x3D7C1, offset: 0x3D7C1, size: 0x8, addend: 0x0, symName: __ZNSt3__121__unwrap_and_dispatchB8ue170006INS_10__overloadINS_11__move_loopINS_17_ClassicAlgPolicyEEENS_14__move_trivialEEENS_16reverse_iteratorIPiEES9_S9_Li0EEENS_4pairIT0_T2_EESB_T1_SC_, symObjAddr: 0xEC2C, symBinAddr: 0x100012E48, symSize: 0x12C }
  - { offsetInCU: 0x3D851, offset: 0x3D851, size: 0x8, addend: 0x0, symName: __ZNSt3__114__unwrap_rangeB8ue170006INS_16reverse_iteratorIPiEES3_EENS_4pairIT0_S5_EET_S7_, symObjAddr: 0xED58, symBinAddr: 0x100012F74, symSize: 0x84 }
  - { offsetInCU: 0x3D971, offset: 0x3D971, size: 0x8, addend: 0x0, symName: __ZNSt3__113__unwrap_iterB8ue170006INS_16reverse_iteratorIPiEENS_18__unwrap_iter_implIS3_Lb0EEELi0EEEDTclsrT0_8__unwrapclsr3stdE7declvalIT_EEEES7_, symObjAddr: 0xEE7C, symBinAddr: 0x100013098, symSize: 0x44 }
  - { offsetInCU: 0x3D9B5, offset: 0x3D9B5, size: 0x8, addend: 0x0, symName: __ZNSt3__19make_pairB8ue170006INS_16reverse_iteratorIPiEES3_EENS_4pairINS_18__unwrap_ref_decayIT_E4typeENS5_IT0_E4typeEEEOS6_OS9_, symObjAddr: 0xEEC0, symBinAddr: 0x1000130DC, symSize: 0x38 }
  - { offsetInCU: 0x3DA04, offset: 0x3DA04, size: 0x8, addend: 0x0, symName: __ZNSt3__114__rewrap_rangeB8ue170006INS_16reverse_iteratorIPiEES3_EET_S4_T0_, symObjAddr: 0xEEF8, symBinAddr: 0x100013114, symSize: 0x5C }
  - { offsetInCU: 0x3DA50, offset: 0x3DA50, size: 0x8, addend: 0x0, symName: __ZNSt3__113__rewrap_iterB8ue170006INS_16reverse_iteratorIPiEES3_NS_18__unwrap_iter_implIS3_Lb0EEEEET_S6_T0_, symObjAddr: 0xEF54, symBinAddr: 0x100013170, symSize: 0x74 }
  - { offsetInCU: 0x3DAA5, offset: 0x3DAA5, size: 0x8, addend: 0x0, symName: __ZNSt3__1neB8ue170006IPiS1_EEbRKNS_16reverse_iteratorIT_EERKNS2_IT0_EE, symObjAddr: 0xEFC8, symBinAddr: 0x1000131E4, symSize: 0x48 }
  - { offsetInCU: 0x3DB5D, offset: 0x3DB5D, size: 0x8, addend: 0x0, symName: __ZNSt3__119__allocate_at_leastB8ue170006INS_9allocatorINS_5arrayIiLm3EEEEEEENS_19__allocation_resultINS_16allocator_traitsIT_E7pointerEEERS7_m, symObjAddr: 0xFCF8, symBinAddr: 0x100013F14, symSize: 0x40 }
  - { offsetInCU: 0x3DBA0, offset: 0x3DBA0, size: 0x8, addend: 0x0, symName: __ZNSt3__142__uninitialized_allocator_move_if_noexceptB8ue170006INS_9allocatorINS_5arrayIiLm3EEEEENS_16reverse_iteratorIPS3_EES7_S3_vEET1_RT_T0_SB_S8_, symObjAddr: 0xFF84, symBinAddr: 0x1000141A0, symSize: 0x78 }
  - { offsetInCU: 0x3DC1E, offset: 0x3DC1E, size: 0x8, addend: 0x0, symName: __ZNSt3__14swapB8ue170006IPNS_5arrayIiLm3EEEEENS_9enable_ifIXaasr21is_move_constructibleIT_EE5valuesr18is_move_assignableIS5_EE5valueEvE4typeERS5_S8_, symObjAddr: 0x10048, symBinAddr: 0x100014264, symSize: 0x3C }
  - { offsetInCU: 0x3DC6F, offset: 0x3DC6F, size: 0x8, addend: 0x0, symName: __ZNSt3__14moveB8ue170006INS_16reverse_iteratorIPNS_5arrayIiLm3EEEEES5_EET0_T_S7_S6_, symObjAddr: 0x1014C, symBinAddr: 0x100014368, symSize: 0x78 }
  - { offsetInCU: 0x3DCC9, offset: 0x3DCC9, size: 0x8, addend: 0x0, symName: __ZNSt3__16__moveB8ue170006INS_17_ClassicAlgPolicyENS_16reverse_iteratorIPNS_5arrayIiLm3EEEEES6_S6_EENS_4pairIT0_T2_EES8_T1_S9_, symObjAddr: 0x101C4, symBinAddr: 0x1000143E0, symSize: 0x64 }
  - { offsetInCU: 0x3DD35, offset: 0x3DD35, size: 0x8, addend: 0x0, symName: __ZNSt3__123__dispatch_copy_or_moveB8ue170006INS_17_ClassicAlgPolicyENS_11__move_loopIS1_EENS_14__move_trivialENS_16reverse_iteratorIPNS_5arrayIiLm3EEEEES9_S9_EENS_4pairIT2_T4_EESB_T3_SC_, symObjAddr: 0x10228, symBinAddr: 0x100014444, symSize: 0x64 }
  - { offsetInCU: 0x3DDB3, offset: 0x3DDB3, size: 0x8, addend: 0x0, symName: __ZNSt3__121__unwrap_and_dispatchB8ue170006INS_10__overloadINS_11__move_loopINS_17_ClassicAlgPolicyEEENS_14__move_trivialEEENS_16reverse_iteratorIPNS_5arrayIiLm3EEEEESB_SB_Li0EEENS_4pairIT0_T2_EESD_T1_SE_, symObjAddr: 0x1028C, symBinAddr: 0x1000144A8, symSize: 0x12C }
  - { offsetInCU: 0x3DE43, offset: 0x3DE43, size: 0x8, addend: 0x0, symName: __ZNSt3__114__unwrap_rangeB8ue170006INS_16reverse_iteratorIPNS_5arrayIiLm3EEEEES5_EENS_4pairIT0_S7_EET_S9_, symObjAddr: 0x103B8, symBinAddr: 0x1000145D4, symSize: 0x84 }
  - { offsetInCU: 0x3DF63, offset: 0x3DF63, size: 0x8, addend: 0x0, symName: __ZNSt3__113__unwrap_iterB8ue170006INS_16reverse_iteratorIPNS_5arrayIiLm3EEEEENS_18__unwrap_iter_implIS5_Lb0EEELi0EEEDTclsrT0_8__unwrapclsr3stdE7declvalIT_EEEES9_, symObjAddr: 0x104E4, symBinAddr: 0x100014700, symSize: 0x44 }
  - { offsetInCU: 0x3DFA7, offset: 0x3DFA7, size: 0x8, addend: 0x0, symName: __ZNSt3__19make_pairB8ue170006INS_16reverse_iteratorIPNS_5arrayIiLm3EEEEES5_EENS_4pairINS_18__unwrap_ref_decayIT_E4typeENS7_IT0_E4typeEEEOS8_OSB_, symObjAddr: 0x10528, symBinAddr: 0x100014744, symSize: 0x38 }
  - { offsetInCU: 0x3DFF6, offset: 0x3DFF6, size: 0x8, addend: 0x0, symName: __ZNSt3__114__rewrap_rangeB8ue170006INS_16reverse_iteratorIPNS_5arrayIiLm3EEEEES5_EET_S6_T0_, symObjAddr: 0x10560, symBinAddr: 0x10001477C, symSize: 0x5C }
  - { offsetInCU: 0x3E042, offset: 0x3E042, size: 0x8, addend: 0x0, symName: __ZNSt3__113__rewrap_iterB8ue170006INS_16reverse_iteratorIPNS_5arrayIiLm3EEEEES5_NS_18__unwrap_iter_implIS5_Lb0EEEEET_S8_T0_, symObjAddr: 0x105BC, symBinAddr: 0x1000147D8, symSize: 0x74 }
  - { offsetInCU: 0x3E097, offset: 0x3E097, size: 0x8, addend: 0x0, symName: __ZNSt3__1neB8ue170006IPNS_5arrayIiLm3EEES3_EEbRKNS_16reverse_iteratorIT_EERKNS4_IT0_EE, symObjAddr: 0x10630, symBinAddr: 0x10001484C, symSize: 0x48 }
  - { offsetInCU: 0x3E14F, offset: 0x3E14F, size: 0x8, addend: 0x0, symName: __ZNSt3__119__allocate_at_leastB8ue170006INS_9allocatorIdEEEENS_19__allocation_resultINS_16allocator_traitsIT_E7pointerEEERS5_m, symObjAddr: 0x1135C, symBinAddr: 0x100015578, symSize: 0x40 }
  - { offsetInCU: 0x3E192, offset: 0x3E192, size: 0x8, addend: 0x0, symName: __ZNSt3__142__uninitialized_allocator_move_if_noexceptB8ue170006INS_9allocatorIdEENS_16reverse_iteratorIPdEES5_dvEET1_RT_T0_S9_S6_, symObjAddr: 0x115DC, symBinAddr: 0x1000157F8, symSize: 0x78 }
  - { offsetInCU: 0x3E210, offset: 0x3E210, size: 0x8, addend: 0x0, symName: __ZNSt3__14swapB8ue170006IPdEENS_9enable_ifIXaasr21is_move_constructibleIT_EE5valuesr18is_move_assignableIS3_EE5valueEvE4typeERS3_S6_, symObjAddr: 0x116A0, symBinAddr: 0x1000158BC, symSize: 0x3C }
  - { offsetInCU: 0x3E261, offset: 0x3E261, size: 0x8, addend: 0x0, symName: __ZNSt3__14moveB8ue170006INS_16reverse_iteratorIPdEES3_EET0_T_S5_S4_, symObjAddr: 0x11788, symBinAddr: 0x1000159A4, symSize: 0x78 }
  - { offsetInCU: 0x3E2BB, offset: 0x3E2BB, size: 0x8, addend: 0x0, symName: __ZNSt3__16__moveB8ue170006INS_17_ClassicAlgPolicyENS_16reverse_iteratorIPdEES4_S4_EENS_4pairIT0_T2_EES6_T1_S7_, symObjAddr: 0x11800, symBinAddr: 0x100015A1C, symSize: 0x64 }
  - { offsetInCU: 0x3E327, offset: 0x3E327, size: 0x8, addend: 0x0, symName: __ZNSt3__123__dispatch_copy_or_moveB8ue170006INS_17_ClassicAlgPolicyENS_11__move_loopIS1_EENS_14__move_trivialENS_16reverse_iteratorIPdEES7_S7_EENS_4pairIT2_T4_EES9_T3_SA_, symObjAddr: 0x11864, symBinAddr: 0x100015A80, symSize: 0x64 }
  - { offsetInCU: 0x3E3A5, offset: 0x3E3A5, size: 0x8, addend: 0x0, symName: __ZNSt3__121__unwrap_and_dispatchB8ue170006INS_10__overloadINS_11__move_loopINS_17_ClassicAlgPolicyEEENS_14__move_trivialEEENS_16reverse_iteratorIPdEES9_S9_Li0EEENS_4pairIT0_T2_EESB_T1_SC_, symObjAddr: 0x118C8, symBinAddr: 0x100015AE4, symSize: 0x12C }
  - { offsetInCU: 0x3E435, offset: 0x3E435, size: 0x8, addend: 0x0, symName: __ZNSt3__114__unwrap_rangeB8ue170006INS_16reverse_iteratorIPdEES3_EENS_4pairIT0_S5_EET_S7_, symObjAddr: 0x119F4, symBinAddr: 0x100015C10, symSize: 0x84 }
  - { offsetInCU: 0x3E555, offset: 0x3E555, size: 0x8, addend: 0x0, symName: __ZNSt3__113__unwrap_iterB8ue170006INS_16reverse_iteratorIPdEENS_18__unwrap_iter_implIS3_Lb0EEELi0EEEDTclsrT0_8__unwrapclsr3stdE7declvalIT_EEEES7_, symObjAddr: 0x11B18, symBinAddr: 0x100015D34, symSize: 0x44 }
  - { offsetInCU: 0x3E599, offset: 0x3E599, size: 0x8, addend: 0x0, symName: __ZNSt3__19make_pairB8ue170006INS_16reverse_iteratorIPdEES3_EENS_4pairINS_18__unwrap_ref_decayIT_E4typeENS5_IT0_E4typeEEEOS6_OS9_, symObjAddr: 0x11B5C, symBinAddr: 0x100015D78, symSize: 0x38 }
  - { offsetInCU: 0x3E5E8, offset: 0x3E5E8, size: 0x8, addend: 0x0, symName: __ZNSt3__114__rewrap_rangeB8ue170006INS_16reverse_iteratorIPdEES3_EET_S4_T0_, symObjAddr: 0x11B94, symBinAddr: 0x100015DB0, symSize: 0x5C }
  - { offsetInCU: 0x3E634, offset: 0x3E634, size: 0x8, addend: 0x0, symName: __ZNSt3__113__rewrap_iterB8ue170006INS_16reverse_iteratorIPdEES3_NS_18__unwrap_iter_implIS3_Lb0EEEEET_S6_T0_, symObjAddr: 0x11BF0, symBinAddr: 0x100015E0C, symSize: 0x74 }
  - { offsetInCU: 0x3E689, offset: 0x3E689, size: 0x8, addend: 0x0, symName: __ZNSt3__1neB8ue170006IPdS1_EEbRKNS_16reverse_iteratorIT_EERKNS2_IT0_EE, symObjAddr: 0x11C64, symBinAddr: 0x100015E80, symSize: 0x48 }
  - { offsetInCU: 0x3E741, offset: 0x3E741, size: 0x8, addend: 0x0, symName: __ZNSt3__119__allocate_at_leastB8ue170006INS_9allocatorIN5Eigen6MatrixIdLi3ELi1ELi0ELi3ELi1EEEEEEENS_19__allocation_resultINS_16allocator_traitsIT_E7pointerEEERS8_m, symObjAddr: 0x12D90, symBinAddr: 0x100016FAC, symSize: 0x40 }
  - { offsetInCU: 0x3E784, offset: 0x3E784, size: 0x8, addend: 0x0, symName: __ZNSt3__142__uninitialized_allocator_move_if_noexceptB8ue170006INS_9allocatorIN5Eigen6MatrixIdLi3ELi1ELi0ELi3ELi1EEEEENS_16reverse_iteratorIPS4_EES8_S8_EET2_RT_T0_T1_S9_, symObjAddr: 0x1301C, symBinAddr: 0x100017238, symSize: 0x12C }
  - { offsetInCU: 0x3E825, offset: 0x3E825, size: 0x8, addend: 0x0, symName: __ZNSt3__14swapB8ue170006IPN5Eigen6MatrixIdLi3ELi1ELi0ELi3ELi1EEEEENS_9enable_ifIXaasr21is_move_constructibleIT_EE5valuesr18is_move_assignableIS6_EE5valueEvE4typeERS6_S9_, symObjAddr: 0x13194, symBinAddr: 0x1000173B0, symSize: 0x3C }
  - { offsetInCU: 0x3E876, offset: 0x3E876, size: 0x8, addend: 0x0, symName: __ZNSt3__122__make_exception_guardB8ue170006INS_29_AllocatorDestroyRangeReverseINS_9allocatorIN5Eigen6MatrixIdLi3ELi1ELi0ELi3ELi1EEEEENS_16reverse_iteratorIPS5_EEEEEENS_28__exception_guard_exceptionsIT_EESC_, symObjAddr: 0x13298, symBinAddr: 0x1000174B4, symSize: 0x4C }
  - { offsetInCU: 0x3E8AC, offset: 0x3E8AC, size: 0x8, addend: 0x0, symName: __ZNSt3__1neB8ue170006IPN5Eigen6MatrixIdLi3ELi1ELi0ELi3ELi1EEES4_EEbRKNS_16reverse_iteratorIT_EERKNS5_IT0_EE, symObjAddr: 0x13328, symBinAddr: 0x100017544, symSize: 0x48 }
  - { offsetInCU: 0x3E8F8, offset: 0x3E8F8, size: 0x8, addend: 0x0, symName: __ZNSt3__112__to_addressB8ue170006INS_16reverse_iteratorIPN5Eigen6MatrixIdLi3ELi1ELi0ELi3ELi1EEEEEvEEu7__decayIDTclsr19__to_address_helperIT_EE6__callclsr3stdE7declvalIRKS7_EEEEES9_, symObjAddr: 0x133A4, symBinAddr: 0x1000175C0, symSize: 0x24 }
  - { offsetInCU: 0x3E957, offset: 0x3E957, size: 0x8, addend: 0x0, symName: __ZNSt3__119__allocator_destroyB8ue170006INS_9allocatorIN5Eigen6MatrixIdLi3ELi1ELi0ELi3ELi1EEEEENS_16reverse_iteratorINS6_IPS4_EEEES9_EEvRT_T0_T1_, symObjAddr: 0x13788, symBinAddr: 0x1000179A4, symSize: 0x70 }
  - { offsetInCU: 0x3E9BC, offset: 0x3E9BC, size: 0x8, addend: 0x0, symName: __ZNSt3__1neB8ue170006INS_16reverse_iteratorIPN5Eigen6MatrixIdLi3ELi1ELi0ELi3ELi1EEEEES6_EEbRKNS1_IT_EERKNS1_IT0_EE, symObjAddr: 0x13834, symBinAddr: 0x100017A50, symSize: 0x60 }
  - { offsetInCU: 0x3EA08, offset: 0x3EA08, size: 0x8, addend: 0x0, symName: __ZNSt3__112__to_addressB8ue170006INS_16reverse_iteratorINS1_IPN5Eigen6MatrixIdLi3ELi1ELi0ELi3ELi1EEEEEEEvEEu7__decayIDTclsr19__to_address_helperIT_EE6__callclsr3stdE7declvalIRKS8_EEEEESA_, symObjAddr: 0x13894, symBinAddr: 0x100017AB0, symSize: 0x24 }
  - { offsetInCU: 0x3EA67, offset: 0x3EA67, size: 0x8, addend: 0x0, symName: __ZNSt3__16fill_nB8ue170006IPdldEET_S2_T0_RKT1_, symObjAddr: 0x1431C, symBinAddr: 0x100018538, symSize: 0x44 }
  - { offsetInCU: 0x3EACB, offset: 0x3EACB, size: 0x8, addend: 0x0, symName: __ZNSt3__18__fill_nB8ue170006IPdldEET_S2_T0_RKT1_, symObjAddr: 0x14448, symBinAddr: 0x100018664, symSize: 0x64 }
  - { offsetInCU: 0x3EB2E, offset: 0x3EB2E, size: 0x8, addend: 0x0, symName: __ZNSt3__119__allocate_at_leastB8ue170006INS_9allocatorINS_5arrayIiLm4EEEEEEENS_19__allocation_resultINS_16allocator_traitsIT_E7pointerEEERS7_m, symObjAddr: 0x14DE8, symBinAddr: 0x100019004, symSize: 0x40 }
  - { offsetInCU: 0x3EB71, offset: 0x3EB71, size: 0x8, addend: 0x0, symName: __ZNSt3__142__uninitialized_allocator_move_if_noexceptB8ue170006INS_9allocatorINS_5arrayIiLm4EEEEENS_16reverse_iteratorIPS3_EES7_S3_vEET1_RT_T0_SB_S8_, symObjAddr: 0x15068, symBinAddr: 0x100019284, symSize: 0x78 }
  - { offsetInCU: 0x3EBEF, offset: 0x3EBEF, size: 0x8, addend: 0x0, symName: __ZNSt3__14swapB8ue170006IPNS_5arrayIiLm4EEEEENS_9enable_ifIXaasr21is_move_constructibleIT_EE5valuesr18is_move_assignableIS5_EE5valueEvE4typeERS5_S8_, symObjAddr: 0x1512C, symBinAddr: 0x100019348, symSize: 0x3C }
  - { offsetInCU: 0x3EC40, offset: 0x3EC40, size: 0x8, addend: 0x0, symName: __ZNSt3__14moveB8ue170006INS_16reverse_iteratorIPNS_5arrayIiLm4EEEEES5_EET0_T_S7_S6_, symObjAddr: 0x15214, symBinAddr: 0x100019430, symSize: 0x78 }
  - { offsetInCU: 0x3EC9A, offset: 0x3EC9A, size: 0x8, addend: 0x0, symName: __ZNSt3__16__moveB8ue170006INS_17_ClassicAlgPolicyENS_16reverse_iteratorIPNS_5arrayIiLm4EEEEES6_S6_EENS_4pairIT0_T2_EES8_T1_S9_, symObjAddr: 0x1528C, symBinAddr: 0x1000194A8, symSize: 0x64 }
  - { offsetInCU: 0x3ED06, offset: 0x3ED06, size: 0x8, addend: 0x0, symName: __ZNSt3__123__dispatch_copy_or_moveB8ue170006INS_17_ClassicAlgPolicyENS_11__move_loopIS1_EENS_14__move_trivialENS_16reverse_iteratorIPNS_5arrayIiLm4EEEEES9_S9_EENS_4pairIT2_T4_EESB_T3_SC_, symObjAddr: 0x152F0, symBinAddr: 0x10001950C, symSize: 0x64 }
  - { offsetInCU: 0x3ED84, offset: 0x3ED84, size: 0x8, addend: 0x0, symName: __ZNSt3__121__unwrap_and_dispatchB8ue170006INS_10__overloadINS_11__move_loopINS_17_ClassicAlgPolicyEEENS_14__move_trivialEEENS_16reverse_iteratorIPNS_5arrayIiLm4EEEEESB_SB_Li0EEENS_4pairIT0_T2_EESD_T1_SE_, symObjAddr: 0x15354, symBinAddr: 0x100019570, symSize: 0x12C }
  - { offsetInCU: 0x3EE14, offset: 0x3EE14, size: 0x8, addend: 0x0, symName: __ZNSt3__114__unwrap_rangeB8ue170006INS_16reverse_iteratorIPNS_5arrayIiLm4EEEEES5_EENS_4pairIT0_S7_EET_S9_, symObjAddr: 0x15480, symBinAddr: 0x10001969C, symSize: 0x84 }
  - { offsetInCU: 0x3EF34, offset: 0x3EF34, size: 0x8, addend: 0x0, symName: __ZNSt3__113__unwrap_iterB8ue170006INS_16reverse_iteratorIPNS_5arrayIiLm4EEEEENS_18__unwrap_iter_implIS5_Lb0EEELi0EEEDTclsrT0_8__unwrapclsr3stdE7declvalIT_EEEES9_, symObjAddr: 0x155A4, symBinAddr: 0x1000197C0, symSize: 0x44 }
  - { offsetInCU: 0x3EF78, offset: 0x3EF78, size: 0x8, addend: 0x0, symName: __ZNSt3__19make_pairB8ue170006INS_16reverse_iteratorIPNS_5arrayIiLm4EEEEES5_EENS_4pairINS_18__unwrap_ref_decayIT_E4typeENS7_IT0_E4typeEEEOS8_OSB_, symObjAddr: 0x155E8, symBinAddr: 0x100019804, symSize: 0x38 }
  - { offsetInCU: 0x3EFC7, offset: 0x3EFC7, size: 0x8, addend: 0x0, symName: __ZNSt3__114__rewrap_rangeB8ue170006INS_16reverse_iteratorIPNS_5arrayIiLm4EEEEES5_EET_S6_T0_, symObjAddr: 0x15620, symBinAddr: 0x10001983C, symSize: 0x5C }
  - { offsetInCU: 0x3F013, offset: 0x3F013, size: 0x8, addend: 0x0, symName: __ZNSt3__113__rewrap_iterB8ue170006INS_16reverse_iteratorIPNS_5arrayIiLm4EEEEES5_NS_18__unwrap_iter_implIS5_Lb0EEEEET_S8_T0_, symObjAddr: 0x1567C, symBinAddr: 0x100019898, symSize: 0x74 }
  - { offsetInCU: 0x3F068, offset: 0x3F068, size: 0x8, addend: 0x0, symName: __ZNSt3__1neB8ue170006IPNS_5arrayIiLm4EEES3_EEbRKNS_16reverse_iteratorIT_EERKNS4_IT0_EE, symObjAddr: 0x156F0, symBinAddr: 0x10001990C, symSize: 0x48 }
  - { offsetInCU: 0x3F120, offset: 0x3F120, size: 0x8, addend: 0x0, symName: __ZNSt3__13maxB8ue170006IlEERKT_S3_S3_, symObjAddr: 0x18FD0, symBinAddr: 0x10001D1EC, symSize: 0x2C }
  - { offsetInCU: 0x3F163, offset: 0x3F163, size: 0x8, addend: 0x0, symName: __ZNSt3__13maxB8ue170006IlNS_6__lessIvvEEEERKT_S5_S5_T0_, symObjAddr: 0x193FC, symBinAddr: 0x10001D618, symSize: 0x54 }
  - { offsetInCU: 0x3F1BD, offset: 0x3F1BD, size: 0x8, addend: 0x0, symName: __ZNSt3__122__make_exception_guardB8ue170006INS_6vectorINS_5arrayIiLm3EEENS_9allocatorIS3_EEE16__destroy_vectorEEENS_28__exception_guard_exceptionsIT_EES9_, symObjAddr: 0x1A630, symBinAddr: 0x10001E84C, symSize: 0x40 }
  - { offsetInCU: 0x3F1F2, offset: 0x3F1F2, size: 0x8, addend: 0x0, symName: __ZNSt3__130__uninitialized_allocator_copyB8ue170006INS_9allocatorINS_5arrayIiLm3EEEEEPKS3_S6_PS3_EET2_RT_T0_T1_S8_, symObjAddr: 0x1A8A8, symBinAddr: 0x10001EAC4, symSize: 0x80 }
  - { offsetInCU: 0x3F28F, offset: 0x3F28F, size: 0x8, addend: 0x0, symName: __ZNSt3__114__unwrap_rangeB8ue170006IPKNS_5arrayIiLm3EEES4_EENS_4pairIT0_S6_EET_S8_, symObjAddr: 0x1A928, symBinAddr: 0x10001EB44, symSize: 0x60 }
  - { offsetInCU: 0x3F2DB, offset: 0x3F2DB, size: 0x8, addend: 0x0, symName: __ZNSt3__135__uninitialized_allocator_copy_implB8ue170006INS_9allocatorINS_5arrayIiLm3EEEEEKS3_S3_S3_LPv0EEEPT2_RT_PT0_SC_S8_, symObjAddr: 0x1A988, symBinAddr: 0x10001EBA4, symSize: 0x38 }
  - { offsetInCU: 0x3F35C, offset: 0x3F35C, size: 0x8, addend: 0x0, symName: __ZNSt3__113__unwrap_iterB8ue170006IPNS_5arrayIiLm3EEENS_18__unwrap_iter_implIS3_Lb1EEELi0EEEDTclsrT0_8__unwrapclsr3stdE7declvalIT_EEEES7_, symObjAddr: 0x1A9C0, symBinAddr: 0x10001EBDC, symSize: 0x24 }
  - { offsetInCU: 0x3F3A0, offset: 0x3F3A0, size: 0x8, addend: 0x0, symName: __ZNSt3__113__rewrap_iterB8ue170006IPNS_5arrayIiLm3EEES3_NS_18__unwrap_iter_implIS3_Lb1EEEEET_S6_T0_, symObjAddr: 0x1A9E4, symBinAddr: 0x10001EC00, symSize: 0x3C }
  - { offsetInCU: 0x3F3F5, offset: 0x3F3F5, size: 0x8, addend: 0x0, symName: __ZNSt3__19make_pairB8ue170006IPKNS_5arrayIiLm3EEES4_EENS_4pairINS_18__unwrap_ref_decayIT_E4typeENS6_IT0_E4typeEEEOS7_OSA_, symObjAddr: 0x1AA20, symBinAddr: 0x10001EC3C, symSize: 0x38 }
  - { offsetInCU: 0x3F444, offset: 0x3F444, size: 0x8, addend: 0x0, symName: __ZNSt3__113__unwrap_iterB8ue170006IPKNS_5arrayIiLm3EEENS_18__unwrap_iter_implIS4_Lb1EEELi0EEEDTclsrT0_8__unwrapclsr3stdE7declvalIT_EEEES8_, symObjAddr: 0x1AA58, symBinAddr: 0x10001EC74, symSize: 0x24 }
  - { offsetInCU: 0x3F5B0, offset: 0x3F5B0, size: 0x8, addend: 0x0, symName: __ZNSt3__112__to_addressB8ue170006IKNS_5arrayIiLm3EEEEEPT_S5_, symObjAddr: 0x1AB10, symBinAddr: 0x10001ED2C, symSize: 0x14 }
  - { offsetInCU: 0x3F5E5, offset: 0x3F5E5, size: 0x8, addend: 0x0, symName: __ZNSt3__14copyB8ue170006IPKNS_5arrayIiLm3EEEPS2_EET0_T_S7_S6_, symObjAddr: 0x1AB24, symBinAddr: 0x10001ED40, symSize: 0x40 }
  - { offsetInCU: 0x3F63F, offset: 0x3F63F, size: 0x8, addend: 0x0, symName: __ZNSt3__16__copyB8ue170006INS_17_ClassicAlgPolicyEPKNS_5arrayIiLm3EEES5_PS3_EENS_4pairIT0_T2_EES8_T1_S9_, symObjAddr: 0x1AB64, symBinAddr: 0x10001ED80, symSize: 0x44 }
  - { offsetInCU: 0x3F6AB, offset: 0x3F6AB, size: 0x8, addend: 0x0, symName: __ZNSt3__123__dispatch_copy_or_moveB8ue170006INS_17_ClassicAlgPolicyENS_11__copy_loopIS1_EENS_14__copy_trivialEPKNS_5arrayIiLm3EEES8_PS6_EENS_4pairIT2_T4_EESB_T3_SC_, symObjAddr: 0x1ABA8, symBinAddr: 0x10001EDC4, symSize: 0x44 }
  - { offsetInCU: 0x3F729, offset: 0x3F729, size: 0x8, addend: 0x0, symName: __ZNSt3__121__unwrap_and_dispatchB8ue170006INS_10__overloadINS_11__copy_loopINS_17_ClassicAlgPolicyEEENS_14__copy_trivialEEEPKNS_5arrayIiLm3EEESA_PS8_Li0EEENS_4pairIT0_T2_EESD_T1_SE_, symObjAddr: 0x1ABEC, symBinAddr: 0x10001EE08, symSize: 0xB4 }
  - { offsetInCU: 0x3F8BA, offset: 0x3F8BA, size: 0x8, addend: 0x0, symName: __ZNSt3__19make_pairB8ue170006IPKNS_5arrayIiLm3EEEPS2_EENS_4pairINS_18__unwrap_ref_decayIT_E4typeENS7_IT0_E4typeEEEOS8_OSB_, symObjAddr: 0x1ACE8, symBinAddr: 0x10001EF04, symSize: 0x38 }
  - { offsetInCU: 0x3F909, offset: 0x3F909, size: 0x8, addend: 0x0, symName: __ZNSt3__114__rewrap_rangeB8ue170006IPKNS_5arrayIiLm3EEES4_EET_S5_T0_, symObjAddr: 0x1AD20, symBinAddr: 0x10001EF3C, symSize: 0x2C }
  - { offsetInCU: 0x3F955, offset: 0x3F955, size: 0x8, addend: 0x0, symName: __ZNSt3__119__copy_trivial_implB8ue170006IKNS_5arrayIiLm3EEES2_EENS_4pairIPT_PT0_EES6_S6_S8_, symObjAddr: 0x1AD4C, symBinAddr: 0x10001EF68, symSize: 0x88 }
  - { offsetInCU: 0x3F9BD, offset: 0x3F9BD, size: 0x8, addend: 0x0, symName: __ZNSt3__119__constexpr_memmoveB8ue170006INS_5arrayIiLm3EEEKS2_Li0EEEPT_S5_PT0_NS_15__element_countE, symObjAddr: 0x1ADD4, symBinAddr: 0x10001EFF0, symSize: 0x68 }
  - { offsetInCU: 0x3FA2B, offset: 0x3FA2B, size: 0x8, addend: 0x0, symName: __ZNSt3__19make_pairB8ue170006IRPKNS_5arrayIiLm3EEEPS2_EENS_4pairINS_18__unwrap_ref_decayIT_E4typeENS8_IT0_E4typeEEEOS9_OSC_, symObjAddr: 0x1AE3C, symBinAddr: 0x10001F058, symSize: 0x38 }
  - { offsetInCU: 0x3FA7A, offset: 0x3FA7A, size: 0x8, addend: 0x0, symName: __ZNSt3__113__rewrap_iterB8ue170006IPKNS_5arrayIiLm3EEES4_NS_18__unwrap_iter_implIS4_Lb1EEEEET_S7_T0_, symObjAddr: 0x1AF54, symBinAddr: 0x10001F170, symSize: 0x3C }
  - { offsetInCU: 0x3FB22, offset: 0x3FB22, size: 0x8, addend: 0x0, symName: __ZNSt3__15equalB8ue170006IPKiS2_EEbT_S3_T0_, symObjAddr: 0x1B0AC, symBinAddr: 0x10001F2C8, symSize: 0x38 }
  - { offsetInCU: 0x3FB7C, offset: 0x3FB7C, size: 0x8, addend: 0x0, symName: __ZNSt3__15equalB8ue170006IPKiS2_NS_10__equal_toEEEbT_S4_T0_T1_, symObjAddr: 0x1B130, symBinAddr: 0x10001F34C, symSize: 0x5C }
  - { offsetInCU: 0x3FBED, offset: 0x3FBED, size: 0x8, addend: 0x0, symName: __ZNSt3__117__equal_iter_implB8ue170006IKiS1_NS_10__equal_toELi0EEEbPT_S4_PT0_RT1_, symObjAddr: 0x1B18C, symBinAddr: 0x10001F3A8, symSize: 0x4C }
  - { offsetInCU: 0x3FC61, offset: 0x3FC61, size: 0x8, addend: 0x0, symName: __ZNSt3__113__unwrap_iterB8ue170006IPKiNS_18__unwrap_iter_implIS2_Lb1EEELi0EEEDTclsrT0_8__unwrapclsr3stdE7declvalIT_EEEES6_, symObjAddr: 0x1B1D8, symBinAddr: 0x10001F3F4, symSize: 0x24 }
  - { offsetInCU: 0x3FCA5, offset: 0x3FCA5, size: 0x8, addend: 0x0, symName: __ZNSt3__124__constexpr_memcmp_equalB8ue170006IiiEEbPKT_PKT0_NS_15__element_countE, symObjAddr: 0x1B1FC, symBinAddr: 0x10001F418, symSize: 0x4C }
  - { offsetInCU: 0x3FD61, offset: 0x3FD61, size: 0x8, addend: 0x0, symName: __ZNSt3__112__to_addressB8ue170006IKiEEPT_S3_, symObjAddr: 0x1B26C, symBinAddr: 0x10001F488, symSize: 0x14 }
  - { offsetInCU: 0x3FD96, offset: 0x3FD96, size: 0x8, addend: 0x0, symName: __ZNSt3__113__rewrap_iterB8ue170006IPiS1_NS_18__unwrap_iter_implIS1_Lb1EEEEET_S4_T0_, symObjAddr: 0x1B724, symBinAddr: 0x10001F940, symSize: 0x3C }
  - { offsetInCU: 0x3FDEB, offset: 0x3FDEB, size: 0x8, addend: 0x0, symName: __ZNSt3__111__find_implB8ue170006IPiS1_iNS_10__identityEEET_S3_T0_RKT1_RT2_, symObjAddr: 0x1B760, symBinAddr: 0x10001F97C, symSize: 0x88 }
  - { offsetInCU: 0x3FE65, offset: 0x3FE65, size: 0x8, addend: 0x0, symName: __ZNSt3__113__unwrap_iterB8ue170006IPiNS_18__unwrap_iter_implIS1_Lb1EEELi0EEEDTclsrT0_8__unwrapclsr3stdE7declvalIT_EEEES5_, symObjAddr: 0x1B7E8, symBinAddr: 0x10001FA04, symSize: 0x24 }
  - { offsetInCU: 0x3FEFC, offset: 0x3FEFC, size: 0x8, addend: 0x0, symName: __ZNSt3__18__invokeB8ue170006IRNS_10__identityEJRiEEEDTclclsr3stdE7declvalIT_EEspclsr3stdE7declvalIT0_EEEEOS4_DpOS5_, symObjAddr: 0x1B85C, symBinAddr: 0x10001FA78, symSize: 0x2C }
  - { offsetInCU: 0x3FF9D, offset: 0x3FF9D, size: 0x8, addend: 0x0, symName: __ZNSt3__113__rewrap_iterB8ue170006INS_11__wrap_iterIPNS_5arrayIiLm2EEEEES4_NS_18__unwrap_iter_implIS5_Lb1EEEEET_S8_T0_, symObjAddr: 0x1BAB0, symBinAddr: 0x10001FCCC, symSize: 0x4C }
  - { offsetInCU: 0x3FFF2, offset: 0x3FFF2, size: 0x8, addend: 0x0, symName: __ZNSt3__111__find_implB8ue170006IPNS_5arrayIiLm2EEES3_S2_NS_10__identityEEET_S5_T0_RKT1_RT2_, symObjAddr: 0x1BAFC, symBinAddr: 0x10001FD18, symSize: 0x7C }
  - { offsetInCU: 0x4006C, offset: 0x4006C, size: 0x8, addend: 0x0, symName: __ZNSt3__113__unwrap_iterB8ue170006INS_11__wrap_iterIPNS_5arrayIiLm2EEEEENS_18__unwrap_iter_implIS5_Lb1EEELi0EEEDTclsrT0_8__unwrapclsr3stdE7declvalIT_EEEES9_, symObjAddr: 0x1BB78, symBinAddr: 0x10001FD94, symSize: 0x2C }
  - { offsetInCU: 0x40103, offset: 0x40103, size: 0x8, addend: 0x0, symName: __ZNSt3__112__to_addressB8ue170006INS_11__wrap_iterIPNS_5arrayIiLm2EEEEEvEEu7__decayIDTclsr19__to_address_helperIT_EE6__callclsr3stdE7declvalIRKS6_EEEEES8_, symObjAddr: 0x1BC00, symBinAddr: 0x10001FE1C, symSize: 0x24 }
  - { offsetInCU: 0x401DE, offset: 0x401DE, size: 0x8, addend: 0x0, symName: __ZNSt3__18__invokeB8ue170006IRNS_10__identityEJRNS_5arrayIiLm2EEEEEEDTclclsr3stdE7declvalIT_EEspclsr3stdE7declvalIT0_EEEEOS6_DpOS7_, symObjAddr: 0x1BC80, symBinAddr: 0x10001FE9C, symSize: 0x2C }
  - { offsetInCU: 0x4022F, offset: 0x4022F, size: 0x8, addend: 0x0, symName: __ZNSt3__113__rewrap_iterB8ue170006INS_11__wrap_iterIPiEES2_NS_18__unwrap_iter_implIS3_Lb1EEEEET_S6_T0_, symObjAddr: 0x1BD70, symBinAddr: 0x10001FF8C, symSize: 0x4C }
  - { offsetInCU: 0x40284, offset: 0x40284, size: 0x8, addend: 0x0, symName: __ZNSt3__113__unwrap_iterB8ue170006INS_11__wrap_iterIPiEENS_18__unwrap_iter_implIS3_Lb1EEELi0EEEDTclsrT0_8__unwrapclsr3stdE7declvalIT_EEEES7_, symObjAddr: 0x1BDBC, symBinAddr: 0x10001FFD8, symSize: 0x2C }
  - { offsetInCU: 0x4031B, offset: 0x4031B, size: 0x8, addend: 0x0, symName: __ZNSt3__112__to_addressB8ue170006INS_11__wrap_iterIPiEEvEEu7__decayIDTclsr19__to_address_helperIT_EE6__callclsr3stdE7declvalIRKS4_EEEEES6_, symObjAddr: 0x1BE80, symBinAddr: 0x10002009C, symSize: 0x24 }
  - { offsetInCU: 0x403F6, offset: 0x403F6, size: 0x8, addend: 0x0, symName: __ZNSt3__18distanceB8ue170006INS_11__wrap_iterIPNS_5arrayIiLm2EEEEEEENS_15iterator_traitsIT_E15difference_typeES7_S7_, symObjAddr: 0x1C3C8, symBinAddr: 0x1000205E4, symSize: 0x3C }
  - { offsetInCU: 0x40439, offset: 0x40439, size: 0x8, addend: 0x0, symName: __ZNSt3__1miB8ue170006IPKNS_5arrayIiLm2EEEPS2_EEDTmicldtfp_4baseEcldtfp0_4baseEERKNS_11__wrap_iterIT_EERKNS7_IT0_EE, symObjAddr: 0x1C404, symBinAddr: 0x100020620, symSize: 0x48 }
  - { offsetInCU: 0x40485, offset: 0x40485, size: 0x8, addend: 0x0, symName: __ZNSt3__14nextB8ue170006INS_11__wrap_iterIPNS_5arrayIiLm2EEEEEEENS_9enable_ifIXsr29__has_input_iterator_categoryIT_EE5valueES7_E4typeES7_NS_15iterator_traitsIS7_E15difference_typeE, symObjAddr: 0x1C44C, symBinAddr: 0x100020668, symSize: 0x3C }
  - { offsetInCU: 0x404C8, offset: 0x404C8, size: 0x8, addend: 0x0, symName: __ZNSt3__14copyB8ue170006INS_11__wrap_iterIPNS_5arrayIiLm2EEEEES4_EET0_T_S7_S6_, symObjAddr: 0x1C688, symBinAddr: 0x1000208A4, symSize: 0x50 }
  - { offsetInCU: 0x40522, offset: 0x40522, size: 0x8, addend: 0x0, symName: __ZNSt3__19__advanceB8ue170006INS_11__wrap_iterIPNS_5arrayIiLm2EEEEEEEvRT_NS_15iterator_traitsIS6_E15difference_typeENS_26random_access_iterator_tagE, symObjAddr: 0x1C8F4, symBinAddr: 0x100020B10, symSize: 0x2C }
  - { offsetInCU: 0x4056C, offset: 0x4056C, size: 0x8, addend: 0x0, symName: __ZNSt3__130__uninitialized_allocator_copyB8ue170006INS_9allocatorINS_5arrayIiLm2EEEEENS_11__wrap_iterIPS3_EES7_S6_EET2_RT_T0_T1_S8_, symObjAddr: 0x1C920, symBinAddr: 0x100020B3C, symSize: 0x90 }
  - { offsetInCU: 0x40609, offset: 0x40609, size: 0x8, addend: 0x0, symName: __ZNSt3__114__unwrap_rangeB8ue170006INS_11__wrap_iterIPNS_5arrayIiLm2EEEEES4_EENS_4pairIT0_S7_EET_S9_, symObjAddr: 0x1C9B0, symBinAddr: 0x100020BCC, symSize: 0x70 }
  - { offsetInCU: 0x40655, offset: 0x40655, size: 0x8, addend: 0x0, symName: __ZNSt3__113move_backwardB8ue170006IPNS_5arrayIiLm2EEES3_EET0_T_S5_S4_, symObjAddr: 0x1CA20, symBinAddr: 0x100020C3C, symSize: 0x40 }
  - { offsetInCU: 0x406AF, offset: 0x406AF, size: 0x8, addend: 0x0, symName: __ZNSt3__115__move_backwardB8ue170006INS_17_ClassicAlgPolicyEPNS_5arrayIiLm2EEES4_S4_EENS_4pairIT0_T2_EES6_T1_S7_, symObjAddr: 0x1CA60, symBinAddr: 0x100020C7C, symSize: 0x44 }
  - { offsetInCU: 0x4071B, offset: 0x4071B, size: 0x8, addend: 0x0, symName: __ZNSt3__123__dispatch_copy_or_moveB8ue170006INS_17_ClassicAlgPolicyENS_20__move_backward_loopIS1_EENS_23__move_backward_trivialEPNS_5arrayIiLm2EEES7_S7_EENS_4pairIT2_T4_EES9_T3_SA_, symObjAddr: 0x1CAA4, symBinAddr: 0x100020CC0, symSize: 0x44 }
  - { offsetInCU: 0x40799, offset: 0x40799, size: 0x8, addend: 0x0, symName: __ZNSt3__121__unwrap_and_dispatchB8ue170006INS_10__overloadINS_20__move_backward_loopINS_17_ClassicAlgPolicyEEENS_23__move_backward_trivialEEEPNS_5arrayIiLm2EEES9_S9_Li0EEENS_4pairIT0_T2_EESB_T1_SC_, symObjAddr: 0x1CAE8, symBinAddr: 0x100020D04, symSize: 0xB4 }
  - { offsetInCU: 0x4086D, offset: 0x4086D, size: 0x8, addend: 0x0, symName: __ZNSt3__128__copy_backward_trivial_implB8ue170006INS_5arrayIiLm2EEES2_EENS_4pairIPT_PT0_EES5_S5_S7_, symObjAddr: 0x1CBE4, symBinAddr: 0x100020E00, symSize: 0x90 }
  - { offsetInCU: 0x408D5, offset: 0x408D5, size: 0x8, addend: 0x0, symName: __ZNSt3__19make_pairB8ue170006IRPNS_5arrayIiLm2EEES4_EENS_4pairINS_18__unwrap_ref_decayIT_E4typeENS6_IT0_E4typeEEEOS7_OSA_, symObjAddr: 0x1CC74, symBinAddr: 0x100020E90, symSize: 0x38 }
  - { offsetInCU: 0x40924, offset: 0x40924, size: 0x8, addend: 0x0, symName: __ZNSt3__16__copyB8ue170006INS_17_ClassicAlgPolicyENS_11__wrap_iterIPNS_5arrayIiLm2EEEEES6_S5_EENS_4pairIT0_T2_EES8_T1_S9_, symObjAddr: 0x1CD1C, symBinAddr: 0x100020F38, symSize: 0x54 }
  - { offsetInCU: 0x40990, offset: 0x40990, size: 0x8, addend: 0x0, symName: __ZNSt3__123__dispatch_copy_or_moveB8ue170006INS_17_ClassicAlgPolicyENS_11__copy_loopIS1_EENS_14__copy_trivialENS_11__wrap_iterIPNS_5arrayIiLm2EEEEES9_S8_EENS_4pairIT2_T4_EESB_T3_SC_, symObjAddr: 0x1CD70, symBinAddr: 0x100020F8C, symSize: 0x54 }
  - { offsetInCU: 0x40A0E, offset: 0x40A0E, size: 0x8, addend: 0x0, symName: __ZNSt3__121__unwrap_and_dispatchB8ue170006INS_10__overloadINS_11__copy_loopINS_17_ClassicAlgPolicyEEENS_14__copy_trivialEEENS_11__wrap_iterIPNS_5arrayIiLm2EEEEESB_SA_Li0EEENS_4pairIT0_T2_EESD_T1_SE_, symObjAddr: 0x1CDC4, symBinAddr: 0x100020FE0, symSize: 0xCC }
  - { offsetInCU: 0x40A9C, offset: 0x40A9C, size: 0x8, addend: 0x0, symName: __ZNSt3__19make_pairB8ue170006INS_11__wrap_iterIPNS_5arrayIiLm2EEEEES4_EENS_4pairINS_18__unwrap_ref_decayIT_E4typeENS7_IT0_E4typeEEEOS8_OSB_, symObjAddr: 0x1CE90, symBinAddr: 0x1000210AC, symSize: 0x38 }
  - { offsetInCU: 0x40AEB, offset: 0x40AEB, size: 0x8, addend: 0x0, symName: __ZNSt3__114__rewrap_rangeB8ue170006INS_11__wrap_iterIPNS_5arrayIiLm2EEEEES4_EET_S6_T0_, symObjAddr: 0x1CEC8, symBinAddr: 0x1000210E4, symSize: 0x3C }
  - { offsetInCU: 0x40C0B, offset: 0x40C0B, size: 0x8, addend: 0x0, symName: __ZNSt3__142__uninitialized_allocator_move_if_noexceptB8ue170006INS_9allocatorINS_5arrayIiLm2EEEEEPS3_S5_S3_vEET1_RT_T0_S9_S6_, symObjAddr: 0x1CFD0, symBinAddr: 0x1000211EC, symSize: 0x38 }
  - { offsetInCU: 0x40C87, offset: 0x40C87, size: 0x8, addend: 0x0, symName: __ZNSt3__14moveB8ue170006IPNS_5arrayIiLm2EEES3_EET0_T_S5_S4_, symObjAddr: 0x1D008, symBinAddr: 0x100021224, symSize: 0x40 }
  - { offsetInCU: 0x40CE1, offset: 0x40CE1, size: 0x8, addend: 0x0, symName: __ZNSt3__16__moveB8ue170006INS_17_ClassicAlgPolicyEPNS_5arrayIiLm2EEES4_S4_EENS_4pairIT0_T2_EES6_T1_S7_, symObjAddr: 0x1D048, symBinAddr: 0x100021264, symSize: 0x44 }
  - { offsetInCU: 0x40D4D, offset: 0x40D4D, size: 0x8, addend: 0x0, symName: __ZNSt3__123__dispatch_copy_or_moveB8ue170006INS_17_ClassicAlgPolicyENS_11__move_loopIS1_EENS_14__move_trivialEPNS_5arrayIiLm2EEES7_S7_EENS_4pairIT2_T4_EES9_T3_SA_, symObjAddr: 0x1D08C, symBinAddr: 0x1000212A8, symSize: 0x44 }
  - { offsetInCU: 0x40DCB, offset: 0x40DCB, size: 0x8, addend: 0x0, symName: __ZNSt3__121__unwrap_and_dispatchB8ue170006INS_10__overloadINS_11__move_loopINS_17_ClassicAlgPolicyEEENS_14__move_trivialEEEPNS_5arrayIiLm2EEES9_S9_Li0EEENS_4pairIT0_T2_EESB_T1_SC_, symObjAddr: 0x1D0D0, symBinAddr: 0x1000212EC, symSize: 0xB4 }
  - { offsetInCU: 0x40E9F, offset: 0x40E9F, size: 0x8, addend: 0x0, symName: __ZNSt3__110__distanceB8ue170006INS_11__wrap_iterIPNS_5arrayIiLm2EEEEEEENS_15iterator_traitsIT_E15difference_typeES7_S7_NS_26random_access_iterator_tagE, symObjAddr: 0x1D1CC, symBinAddr: 0x1000213E8, symSize: 0x30 }
  - { offsetInCU: 0x40EED, offset: 0x40EED, size: 0x8, addend: 0x0, symName: __ZNSt3__1miB8ue170006IPNS_5arrayIiLm2EEES3_EEDTmicldtfp_4baseEcldtfp0_4baseEERKNS_11__wrap_iterIT_EERKNS5_IT0_EE, symObjAddr: 0x1D1FC, symBinAddr: 0x100021418, symSize: 0x48 }
  - { offsetInCU: 0x40F3A, offset: 0x40F3A, size: 0x8, addend: 0x0, symName: __ZNSt3__112__to_addressB8ue170006IZN8Geometry28calculate_bend_twist_springsEiE10SpringPairEEPT_S4_, symObjAddr: 0x1D70C, symBinAddr: 0x100021928, symSize: 0x14 }
  - { offsetInCU: 0x40F70, offset: 0x40F70, size: 0x8, addend: 0x0, symName: __ZNSt3__119__allocate_at_leastB8ue170006INS_9allocatorIZN8Geometry28calculate_bend_twist_springsEiE10SpringPairEEEENS_19__allocation_resultINS_16allocator_traitsIT_E7pointerEEERS7_m, symObjAddr: 0x1E170, symBinAddr: 0x10002238C, symSize: 0x40 }
  - { offsetInCU: 0x40FB4, offset: 0x40FB4, size: 0x8, addend: 0x0, symName: __ZNSt3__142__uninitialized_allocator_move_if_noexceptB8ue170006INS_9allocatorIZN8Geometry28calculate_bend_twist_springsEiE10SpringPairEENS_16reverse_iteratorIPS3_EES7_S7_EET2_RT_T0_T1_S8_, symObjAddr: 0x1E328, symBinAddr: 0x100022544, symSize: 0x12C }
  - { offsetInCU: 0x41055, offset: 0x41055, size: 0x8, addend: 0x0, symName: __ZNSt3__14swapB8ue170006IPZN8Geometry28calculate_bend_twist_springsEiE10SpringPairEENS_9enable_ifIXaasr21is_move_constructibleIT_EE5valuesr18is_move_assignableIS5_EE5valueEvE4typeERS5_S8_, symObjAddr: 0x1E4A0, symBinAddr: 0x1000226BC, symSize: 0x3C }
  - { offsetInCU: 0x410A7, offset: 0x410A7, size: 0x8, addend: 0x0, symName: __ZNSt3__122__make_exception_guardB8ue170006INS_29_AllocatorDestroyRangeReverseINS_9allocatorIZN8Geometry28calculate_bend_twist_springsEiE10SpringPairEENS_16reverse_iteratorIPS4_EEEEEENS_28__exception_guard_exceptionsIT_EESB_, symObjAddr: 0x1E5A4, symBinAddr: 0x1000227C0, symSize: 0x4C }
  - { offsetInCU: 0x410DE, offset: 0x410DE, size: 0x8, addend: 0x0, symName: __ZNSt3__1neB8ue170006IPZN8Geometry28calculate_bend_twist_springsEiE10SpringPairS3_EEbRKNS_16reverse_iteratorIT_EERKNS4_IT0_EE, symObjAddr: 0x1E634, symBinAddr: 0x100022850, symSize: 0x48 }
  - { offsetInCU: 0x4112B, offset: 0x4112B, size: 0x8, addend: 0x0, symName: __ZNSt3__112__to_addressB8ue170006INS_16reverse_iteratorIPZN8Geometry28calculate_bend_twist_springsEiE10SpringPairEEvEEu7__decayIDTclsr19__to_address_helperIT_EE6__callclsr3stdE7declvalIRKS6_EEEEES8_, symObjAddr: 0x1E67C, symBinAddr: 0x100022898, symSize: 0x24 }
  - { offsetInCU: 0x4118C, offset: 0x4118C, size: 0x8, addend: 0x0, symName: __ZNSt3__119__allocator_destroyB8ue170006INS_9allocatorIZN8Geometry28calculate_bend_twist_springsEiE10SpringPairEENS_16reverse_iteratorINS5_IPS3_EEEES8_EEvRT_T0_T1_, symObjAddr: 0x1E92C, symBinAddr: 0x100022B48, symSize: 0x70 }
  - { offsetInCU: 0x411F2, offset: 0x411F2, size: 0x8, addend: 0x0, symName: __ZNSt3__1neB8ue170006INS_16reverse_iteratorIPZN8Geometry28calculate_bend_twist_springsEiE10SpringPairEES5_EEbRKNS1_IT_EERKNS1_IT0_EE, symObjAddr: 0x1E9D8, symBinAddr: 0x100022BF4, symSize: 0x60 }
  - { offsetInCU: 0x4123F, offset: 0x4123F, size: 0x8, addend: 0x0, symName: __ZNSt3__112__to_addressB8ue170006INS_16reverse_iteratorINS1_IPZN8Geometry28calculate_bend_twist_springsEiE10SpringPairEEEEvEEu7__decayIDTclsr19__to_address_helperIT_EE6__callclsr3stdE7declvalIRKS7_EEEEES9_, symObjAddr: 0x1EA38, symBinAddr: 0x100022C54, symSize: 0x24 }
  - { offsetInCU: 0x4129F, offset: 0x4129F, size: 0x8, addend: 0x0, symName: __ZNSt3__119__allocate_at_leastB8ue170006INS_9allocatorINS_5arrayIiLm5EEEEEEENS_19__allocation_resultINS_16allocator_traitsIT_E7pointerEEERS7_m, symObjAddr: 0x1F58C, symBinAddr: 0x1000237A8, symSize: 0x40 }
  - { offsetInCU: 0x412E2, offset: 0x412E2, size: 0x8, addend: 0x0, symName: __ZNSt3__142__uninitialized_allocator_move_if_noexceptB8ue170006INS_9allocatorINS_5arrayIiLm5EEEEENS_16reverse_iteratorIPS3_EES7_S3_vEET1_RT_T0_SB_S8_, symObjAddr: 0x1F744, symBinAddr: 0x100023960, symSize: 0x78 }
  - { offsetInCU: 0x41360, offset: 0x41360, size: 0x8, addend: 0x0, symName: __ZNSt3__14swapB8ue170006IPNS_5arrayIiLm5EEEEENS_9enable_ifIXaasr21is_move_constructibleIT_EE5valuesr18is_move_assignableIS5_EE5valueEvE4typeERS5_S8_, symObjAddr: 0x1F808, symBinAddr: 0x100023A24, symSize: 0x3C }
  - { offsetInCU: 0x413B1, offset: 0x413B1, size: 0x8, addend: 0x0, symName: __ZNSt3__14moveB8ue170006INS_16reverse_iteratorIPNS_5arrayIiLm5EEEEES5_EET0_T_S7_S6_, symObjAddr: 0x1F90C, symBinAddr: 0x100023B28, symSize: 0x78 }
  - { offsetInCU: 0x4140B, offset: 0x4140B, size: 0x8, addend: 0x0, symName: __ZNSt3__16__moveB8ue170006INS_17_ClassicAlgPolicyENS_16reverse_iteratorIPNS_5arrayIiLm5EEEEES6_S6_EENS_4pairIT0_T2_EES8_T1_S9_, symObjAddr: 0x1F984, symBinAddr: 0x100023BA0, symSize: 0x64 }
  - { offsetInCU: 0x41477, offset: 0x41477, size: 0x8, addend: 0x0, symName: __ZNSt3__123__dispatch_copy_or_moveB8ue170006INS_17_ClassicAlgPolicyENS_11__move_loopIS1_EENS_14__move_trivialENS_16reverse_iteratorIPNS_5arrayIiLm5EEEEES9_S9_EENS_4pairIT2_T4_EESB_T3_SC_, symObjAddr: 0x1F9E8, symBinAddr: 0x100023C04, symSize: 0x64 }
  - { offsetInCU: 0x414F5, offset: 0x414F5, size: 0x8, addend: 0x0, symName: __ZNSt3__121__unwrap_and_dispatchB8ue170006INS_10__overloadINS_11__move_loopINS_17_ClassicAlgPolicyEEENS_14__move_trivialEEENS_16reverse_iteratorIPNS_5arrayIiLm5EEEEESB_SB_Li0EEENS_4pairIT0_T2_EESD_T1_SE_, symObjAddr: 0x1FA4C, symBinAddr: 0x100023C68, symSize: 0x12C }
  - { offsetInCU: 0x41585, offset: 0x41585, size: 0x8, addend: 0x0, symName: __ZNSt3__114__unwrap_rangeB8ue170006INS_16reverse_iteratorIPNS_5arrayIiLm5EEEEES5_EENS_4pairIT0_S7_EET_S9_, symObjAddr: 0x1FB78, symBinAddr: 0x100023D94, symSize: 0x84 }
  - { offsetInCU: 0x416A5, offset: 0x416A5, size: 0x8, addend: 0x0, symName: __ZNSt3__113__unwrap_iterB8ue170006INS_16reverse_iteratorIPNS_5arrayIiLm5EEEEENS_18__unwrap_iter_implIS5_Lb0EEELi0EEEDTclsrT0_8__unwrapclsr3stdE7declvalIT_EEEES9_, symObjAddr: 0x1FCA4, symBinAddr: 0x100023EC0, symSize: 0x44 }
  - { offsetInCU: 0x416E9, offset: 0x416E9, size: 0x8, addend: 0x0, symName: __ZNSt3__19make_pairB8ue170006INS_16reverse_iteratorIPNS_5arrayIiLm5EEEEES5_EENS_4pairINS_18__unwrap_ref_decayIT_E4typeENS7_IT0_E4typeEEEOS8_OSB_, symObjAddr: 0x1FCE8, symBinAddr: 0x100023F04, symSize: 0x38 }
  - { offsetInCU: 0x41738, offset: 0x41738, size: 0x8, addend: 0x0, symName: __ZNSt3__114__rewrap_rangeB8ue170006INS_16reverse_iteratorIPNS_5arrayIiLm5EEEEES5_EET_S6_T0_, symObjAddr: 0x1FD20, symBinAddr: 0x100023F3C, symSize: 0x5C }
  - { offsetInCU: 0x41784, offset: 0x41784, size: 0x8, addend: 0x0, symName: __ZNSt3__113__rewrap_iterB8ue170006INS_16reverse_iteratorIPNS_5arrayIiLm5EEEEES5_NS_18__unwrap_iter_implIS5_Lb0EEEEET_S8_T0_, symObjAddr: 0x1FD7C, symBinAddr: 0x100023F98, symSize: 0x74 }
  - { offsetInCU: 0x417D9, offset: 0x417D9, size: 0x8, addend: 0x0, symName: __ZNSt3__1neB8ue170006IPNS_5arrayIiLm5EEES3_EEbRKNS_16reverse_iteratorIT_EERKNS4_IT0_EE, symObjAddr: 0x1FDF0, symBinAddr: 0x10002400C, symSize: 0x48 }
  - { offsetInCU: 0x41891, offset: 0x41891, size: 0x8, addend: 0x0, symName: __ZNSt3__130__uninitialized_allocator_copyB8ue170006INS_9allocatorINS_5arrayIiLm2EEEEEPKS3_S6_PS3_EET2_RT_T0_T1_S8_, symObjAddr: 0x20400, symBinAddr: 0x10002461C, symSize: 0x80 }
  - { offsetInCU: 0x4192E, offset: 0x4192E, size: 0x8, addend: 0x0, symName: __ZNSt3__114__unwrap_rangeB8ue170006IPKNS_5arrayIiLm2EEES4_EENS_4pairIT0_S6_EET_S8_, symObjAddr: 0x20480, symBinAddr: 0x10002469C, symSize: 0x60 }
  - { offsetInCU: 0x4197A, offset: 0x4197A, size: 0x8, addend: 0x0, symName: __ZNSt3__135__uninitialized_allocator_copy_implB8ue170006INS_9allocatorINS_5arrayIiLm2EEEEEKS3_S3_S3_LPv0EEEPT2_RT_PT0_SC_S8_, symObjAddr: 0x204E0, symBinAddr: 0x1000246FC, symSize: 0x38 }
  - { offsetInCU: 0x419FB, offset: 0x419FB, size: 0x8, addend: 0x0, symName: __ZNSt3__19make_pairB8ue170006IPKNS_5arrayIiLm2EEES4_EENS_4pairINS_18__unwrap_ref_decayIT_E4typeENS6_IT0_E4typeEEEOS7_OSA_, symObjAddr: 0x20518, symBinAddr: 0x100024734, symSize: 0x38 }
  - { offsetInCU: 0x41A4A, offset: 0x41A4A, size: 0x8, addend: 0x0, symName: __ZNSt3__113__unwrap_iterB8ue170006IPKNS_5arrayIiLm2EEENS_18__unwrap_iter_implIS4_Lb1EEELi0EEEDTclsrT0_8__unwrapclsr3stdE7declvalIT_EEEES8_, symObjAddr: 0x20550, symBinAddr: 0x10002476C, symSize: 0x24 }
  - { offsetInCU: 0x41BB6, offset: 0x41BB6, size: 0x8, addend: 0x0, symName: __ZNSt3__112__to_addressB8ue170006IKNS_5arrayIiLm2EEEEEPT_S5_, symObjAddr: 0x20608, symBinAddr: 0x100024824, symSize: 0x14 }
  - { offsetInCU: 0x41BEB, offset: 0x41BEB, size: 0x8, addend: 0x0, symName: __ZNSt3__14copyB8ue170006IPKNS_5arrayIiLm2EEEPS2_EET0_T_S7_S6_, symObjAddr: 0x2061C, symBinAddr: 0x100024838, symSize: 0x40 }
  - { offsetInCU: 0x41C45, offset: 0x41C45, size: 0x8, addend: 0x0, symName: __ZNSt3__16__copyB8ue170006INS_17_ClassicAlgPolicyEPKNS_5arrayIiLm2EEES5_PS3_EENS_4pairIT0_T2_EES8_T1_S9_, symObjAddr: 0x2065C, symBinAddr: 0x100024878, symSize: 0x44 }
  - { offsetInCU: 0x41CB1, offset: 0x41CB1, size: 0x8, addend: 0x0, symName: __ZNSt3__123__dispatch_copy_or_moveB8ue170006INS_17_ClassicAlgPolicyENS_11__copy_loopIS1_EENS_14__copy_trivialEPKNS_5arrayIiLm2EEES8_PS6_EENS_4pairIT2_T4_EESB_T3_SC_, symObjAddr: 0x206A0, symBinAddr: 0x1000248BC, symSize: 0x44 }
  - { offsetInCU: 0x41D2F, offset: 0x41D2F, size: 0x8, addend: 0x0, symName: __ZNSt3__121__unwrap_and_dispatchB8ue170006INS_10__overloadINS_11__copy_loopINS_17_ClassicAlgPolicyEEENS_14__copy_trivialEEEPKNS_5arrayIiLm2EEESA_PS8_Li0EEENS_4pairIT0_T2_EESD_T1_SE_, symObjAddr: 0x206E4, symBinAddr: 0x100024900, symSize: 0xB4 }
  - { offsetInCU: 0x41EC0, offset: 0x41EC0, size: 0x8, addend: 0x0, symName: __ZNSt3__19make_pairB8ue170006IPKNS_5arrayIiLm2EEEPS2_EENS_4pairINS_18__unwrap_ref_decayIT_E4typeENS7_IT0_E4typeEEEOS8_OSB_, symObjAddr: 0x207E0, symBinAddr: 0x1000249FC, symSize: 0x38 }
  - { offsetInCU: 0x41F0F, offset: 0x41F0F, size: 0x8, addend: 0x0, symName: __ZNSt3__114__rewrap_rangeB8ue170006IPKNS_5arrayIiLm2EEES4_EET_S5_T0_, symObjAddr: 0x20818, symBinAddr: 0x100024A34, symSize: 0x2C }
  - { offsetInCU: 0x41F5B, offset: 0x41F5B, size: 0x8, addend: 0x0, symName: __ZNSt3__119__copy_trivial_implB8ue170006IKNS_5arrayIiLm2EEES2_EENS_4pairIPT_PT0_EES6_S6_S8_, symObjAddr: 0x20844, symBinAddr: 0x100024A60, symSize: 0x80 }
  - { offsetInCU: 0x41FC3, offset: 0x41FC3, size: 0x8, addend: 0x0, symName: __ZNSt3__119__constexpr_memmoveB8ue170006INS_5arrayIiLm2EEEKS2_Li0EEEPT_S5_PT0_NS_15__element_countE, symObjAddr: 0x208C4, symBinAddr: 0x100024AE0, symSize: 0x64 }
  - { offsetInCU: 0x42031, offset: 0x42031, size: 0x8, addend: 0x0, symName: __ZNSt3__19make_pairB8ue170006IRPKNS_5arrayIiLm2EEEPS2_EENS_4pairINS_18__unwrap_ref_decayIT_E4typeENS8_IT0_E4typeEEEOS9_OSC_, symObjAddr: 0x20928, symBinAddr: 0x100024B44, symSize: 0x38 }
  - { offsetInCU: 0x42080, offset: 0x42080, size: 0x8, addend: 0x0, symName: __ZNSt3__113__rewrap_iterB8ue170006IPKNS_5arrayIiLm2EEES4_NS_18__unwrap_iter_implIS4_Lb1EEEEET_S7_T0_, symObjAddr: 0x20A40, symBinAddr: 0x100024C5C, symSize: 0x3C }
  - { offsetInCU: 0x420D5, offset: 0x420D5, size: 0x8, addend: 0x0, symName: __ZNSt3__18distanceB8ue170006IPKcEENS_15iterator_traitsIT_E15difference_typeES4_S4_, symObjAddr: 0x20E4C, symBinAddr: 0x100025068, symSize: 0x2C }
  - { offsetInCU: 0x42119, offset: 0x42119, size: 0x8, addend: 0x0, symName: __ZNSt3__110__distanceB8ue170006IPKcEENS_15iterator_traitsIT_E15difference_typeES4_S4_NS_26random_access_iterator_tagE, symObjAddr: 0x21068, symBinAddr: 0x100025284, symSize: 0x20 }
  - { offsetInCU: 0x42167, offset: 0x42167, size: 0x8, addend: 0x0, symName: __ZNSt3__121__is_pointer_in_rangeB8ue170006IccLi0EEEbPKT_S3_PKT0_, symObjAddr: 0x21088, symBinAddr: 0x1000252A4, symSize: 0x68 }
  - { offsetInCU: 0x421C7, offset: 0x421C7, size: 0x8, addend: 0x0, symName: __ZNSt3__119__allocate_at_leastB8ue170006INS_9allocatorIcEEEENS_19__allocation_resultINS_16allocator_traitsIT_E7pointerEEERS5_m, symObjAddr: 0x21570, symBinAddr: 0x10002578C, symSize: 0x40 }
  - { offsetInCU: 0x4220A, offset: 0x4220A, size: 0x8, addend: 0x0, symName: __ZNSt3__14copyB8ue170006IPKcPcEET0_T_S5_S4_, symObjAddr: 0x21A88, symBinAddr: 0x100025CA4, symSize: 0x40 }
  - { offsetInCU: 0x42264, offset: 0x42264, size: 0x8, addend: 0x0, symName: __ZNSt3__16__copyB8ue170006INS_17_ClassicAlgPolicyEPKcS3_PcEENS_4pairIT0_T2_EES6_T1_S7_, symObjAddr: 0x21AC8, symBinAddr: 0x100025CE4, symSize: 0x44 }
  - { offsetInCU: 0x422D0, offset: 0x422D0, size: 0x8, addend: 0x0, symName: __ZNSt3__123__dispatch_copy_or_moveB8ue170006INS_17_ClassicAlgPolicyENS_11__copy_loopIS1_EENS_14__copy_trivialEPKcS6_PcEENS_4pairIT2_T4_EES9_T3_SA_, symObjAddr: 0x21B0C, symBinAddr: 0x100025D28, symSize: 0x44 }
  - { offsetInCU: 0x4234E, offset: 0x4234E, size: 0x8, addend: 0x0, symName: __ZNSt3__121__unwrap_and_dispatchB8ue170006INS_10__overloadINS_11__copy_loopINS_17_ClassicAlgPolicyEEENS_14__copy_trivialEEEPKcS8_PcLi0EEENS_4pairIT0_T2_EESB_T1_SC_, symObjAddr: 0x21B50, symBinAddr: 0x100025D6C, symSize: 0xB4 }
  - { offsetInCU: 0x423DC, offset: 0x423DC, size: 0x8, addend: 0x0, symName: __ZNSt3__114__unwrap_rangeB8ue170006IPKcS2_EENS_4pairIT0_S4_EET_S6_, symObjAddr: 0x21C04, symBinAddr: 0x100025E20, symSize: 0x60 }
  - { offsetInCU: 0x4252B, offset: 0x4252B, size: 0x8, addend: 0x0, symName: __ZNSt3__113__unwrap_iterB8ue170006IPcNS_18__unwrap_iter_implIS1_Lb1EEELi0EEEDTclsrT0_8__unwrapclsr3stdE7declvalIT_EEEES5_, symObjAddr: 0x21CAC, symBinAddr: 0x100025EC8, symSize: 0x24 }
  - { offsetInCU: 0x4256F, offset: 0x4256F, size: 0x8, addend: 0x0, symName: __ZNSt3__19make_pairB8ue170006IPKcPcEENS_4pairINS_18__unwrap_ref_decayIT_E4typeENS5_IT0_E4typeEEEOS6_OS9_, symObjAddr: 0x21CD0, symBinAddr: 0x100025EEC, symSize: 0x38 }
  - { offsetInCU: 0x425BE, offset: 0x425BE, size: 0x8, addend: 0x0, symName: __ZNSt3__114__rewrap_rangeB8ue170006IPKcS2_EET_S3_T0_, symObjAddr: 0x21D08, symBinAddr: 0x100025F24, symSize: 0x2C }
  - { offsetInCU: 0x4260A, offset: 0x4260A, size: 0x8, addend: 0x0, symName: __ZNSt3__113__rewrap_iterB8ue170006IPcS1_NS_18__unwrap_iter_implIS1_Lb1EEEEET_S4_T0_, symObjAddr: 0x21D34, symBinAddr: 0x100025F50, symSize: 0x3C }
  - { offsetInCU: 0x4265F, offset: 0x4265F, size: 0x8, addend: 0x0, symName: __ZNSt3__19make_pairB8ue170006IPKcS2_EENS_4pairINS_18__unwrap_ref_decayIT_E4typeENS4_IT0_E4typeEEEOS5_OS8_, symObjAddr: 0x21D70, symBinAddr: 0x100025F8C, symSize: 0x38 }
  - { offsetInCU: 0x426AE, offset: 0x426AE, size: 0x8, addend: 0x0, symName: __ZNSt3__113__unwrap_iterB8ue170006IPKcNS_18__unwrap_iter_implIS2_Lb1EEELi0EEEDTclsrT0_8__unwrapclsr3stdE7declvalIT_EEEES6_, symObjAddr: 0x21DA8, symBinAddr: 0x100025FC4, symSize: 0x24 }
  - { offsetInCU: 0x42819, offset: 0x42819, size: 0x8, addend: 0x0, symName: __ZNSt3__119__copy_trivial_implB8ue170006IKccEENS_4pairIPT_PT0_EES4_S4_S6_, symObjAddr: 0x21E60, symBinAddr: 0x10002607C, symSize: 0x78 }
  - { offsetInCU: 0x42881, offset: 0x42881, size: 0x8, addend: 0x0, symName: __ZNSt3__119__constexpr_memmoveB8ue170006IcKcLi0EEEPT_S3_PT0_NS_15__element_countE, symObjAddr: 0x21ED8, symBinAddr: 0x1000260F4, symSize: 0x64 }
  - { offsetInCU: 0x428EF, offset: 0x428EF, size: 0x8, addend: 0x0, symName: __ZNSt3__19make_pairB8ue170006IRPKcPcEENS_4pairINS_18__unwrap_ref_decayIT_E4typeENS6_IT0_E4typeEEEOS7_OSA_, symObjAddr: 0x21F3C, symBinAddr: 0x100026158, symSize: 0x38 }
  - { offsetInCU: 0x42991, offset: 0x42991, size: 0x8, addend: 0x0, symName: __ZNSt3__113__rewrap_iterB8ue170006IPKcS2_NS_18__unwrap_iter_implIS2_Lb1EEEEET_S5_T0_, symObjAddr: 0x22078, symBinAddr: 0x100026294, symSize: 0x3C }
  - { offsetInCU: 0x429E6, offset: 0x429E6, size: 0x8, addend: 0x0, symName: __ZNSt3__16fill_nB8ue170006IPcmcEET_S2_T0_RKT1_, symObjAddr: 0x22144, symBinAddr: 0x100026360, symSize: 0x44 }
  - { offsetInCU: 0x42A4A, offset: 0x42A4A, size: 0x8, addend: 0x0, symName: __ZNSt3__18__fill_nB8ue170006IPcmcEET_S2_T0_RKT1_, symObjAddr: 0x22188, symBinAddr: 0x1000263A4, symSize: 0x64 }
  - { offsetInCU: 0x42AAE, offset: 0x42AAE, size: 0x8, addend: 0x0, symName: __ZNSt3__121__convert_to_integralB8ue170006Em, symObjAddr: 0x221EC, symBinAddr: 0x100026408, symSize: 0x14 }
  - { offsetInCU: 0x42ADB, offset: 0x42ADB, size: 0x8, addend: 0x0, symName: __ZNSt3__116__constrain_hashB8ue170006Emm, symObjAddr: 0x22F38, symBinAddr: 0x100027154, symSize: 0x98 }
  - { offsetInCU: 0x42B16, offset: 0x42B16, size: 0x8, addend: 0x0, symName: __ZNSt3__116__is_hash_power2B8ue170006Em, symObjAddr: 0x2326C, symBinAddr: 0x100027488, symSize: 0x50 }
  - { offsetInCU: 0x42B42, offset: 0x42B42, size: 0x8, addend: 0x0, symName: __ZNSt3__116__do_string_hashB8ue170006IPKcEEmT_S3_, symObjAddr: 0x234E8, symBinAddr: 0x100027704, symSize: 0x3C }
  - { offsetInCU: 0x42B89, offset: 0x42B89, size: 0x8, addend: 0x0, symName: __ZNSt3__110__loadwordB8ue170006ImEET_PKv, symObjAddr: 0x23EDC, symBinAddr: 0x1000280F8, symSize: 0x20 }
  - { offsetInCU: 0x42BCD, offset: 0x42BCD, size: 0x8, addend: 0x0, symName: __ZNSt3__14swapB8ue170006ImEENS_9enable_ifIXaasr21is_move_constructibleIT_EE5valuesr18is_move_assignableIS2_EE5valueEvE4typeERS2_S5_, symObjAddr: 0x24098, symBinAddr: 0x1000282B4, symSize: 0x3C }
  - { offsetInCU: 0x42C1F, offset: 0x42C1F, size: 0x8, addend: 0x0, symName: __ZNSt3__110__loadwordB8ue170006IjEET_PKv, symObjAddr: 0x24128, symBinAddr: 0x100028344, symSize: 0x20 }
  - { offsetInCU: 0x42C62, offset: 0x42C62, size: 0x8, addend: 0x0, symName: __ZNSt3__1eqB8ue170006INS_9allocatorIcEEEEbRKNS_12basic_stringIcNS_11char_traitsIcEET_EES9_, symObjAddr: 0x24418, symBinAddr: 0x100028634, symSize: 0x148 }
  - { offsetInCU: 0x42CD6, offset: 0x42CD6, size: 0x8, addend: 0x0, symName: __ZNSt3__17launderB8ue170006IKNS_4pairIKNS_12basic_stringIcNS_11char_traitsIcEENS_9allocatorIcEEEEZN8Geometry8from_txtERS8_E6HeaderEEEEPT_SF_, symObjAddr: 0x24594, symBinAddr: 0x1000287B0, symSize: 0x24 }
  - { offsetInCU: 0x42D0E, offset: 0x42D0E, size: 0x8, addend: 0x0, symName: __ZNSt3__19__launderB8ue170006IKNS_4pairIKNS_12basic_stringIcNS_11char_traitsIcEENS_9allocatorIcEEEEZN8Geometry8from_txtERS8_E6HeaderEEEEPT_SF_, symObjAddr: 0x245B8, symBinAddr: 0x1000287D4, symSize: 0x14 }
  - { offsetInCU: 0x42D98, offset: 0x42D98, size: 0x8, addend: 0x0, symName: __ZNSt3__17launderB8ue170006INS_4pairIKNS_12basic_stringIcNS_11char_traitsIcEENS_9allocatorIcEEEEZN8Geometry8from_txtERS8_E6HeaderEEEEPT_SE_, symObjAddr: 0x24A18, symBinAddr: 0x100028C34, symSize: 0x24 }
  - { offsetInCU: 0x42DD0, offset: 0x42DD0, size: 0x8, addend: 0x0, symName: __ZNSt3__19__launderB8ue170006INS_4pairIKNS_12basic_stringIcNS_11char_traitsIcEENS_9allocatorIcEEEEZN8Geometry8from_txtERS8_E6HeaderEEEEPT_SE_, symObjAddr: 0x24A3C, symBinAddr: 0x100028C58, symSize: 0x14 }
  - { offsetInCU: 0x42E07, offset: 0x42E07, size: 0x8, addend: 0x0, symName: __ZNSt3__116__next_hash_pow2B8ue170006Em, symObjAddr: 0x24F2C, symBinAddr: 0x100029148, symSize: 0x6C }
  - { offsetInCU: 0x42E34, offset: 0x42E34, size: 0x8, addend: 0x0, symName: __ZNSt3__112__libcpp_clzB8ue170006Em, symObjAddr: 0x252D4, symBinAddr: 0x1000294F0, symSize: 0x1C }
  - { offsetInCU: 0x42E61, offset: 0x42E61, size: 0x8, addend: 0x0, symName: __ZNSt3__112__to_addressB8ue170006INS_6vectorIdNS_9allocatorIdEEEEEEPT_S6_, symObjAddr: 0x25C54, symBinAddr: 0x100029E70, symSize: 0x14 }
  - { offsetInCU: 0x42E96, offset: 0x42E96, size: 0x8, addend: 0x0, symName: __ZNSt3__123__str_find_first_not_ofB8ue170006IcmNS_11char_traitsIcEELm18446744073709551615EEET0_PKT_S3_S6_S3_S3_, symObjAddr: 0x25E94, symBinAddr: 0x10002A0B0, symSize: 0xDC }
  - { offsetInCU: 0x42F68, offset: 0x42F68, size: 0x8, addend: 0x0, symName: __ZNSt3__118__constexpr_memchrB8ue170006IKccEEPT_S3_T0_m, symObjAddr: 0x25FE0, symBinAddr: 0x10002A1FC, symSize: 0x40 }
  - { offsetInCU: 0x42FDE, offset: 0x42FDE, size: 0x8, addend: 0x0, symName: __ZNSt3__122__str_find_last_not_ofB8ue170006IcmNS_11char_traitsIcEELm18446744073709551615EEET0_PKT_S3_S6_S3_S3_, symObjAddr: 0x26020, symBinAddr: 0x10002A23C, symSize: 0xDC }
  - { offsetInCU: 0x43093, offset: 0x43093, size: 0x8, addend: 0x0, symName: __ZNSt3__1neB8ue170006IPcEEbRKNS_11__wrap_iterIT_EES6_, symObjAddr: 0x26180, symBinAddr: 0x10002A39C, symSize: 0x34 }
  - { offsetInCU: 0x430D6, offset: 0x430D6, size: 0x8, addend: 0x0, symName: __ZNSt3__1eqB8ue170006IPcEEbRKNS_11__wrap_iterIT_EES6_, symObjAddr: 0x261EC, symBinAddr: 0x10002A408, symSize: 0x48 }
  - { offsetInCU: 0x4311A, offset: 0x4311A, size: 0x8, addend: 0x0, symName: __ZNSt3__1eqB8ue170006ERKNS_21__hash_const_iteratorIPNS_11__hash_nodeINS_17__hash_value_typeINS_12basic_stringIcNS_11char_traitsIcEENS_9allocatorIcEEEEZN8Geometry8from_txtERKS8_E6HeaderEEPvEEEESJ_, symObjAddr: 0x26598, symBinAddr: 0x10002A7B4, symSize: 0x30 }
  - { offsetInCU: 0x431BF, offset: 0x431BF, size: 0x8, addend: 0x0, symName: __ZNSt3__122__make_exception_guardB8ue170006INS_6vectorIdNS_9allocatorIdEEE16__destroy_vectorEEENS_28__exception_guard_exceptionsIT_EES7_, symObjAddr: 0x27120, symBinAddr: 0x10002B33C, symSize: 0x40 }
  - { offsetInCU: 0x431F4, offset: 0x431F4, size: 0x8, addend: 0x0, symName: __ZNSt3__130__uninitialized_allocator_copyB8ue170006INS_9allocatorIdEEPdS3_S3_EET2_RT_T0_T1_S4_, symObjAddr: 0x27338, symBinAddr: 0x10002B554, symSize: 0x80 }
  - { offsetInCU: 0x43291, offset: 0x43291, size: 0x8, addend: 0x0, symName: __ZNSt3__114__unwrap_rangeB8ue170006IPdS1_EENS_4pairIT0_S3_EET_S5_, symObjAddr: 0x273B8, symBinAddr: 0x10002B5D4, symSize: 0x60 }
  - { offsetInCU: 0x432DD, offset: 0x432DD, size: 0x8, addend: 0x0, symName: __ZNSt3__135__uninitialized_allocator_copy_implB8ue170006INS_9allocatorIdEEdddLPv0EEEPT2_RT_PT0_S9_S5_, symObjAddr: 0x27418, symBinAddr: 0x10002B634, symSize: 0x38 }
  - { offsetInCU: 0x4335E, offset: 0x4335E, size: 0x8, addend: 0x0, symName: __ZNSt3__113__unwrap_iterB8ue170006IPdNS_18__unwrap_iter_implIS1_Lb1EEELi0EEEDTclsrT0_8__unwrapclsr3stdE7declvalIT_EEEES5_, symObjAddr: 0x27450, symBinAddr: 0x10002B66C, symSize: 0x24 }
  - { offsetInCU: 0x433A2, offset: 0x433A2, size: 0x8, addend: 0x0, symName: __ZNSt3__113__rewrap_iterB8ue170006IPdS1_NS_18__unwrap_iter_implIS1_Lb1EEEEET_S4_T0_, symObjAddr: 0x27474, symBinAddr: 0x10002B690, symSize: 0x3C }
  - { offsetInCU: 0x433F7, offset: 0x433F7, size: 0x8, addend: 0x0, symName: __ZNSt3__19make_pairB8ue170006IPdS1_EENS_4pairINS_18__unwrap_ref_decayIT_E4typeENS3_IT0_E4typeEEEOS4_OS7_, symObjAddr: 0x274B0, symBinAddr: 0x10002B6CC, symSize: 0x38 }
  - { offsetInCU: 0x43549, offset: 0x43549, size: 0x8, addend: 0x0, symName: __ZNSt3__14copyB8ue170006IPdS1_EET0_T_S3_S2_, symObjAddr: 0x27558, symBinAddr: 0x10002B774, symSize: 0x40 }
  - { offsetInCU: 0x435A3, offset: 0x435A3, size: 0x8, addend: 0x0, symName: __ZNSt3__16__copyB8ue170006INS_17_ClassicAlgPolicyEPdS2_S2_EENS_4pairIT0_T2_EES4_T1_S5_, symObjAddr: 0x27598, symBinAddr: 0x10002B7B4, symSize: 0x44 }
  - { offsetInCU: 0x4360F, offset: 0x4360F, size: 0x8, addend: 0x0, symName: __ZNSt3__123__dispatch_copy_or_moveB8ue170006INS_17_ClassicAlgPolicyENS_11__copy_loopIS1_EENS_14__copy_trivialEPdS5_S5_EENS_4pairIT2_T4_EES7_T3_S8_, symObjAddr: 0x275DC, symBinAddr: 0x10002B7F8, symSize: 0x44 }
  - { offsetInCU: 0x4368D, offset: 0x4368D, size: 0x8, addend: 0x0, symName: __ZNSt3__121__unwrap_and_dispatchB8ue170006INS_10__overloadINS_11__copy_loopINS_17_ClassicAlgPolicyEEENS_14__copy_trivialEEEPdS7_S7_Li0EEENS_4pairIT0_T2_EES9_T1_SA_, symObjAddr: 0x27620, symBinAddr: 0x10002B83C, symSize: 0xB4 }
  - { offsetInCU: 0x4371B, offset: 0x4371B, size: 0x8, addend: 0x0, symName: __ZNSt3__114__rewrap_rangeB8ue170006IPdS1_EET_S2_T0_, symObjAddr: 0x2771C, symBinAddr: 0x10002B938, symSize: 0x2C }
  - { offsetInCU: 0x43767, offset: 0x43767, size: 0x8, addend: 0x0, symName: __ZNSt3__119__copy_trivial_implB8ue170006IddEENS_4pairIPT_PT0_EES3_S3_S5_, symObjAddr: 0x27748, symBinAddr: 0x10002B964, symSize: 0x80 }
  - { offsetInCU: 0x437CF, offset: 0x437CF, size: 0x8, addend: 0x0, symName: __ZNSt3__119__constexpr_memmoveB8ue170006IddLi0EEEPT_S2_PT0_NS_15__element_countE, symObjAddr: 0x277C8, symBinAddr: 0x10002B9E4, symSize: 0x64 }
  - { offsetInCU: 0x4383D, offset: 0x4383D, size: 0x8, addend: 0x0, symName: __ZNSt3__19make_pairB8ue170006IRPdS1_EENS_4pairINS_18__unwrap_ref_decayIT_E4typeENS4_IT0_E4typeEEEOS5_OS8_, symObjAddr: 0x2782C, symBinAddr: 0x10002BA48, symSize: 0x38 }
  - { offsetInCU: 0x438DF, offset: 0x438DF, size: 0x8, addend: 0x0, symName: __ZNSt3__119__allocate_at_leastB8ue170006INS_9allocatorINS_6vectorIdNS1_IdEEEEEEEENS_19__allocation_resultINS_16allocator_traitsIT_E7pointerEEERS8_m, symObjAddr: 0x27E18, symBinAddr: 0x10002C034, symSize: 0x40 }
  - { offsetInCU: 0x43922, offset: 0x43922, size: 0x8, addend: 0x0, symName: __ZNSt3__142__uninitialized_allocator_move_if_noexceptB8ue170006INS_9allocatorINS_6vectorIdNS1_IdEEEEEENS_16reverse_iteratorIPS4_EES8_S8_EET2_RT_T0_T1_S9_, symObjAddr: 0x27FD0, symBinAddr: 0x10002C1EC, symSize: 0x12C }
  - { offsetInCU: 0x439C3, offset: 0x439C3, size: 0x8, addend: 0x0, symName: __ZNSt3__14swapB8ue170006IPNS_6vectorIdNS_9allocatorIdEEEEEENS_9enable_ifIXaasr21is_move_constructibleIT_EE5valuesr18is_move_assignableIS7_EE5valueEvE4typeERS7_SA_, symObjAddr: 0x28148, symBinAddr: 0x10002C364, symSize: 0x3C }
  - { offsetInCU: 0x43A14, offset: 0x43A14, size: 0x8, addend: 0x0, symName: __ZNSt3__122__make_exception_guardB8ue170006INS_29_AllocatorDestroyRangeReverseINS_9allocatorINS_6vectorIdNS2_IdEEEEEENS_16reverse_iteratorIPS5_EEEEEENS_28__exception_guard_exceptionsIT_EESC_, symObjAddr: 0x2824C, symBinAddr: 0x10002C468, symSize: 0x4C }
  - { offsetInCU: 0x43A4A, offset: 0x43A4A, size: 0x8, addend: 0x0, symName: __ZNSt3__1neB8ue170006IPNS_6vectorIdNS_9allocatorIdEEEES5_EEbRKNS_16reverse_iteratorIT_EERKNS6_IT0_EE, symObjAddr: 0x282DC, symBinAddr: 0x10002C4F8, symSize: 0x48 }
  - { offsetInCU: 0x43A96, offset: 0x43A96, size: 0x8, addend: 0x0, symName: __ZNSt3__112__to_addressB8ue170006INS_16reverse_iteratorIPNS_6vectorIdNS_9allocatorIdEEEEEEvEEu7__decayIDTclsr19__to_address_helperIT_EE6__callclsr3stdE7declvalIRKS8_EEEEESA_, symObjAddr: 0x28358, symBinAddr: 0x10002C574, symSize: 0x24 }
  - { offsetInCU: 0x43AF5, offset: 0x43AF5, size: 0x8, addend: 0x0, symName: __ZNSt3__119__allocator_destroyB8ue170006INS_9allocatorINS_6vectorIdNS1_IdEEEEEENS_16reverse_iteratorINS6_IPS4_EEEES9_EEvRT_T0_T1_, symObjAddr: 0x28730, symBinAddr: 0x10002C94C, symSize: 0x70 }
  - { offsetInCU: 0x43B5A, offset: 0x43B5A, size: 0x8, addend: 0x0, symName: __ZNSt3__1neB8ue170006INS_16reverse_iteratorIPNS_6vectorIdNS_9allocatorIdEEEEEES7_EEbRKNS1_IT_EERKNS1_IT0_EE, symObjAddr: 0x287DC, symBinAddr: 0x10002C9F8, symSize: 0x60 }
  - { offsetInCU: 0x43BA6, offset: 0x43BA6, size: 0x8, addend: 0x0, symName: __ZNSt3__112__to_addressB8ue170006INS_16reverse_iteratorINS1_IPNS_6vectorIdNS_9allocatorIdEEEEEEEEvEEu7__decayIDTclsr19__to_address_helperIT_EE6__callclsr3stdE7declvalIRKS9_EEEEESB_, symObjAddr: 0x2883C, symBinAddr: 0x10002CA58, symSize: 0x24 }
  - { offsetInCU: 0x43C56, offset: 0x43C56, size: 0x8, addend: 0x0, symName: __ZNSt3__1neB8ue170006ERKNS_21__hash_const_iteratorIPNS_11__hash_nodeIiPvEEEES7_, symObjAddr: 0x2B40C, symBinAddr: 0x10002F628, symSize: 0x34 }
  - { offsetInCU: 0x43C93, offset: 0x43C93, size: 0x8, addend: 0x0, symName: __ZNSt3__1eqB8ue170006ERKNS_21__hash_const_iteratorIPNS_11__hash_nodeIiPvEEEES7_, symObjAddr: 0x2B628, symBinAddr: 0x10002F844, symSize: 0x30 }
  - { offsetInCU: 0x4492E, offset: 0x4492E, size: 0x8, addend: 0x0, symName: __ZSt28__throw_bad_array_new_lengthB8ue170006v, symObjAddr: 0x898C, symBinAddr: 0x10000CBA8, symSize: 0x34 }
  - { offsetInCU: 0x46976, offset: 0x46976, size: 0x8, addend: 0x0, symName: __ZN8Geometry8from_txtERKNSt3__112basic_stringIcNS0_11char_traitsIcEENS0_9allocatorIcEEEE, symObjAddr: 0xB78, symBinAddr: 0x100004D94, symSize: 0xEA0 }
  - { offsetInCU: 0x47188, offset: 0x47188, size: 0x8, addend: 0x0, symName: __ZN5Eigen8internal18redux_vec_unrollerINS0_13scalar_sum_opIddEENS0_15redux_evaluatorINS_12CwiseUnaryOpINS0_14scalar_abs2_opIdEEKNS_6MatrixIdLi3ELi1ELi0ELi3ELi1EEEEEEELi0ELi1EE3runI19__simd128_float64_tEET_RKSC_RKS3_, symObjAddr: 0x16D4C, symBinAddr: 0x10001AF68, symSize: 0x30 }
  - { offsetInCU: 0x47816, offset: 0x47816, size: 0x8, addend: 0x0, symName: __ZNSt3__16vectorINS_5arrayIiLm2EEENS_9allocatorIS2_EEE26__swap_out_circular_bufferERNS_14__split_bufferIS2_RS4_EE, symObjAddr: 0xCFF8, symBinAddr: 0x100011214, symSize: 0x110 }
  - { offsetInCU: 0x4786D, offset: 0x4786D, size: 0x8, addend: 0x0, symName: __ZNSt3__16vectorIiNS_9allocatorIiEEE26__swap_out_circular_bufferERNS_14__split_bufferIiRS2_EE, symObjAddr: 0xE200, symBinAddr: 0x10001241C, symSize: 0x110 }
  - { offsetInCU: 0x478B0, offset: 0x478B0, size: 0x8, addend: 0x0, symName: __ZNSt3__16vectorINS_5arrayIiLm3EEENS_9allocatorIS2_EEE26__swap_out_circular_bufferERNS_14__split_bufferIS2_RS4_EE, symObjAddr: 0xF818, symBinAddr: 0x100013A34, symSize: 0x110 }
  - { offsetInCU: 0x47907, offset: 0x47907, size: 0x8, addend: 0x0, symName: __ZNSt3__16vectorIdNS_9allocatorIdEEE26__swap_out_circular_bufferERNS_14__split_bufferIdRS2_EE, symObjAddr: 0x10E9C, symBinAddr: 0x1000150B8, symSize: 0x110 }
  - { offsetInCU: 0x4795E, offset: 0x4795E, size: 0x8, addend: 0x0, symName: __ZNSt3__16vectorIN5Eigen6MatrixIdLi3ELi1ELi0ELi3ELi1EEENS_9allocatorIS3_EEE26__swap_out_circular_bufferERNS_14__split_bufferIS3_RS5_EE, symObjAddr: 0x128B0, symBinAddr: 0x100016ACC, symSize: 0x110 }
  - { offsetInCU: 0x479F7, offset: 0x479F7, size: 0x8, addend: 0x0, symName: __ZNSt3__16vectorINS_5arrayIiLm4EEENS_9allocatorIS2_EEE26__swap_out_circular_bufferERNS_14__split_bufferIS2_RS4_EE, symObjAddr: 0x14938, symBinAddr: 0x100018B54, symSize: 0x110 }
  - { offsetInCU: 0x47CD4, offset: 0x47CD4, size: 0x8, addend: 0x0, symName: __ZNSt3__16vectorINS_5arrayIiLm2EEENS_9allocatorIS2_EEE26__swap_out_circular_bufferERNS_14__split_bufferIS2_RS4_EEPS2_, symObjAddr: 0x1C7A8, symBinAddr: 0x1000209C4, symSize: 0x14C }
  - { offsetInCU: 0x47D35, offset: 0x47D35, size: 0x8, addend: 0x0, symName: __ZN8Geometry28calculate_bend_twist_springsEi, symObjAddr: 0x4B04, symBinAddr: 0x100008D20, symSize: 0x704 }
  - { offsetInCU: 0x48135, offset: 0x48135, size: 0x8, addend: 0x0, symName: __ZNSt3__16vectorIZN8Geometry28calculate_bend_twist_springsEiE10SpringPairNS_9allocatorIS2_EEE26__swap_out_circular_bufferERNS_14__split_bufferIS2_RS4_EE, symObjAddr: 0x1DE00, symBinAddr: 0x10002201C, symSize: 0x110 }
  - { offsetInCU: 0x481C9, offset: 0x481C9, size: 0x8, addend: 0x0, symName: __ZNSt3__16vectorINS_5arrayIiLm5EEENS_9allocatorIS2_EEE26__swap_out_circular_bufferERNS_14__split_bufferIS2_RS4_EE, symObjAddr: 0x1F21C, symBinAddr: 0x100023438, symSize: 0x110 }
  - { offsetInCU: 0x486F6, offset: 0x486F6, size: 0x8, addend: 0x0, symName: __ZNSt3__16vectorINS0_IdNS_9allocatorIdEEEENS1_IS3_EEE26__swap_out_circular_bufferERNS_14__split_bufferIS3_RS4_EE, symObjAddr: 0x27AA8, symBinAddr: 0x10002BCC4, symSize: 0x110 }
  - { offsetInCU: 0x493D7, offset: 0x493D7, size: 0x8, addend: 0x0, symName: __Z7toloweri, symObjAddr: 0x6344, symBinAddr: 0x10000A560, symSize: 0x24 }
  - { offsetInCU: 0x4AED2, offset: 0x4AED2, size: 0x8, addend: 0x0, symName: __ZN5Eigen8symbolic10SymbolExprINS_8internal17symbolic_last_tagEEC1Ev, symObjAddr: 0x0, symBinAddr: 0x10000421C, symSize: 0x2C }
  - { offsetInCU: 0x4AEFC, offset: 0x4AEFC, size: 0x8, addend: 0x0, symName: __ZNK5Eigen8symbolic8BaseExprINS0_10SymbolExprINS_8internal17symbolic_last_tagEEEEplILi1EEENS0_7AddExprIS5_NS0_9ValueExprINS3_8FixedIntIXT_EEEEEEESB_, symObjAddr: 0x2C, symBinAddr: 0x100004248, symSize: 0x48 }
  - { offsetInCU: 0x4AF37, offset: 0x4AF37, size: 0x8, addend: 0x0, symName: __ZNK5Eigen8internal8FixedIntILi1EEclEv, symObjAddr: 0x74, symBinAddr: 0x100004290, symSize: 0x10 }
  - { offsetInCU: 0x4AF5D, offset: 0x4AF5D, size: 0x8, addend: 0x0, symName: __ZN5Eigen8internal5all_tC1Ev, symObjAddr: 0x84, symBinAddr: 0x1000042A0, symSize: 0x2C }
  - { offsetInCU: 0x4AF87, offset: 0x4AF87, size: 0x8, addend: 0x0, symName: __ZN8GeometryC2ERKNSt3__112basic_stringIcNS0_11char_traitsIcEENS0_9allocatorIcEEEE, symObjAddr: 0xB0, symBinAddr: 0x1000042CC, symSize: 0x87C }
  - { offsetInCU: 0x4AFEE, offset: 0x4AFEE, size: 0x8, addend: 0x0, symName: __ZNSt3__16vectorIN5Eigen6MatrixIdLi3ELi1ELi0ELi3ELi1EEENS_9allocatorIS3_EEEC1B8ue170006Ev, symObjAddr: 0x92C, symBinAddr: 0x100004B48, symSize: 0x2C }
  - { offsetInCU: 0x4B018, offset: 0x4B018, size: 0x8, addend: 0x0, symName: __ZNSt3__16vectorINS_5arrayIiLm2EEENS_9allocatorIS2_EEEC1B8ue170006Ev, symObjAddr: 0x958, symBinAddr: 0x100004B74, symSize: 0x2C }
  - { offsetInCU: 0x4B042, offset: 0x4B042, size: 0x8, addend: 0x0, symName: __ZNSt3__16vectorINS_5arrayIiLm3EEENS_9allocatorIS2_EEEC1B8ue170006Ev, symObjAddr: 0x984, symBinAddr: 0x100004BA0, symSize: 0x2C }
  - { offsetInCU: 0x4B06C, offset: 0x4B06C, size: 0x8, addend: 0x0, symName: __ZNSt3__16vectorINS_5arrayIiLm5EEENS_9allocatorIS2_EEEC1B8ue170006Ev, symObjAddr: 0x9B0, symBinAddr: 0x100004BCC, symSize: 0x2C }
  - { offsetInCU: 0x4B096, offset: 0x4B096, size: 0x8, addend: 0x0, symName: __ZNSt3__16vectorINS_5arrayIiLm4EEENS_9allocatorIS2_EEEC1B8ue170006Ev, symObjAddr: 0x9DC, symBinAddr: 0x100004BF8, symSize: 0x2C }
  - { offsetInCU: 0x4B0C0, offset: 0x4B0C0, size: 0x8, addend: 0x0, symName: __ZNSt3__16vectorIdNS_9allocatorIdEEEC1B8ue170006Ev, symObjAddr: 0xA08, symBinAddr: 0x100004C24, symSize: 0x2C }
  - { offsetInCU: 0x4B0EA, offset: 0x4B0EA, size: 0x8, addend: 0x0, symName: __ZNSt3__16vectorIiNS_9allocatorIiEEEC1B8ue170006Ev, symObjAddr: 0xA34, symBinAddr: 0x100004C50, symSize: 0x2C }
  - { offsetInCU: 0x4B114, offset: 0x4B114, size: 0x8, addend: 0x0, symName: __ZNSt3__113basic_ostreamIcNS_11char_traitsIcEEElsB8ue170006EPFRS3_S4_E, symObjAddr: 0xAF4, symBinAddr: 0x100004D10, symSize: 0x2C }
  - { offsetInCU: 0x4B148, offset: 0x4B148, size: 0x8, addend: 0x0, symName: __ZN8Geometry20separate_joint_edgesERKNSt3__16vectorINS0_5arrayIiLm3EEENS0_9allocatorIS3_EEEERKNS1_INS2_IiLm2EEENS4_IS9_EEEE, symObjAddr: 0x1A18, symBinAddr: 0x100005C34, symSize: 0x488 }
  - { offsetInCU: 0x4B2D3, offset: 0x4B2D3, size: 0x8, addend: 0x0, symName: __ZNSt3__16vectorINS_5arrayIiLm2EEENS_9allocatorIS2_EEEaSB8ue170006ERKS5_, symObjAddr: 0x1EE8, symBinAddr: 0x100006104, symSize: 0x68 }
  - { offsetInCU: 0x4B30A, offset: 0x4B30A, size: 0x8, addend: 0x0, symName: __ZNKSt3__16vectorINS_5arrayIiLm2EEENS_9allocatorIS2_EEE4sizeB8ue170006Ev, symObjAddr: 0x1F50, symBinAddr: 0x10000616C, symSize: 0x28 }
  - { offsetInCU: 0x4B330, offset: 0x4B330, size: 0x8, addend: 0x0, symName: __ZNKSt3__16vectorIN5Eigen6MatrixIdLi3ELi1ELi0ELi3ELi1EEENS_9allocatorIS3_EEE4sizeB8ue170006Ev, symObjAddr: 0x1F78, symBinAddr: 0x100006194, symSize: 0x28 }
  - { offsetInCU: 0x4B356, offset: 0x4B356, size: 0x8, addend: 0x0, symName: __ZNKSt3__16vectorINS_5arrayIiLm3EEENS_9allocatorIS2_EEE4sizeB8ue170006Ev, symObjAddr: 0x1FA0, symBinAddr: 0x1000061BC, symSize: 0x28 }
  - { offsetInCU: 0x4B37C, offset: 0x4B37C, size: 0x8, addend: 0x0, symName: __ZNSt3__16vectorINS_5arrayIiLm2EEENS_9allocatorIS2_EEE6resizeEmRKS2_, symObjAddr: 0x1FC8, symBinAddr: 0x1000061E4, symSize: 0x9C }
  - { offsetInCU: 0x4B3D1, offset: 0x4B3D1, size: 0x8, addend: 0x0, symName: __ZNSt3__16vectorIiNS_9allocatorIiEEE6resizeEmRKi, symObjAddr: 0x2064, symBinAddr: 0x100006280, symSize: 0x9C }
  - { offsetInCU: 0x4B426, offset: 0x4B426, size: 0x8, addend: 0x0, symName: __ZNSt3__16vectorINS_5arrayIiLm3EEENS_9allocatorIS2_EEE6resizeEmRKS2_, symObjAddr: 0x2100, symBinAddr: 0x10000631C, symSize: 0xA4 }
  - { offsetInCU: 0x4B47B, offset: 0x4B47B, size: 0x8, addend: 0x0, symName: __ZNSt3__16vectorIdNS_9allocatorIdEEE6resizeEmRKd, symObjAddr: 0x21A4, symBinAddr: 0x1000063C0, symSize: 0x9C }
  - { offsetInCU: 0x4B4D0, offset: 0x4B4D0, size: 0x8, addend: 0x0, symName: __ZNSt3__16vectorIN5Eigen6MatrixIdLi3ELi1ELi0ELi3ELi1EEENS_9allocatorIS3_EEE6resizeEmRKS3_, symObjAddr: 0x2240, symBinAddr: 0x10000645C, symSize: 0xA4 }
  - { offsetInCU: 0x4B525, offset: 0x4B525, size: 0x8, addend: 0x0, symName: __ZN5Eigen9DenseBaseINS_6MatrixIdLi3ELi1ELi0ELi3ELi1EEEE4ZeroEv, symObjAddr: 0x22E4, symBinAddr: 0x100006500, symSize: 0x30 }
  - { offsetInCU: 0x4B541, offset: 0x4B541, size: 0x8, addend: 0x0, symName: __ZN5Eigen6MatrixIdLi3ELi1ELi0ELi3ELi1EEC1INS_14CwiseNullaryOpINS_8internal18scalar_constant_opIdEES1_EEEERKNS_9EigenBaseIT_EE, symObjAddr: 0x2314, symBinAddr: 0x100006530, symSize: 0x34 }
  - { offsetInCU: 0x4B583, offset: 0x4B583, size: 0x8, addend: 0x0, symName: __ZNSt3__16vectorINS_5arrayIiLm4EEENS_9allocatorIS2_EEE6resizeEm, symObjAddr: 0x2348, symBinAddr: 0x100006564, symSize: 0x94 }
  - { offsetInCU: 0x4B5C9, offset: 0x4B5C9, size: 0x8, addend: 0x0, symName: __ZNKSt3__16vectorIiNS_9allocatorIiEEE4sizeB8ue170006Ev, symObjAddr: 0x23DC, symBinAddr: 0x1000065F8, symSize: 0x28 }
  - { offsetInCU: 0x4B5EF, offset: 0x4B5EF, size: 0x8, addend: 0x0, symName: __ZNKSt3__16vectorIdNS_9allocatorIdEEE4sizeB8ue170006Ev, symObjAddr: 0x2404, symBinAddr: 0x100006620, symSize: 0x28 }
  - { offsetInCU: 0x4B615, offset: 0x4B615, size: 0x8, addend: 0x0, symName: __ZN8Geometry31calculate_shell_and_hinge_edgesEi, symObjAddr: 0x242C, symBinAddr: 0x100006648, symSize: 0x9DC }
  - { offsetInCU: 0x4B7B4, offset: 0x4B7B4, size: 0x8, addend: 0x0, symName: __ZN8Geometry18trim_unused_valuesEv, symObjAddr: 0x2E08, symBinAddr: 0x100007024, symSize: 0x40 }
  - { offsetInCU: 0x4B7DC, offset: 0x4B7DC, size: 0x8, addend: 0x0, symName: __ZN8Geometry21calculate_ghost_edgesEii, symObjAddr: 0x2E48, symBinAddr: 0x100007064, symSize: 0x888 }
  - { offsetInCU: 0x4B924, offset: 0x4B924, size: 0x8, addend: 0x0, symName: __ZN8Geometry14sequence_edgesEiRNSt3__16vectorINS0_5arrayIiLm3EEENS0_9allocatorIS3_EEEE, symObjAddr: 0x36D0, symBinAddr: 0x1000078EC, symSize: 0x27C }
  - { offsetInCU: 0x4BA65, offset: 0x4BA65, size: 0x8, addend: 0x0, symName: __ZN8Geometry22create_stretch_springsEv, symObjAddr: 0x394C, symBinAddr: 0x100007B68, symSize: 0xFC }
  - { offsetInCU: 0x4BA8E, offset: 0x4BA8E, size: 0x8, addend: 0x0, symName: __ZN8Geometry20calculate_face_edgesERNSt3__16vectorINS0_5arrayIiLm3EEENS0_9allocatorIS3_EEEE, symObjAddr: 0x3A48, symBinAddr: 0x100007C64, symSize: 0x28C }
  - { offsetInCU: 0x4BB48, offset: 0x4BB48, size: 0x8, addend: 0x0, symName: __ZN8Geometry22calculate_twist_anglesEv, symObjAddr: 0x3CD4, symBinAddr: 0x100007EF0, symSize: 0x10 }
  - { offsetInCU: 0x4BB71, offset: 0x4BB71, size: 0x8, addend: 0x0, symName: __ZNSt3__14pairINS_6vectorINS_5arrayIiLm2EEENS_9allocatorIS3_EEEES6_ED1Ev, symObjAddr: 0x3CE4, symBinAddr: 0x100007F00, symSize: 0x2C }
  - { offsetInCU: 0x4BB9D, offset: 0x4BB9D, size: 0x8, addend: 0x0, symName: __ZNSt3__16vectorINS_5arrayIiLm2EEENS_9allocatorIS2_EEED1B8ue170006Ev, symObjAddr: 0x3D10, symBinAddr: 0x100007F2C, symSize: 0x2C }
  - { offsetInCU: 0x4BBC7, offset: 0x4BBC7, size: 0x8, addend: 0x0, symName: __ZNSt3__16vectorIiNS_9allocatorIiEEED1B8ue170006Ev, symObjAddr: 0x3D3C, symBinAddr: 0x100007F58, symSize: 0x2C }
  - { offsetInCU: 0x4BBF1, offset: 0x4BBF1, size: 0x8, addend: 0x0, symName: __ZNSt3__16vectorIdNS_9allocatorIdEEED1B8ue170006Ev, symObjAddr: 0x3D68, symBinAddr: 0x100007F84, symSize: 0x2C }
  - { offsetInCU: 0x4BC1B, offset: 0x4BC1B, size: 0x8, addend: 0x0, symName: __ZNSt3__16vectorIN5Eigen6MatrixIdLi3ELi1ELi0ELi3ELi1EEENS_9allocatorIS3_EEED1B8ue170006Ev, symObjAddr: 0x3D94, symBinAddr: 0x100007FB0, symSize: 0x2C }
  - { offsetInCU: 0x4BC45, offset: 0x4BC45, size: 0x8, addend: 0x0, symName: __ZNSt3__16vectorINS_5arrayIiLm3EEENS_9allocatorIS2_EEED1B8ue170006Ev, symObjAddr: 0x3DC0, symBinAddr: 0x100007FDC, symSize: 0x2C }
  - { offsetInCU: 0x4BC6F, offset: 0x4BC6F, size: 0x8, addend: 0x0, symName: __ZNSt3__16vectorINS_5arrayIiLm4EEENS_9allocatorIS2_EEED1B8ue170006Ev, symObjAddr: 0x3DEC, symBinAddr: 0x100008008, symSize: 0x2C }
  - { offsetInCU: 0x4BC99, offset: 0x4BC99, size: 0x8, addend: 0x0, symName: __ZNSt3__16vectorINS_5arrayIiLm5EEENS_9allocatorIS2_EEED1B8ue170006Ev, symObjAddr: 0x3E18, symBinAddr: 0x100008034, symSize: 0x2C }
  - { offsetInCU: 0x4BCC3, offset: 0x4BCC3, size: 0x8, addend: 0x0, symName: __ZN8GeometryC1ERKNSt3__112basic_stringIcNS0_11char_traitsIcEENS0_9allocatorIcEEEE, symObjAddr: 0x3E44, symBinAddr: 0x100008060, symSize: 0x34 }
  - { offsetInCU: 0x4BCFC, offset: 0x4BCFC, size: 0x8, addend: 0x0, symName: __ZNSt3__16vectorINS_5arrayIiLm3EEENS_9allocatorIS2_EEEixB8ue170006Em, symObjAddr: 0x3E78, symBinAddr: 0x100008094, symSize: 0x2C }
  - { offsetInCU: 0x4BD33, offset: 0x4BD33, size: 0x8, addend: 0x0, symName: __ZNSt3__15arrayIiLm3EEixB8ue170006Em, symObjAddr: 0x3EA4, symBinAddr: 0x1000080C0, symSize: 0x20 }
  - { offsetInCU: 0x4BD67, offset: 0x4BD67, size: 0x8, addend: 0x0, symName: __ZNSt3__16vectorIN5Eigen6MatrixIdLi3ELi1ELi0ELi3ELi1EEENS_9allocatorIS3_EEEixB8ue170006Em, symObjAddr: 0x3EC4, symBinAddr: 0x1000080E0, symSize: 0x2C }
  - { offsetInCU: 0x4BD9E, offset: 0x4BD9E, size: 0x8, addend: 0x0, symName: __ZN5Eigen6MatrixIdLi3ELi1ELi0ELi3ELi1EEC1ERKS1_, symObjAddr: 0x3EF0, symBinAddr: 0x10000810C, symSize: 0x34 }
  - { offsetInCU: 0x4BDD7, offset: 0x4BDD7, size: 0x8, addend: 0x0, symName: __ZNK5Eigen10MatrixBaseINS_6MatrixIdLi3ELi1ELi0ELi3ELi1EEEEmiIS2_EEKNS_13CwiseBinaryOpINS_8internal20scalar_difference_opIdNS6_6traitsIT_E6ScalarEEEKS2_KS9_EERKNS0_IS9_EE, symObjAddr: 0x3F24, symBinAddr: 0x100008140, symSize: 0x60 }
  - { offsetInCU: 0x4BE14, offset: 0x4BE14, size: 0x8, addend: 0x0, symName: __ZNK5Eigen10MatrixBaseINS_13CwiseBinaryOpINS_8internal20scalar_difference_opIddEEKNS_6MatrixIdLi3ELi1ELi0ELi3ELi1EEES7_EEE5crossIS8_EENS9_25cross_product_return_typeIT_E4typeERKNS0_ISC_EE, symObjAddr: 0x3F84, symBinAddr: 0x1000081A0, symSize: 0x1BC }
  - { offsetInCU: 0x4BEA0, offset: 0x4BEA0, size: 0x8, addend: 0x0, symName: __ZNK5Eigen10MatrixBaseINS_6MatrixIdLi3ELi1ELi0ELi3ELi1EEEE4normEv, symObjAddr: 0x4140, symBinAddr: 0x10000835C, symSize: 0x44 }
  - { offsetInCU: 0x4BF0F, offset: 0x4BF0F, size: 0x8, addend: 0x0, symName: __ZNSt3__16vectorIdNS_9allocatorIdEEEixB8ue170006Em, symObjAddr: 0x4184, symBinAddr: 0x1000083A0, symSize: 0x24 }
  - { offsetInCU: 0x4BF46, offset: 0x4BF46, size: 0x8, addend: 0x0, symName: __ZNK5Eigen10MatrixBaseINS_6MatrixIdLi3ELi1ELi0ELi3ELi1EEEEdvIdEEKNS_13CwiseBinaryOpINS_8internal18scalar_quotient_opIdNS6_18promote_scalar_argIdT_Xsr5Eigen8internal14has_ReturnTypeINS_20ScalarBinaryOpTraitsIdS9_NS7_IdS9_EEEEEE5valueEE4typeEEEKS2_KNS6_19plain_constant_typeIS2_SE_E4typeEEERKS9_, symObjAddr: 0x41A8, symBinAddr: 0x1000083C4, symSize: 0xA8 }
  - { offsetInCU: 0x4BF83, offset: 0x4BF83, size: 0x8, addend: 0x0, symName: __ZN5Eigen6MatrixIdLi3ELi1ELi0ELi3ELi1EEaSINS_13CwiseBinaryOpINS_8internal18scalar_quotient_opIddEEKS1_KNS_14CwiseNullaryOpINS4_18scalar_constant_opIdEES7_EEEEEERS1_RKNS_9DenseBaseIT_EE, symObjAddr: 0x4250, symBinAddr: 0x10000846C, symSize: 0x2C }
  - { offsetInCU: 0x4BFC0, offset: 0x4BFC0, size: 0x8, addend: 0x0, symName: __ZN5Eigen9DenseBaseINS_6MatrixIdLi3ELi1ELi0ELi3ELi1EEEE9transposeEv, symObjAddr: 0x4484, symBinAddr: 0x1000086A0, symSize: 0x34 }
  - { offsetInCU: 0x4BFE8, offset: 0x4BFE8, size: 0x8, addend: 0x0, symName: __ZNSt3__16vectorINS_5arrayIiLm3EEENS_9allocatorIS2_EEEC1B8ue170006ESt16initializer_listIS2_E, symObjAddr: 0x44B8, symBinAddr: 0x1000086D4, symSize: 0x3C }
  - { offsetInCU: 0x4C023, offset: 0x4C023, size: 0x8, addend: 0x0, symName: __ZNSt3__15arrayIiLm2EEixB8ue170006Em, symObjAddr: 0x44F4, symBinAddr: 0x100008710, symSize: 0x20 }
  - { offsetInCU: 0x4C057, offset: 0x4C057, size: 0x8, addend: 0x0, symName: __ZNSt3__16vectorINS_5arrayIiLm2EEENS_9allocatorIS2_EEEixB8ue170006Em, symObjAddr: 0x4568, symBinAddr: 0x100008784, symSize: 0x24 }
  - { offsetInCU: 0x4C08E, offset: 0x4C08E, size: 0x8, addend: 0x0, symName: __ZNSt3__16vectorIiNS_9allocatorIiEEEixB8ue170006Em, symObjAddr: 0x458C, symBinAddr: 0x1000087A8, symSize: 0x24 }
  - { offsetInCU: 0x4C0C5, offset: 0x4C0C5, size: 0x8, addend: 0x0, symName: __ZNSt3__16vectorINS_5arrayIiLm4EEENS_9allocatorIS2_EEEixB8ue170006Em, symObjAddr: 0x45B0, symBinAddr: 0x1000087CC, symSize: 0x24 }
  - { offsetInCU: 0x4C0FC, offset: 0x4C0FC, size: 0x8, addend: 0x0, symName: __ZNSt3__16vectorINS_5arrayIiLm2EEENS_9allocatorIS2_EEE6resizeEm, symObjAddr: 0x45D4, symBinAddr: 0x1000087F0, symSize: 0x94 }
  - { offsetInCU: 0x4C142, offset: 0x4C142, size: 0x8, addend: 0x0, symName: __ZNSt3__16vectorINS_5arrayIiLm2EEENS_9allocatorIS2_EEE9push_backB8ue170006EOS2_, symObjAddr: 0x4668, symBinAddr: 0x100008884, symSize: 0x6C }
  - { offsetInCU: 0x4C179, offset: 0x4C179, size: 0x8, addend: 0x0, symName: __ZNSt3__15arrayIiLm3EE5beginB8ue170006Ev, symObjAddr: 0x4734, symBinAddr: 0x100008950, symSize: 0x24 }
  - { offsetInCU: 0x4C19F, offset: 0x4C19F, size: 0x8, addend: 0x0, symName: __ZNSt3__15arrayIiLm3EE3endB8ue170006Ev, symObjAddr: 0x4758, symBinAddr: 0x100008974, symSize: 0x28 }
  - { offsetInCU: 0x4C1C5, offset: 0x4C1C5, size: 0x8, addend: 0x0, symName: __ZNSt3__16vectorIiNS_9allocatorIiEEE9push_backB8ue170006ERKi, symObjAddr: 0x4780, symBinAddr: 0x10000899C, symSize: 0x6C }
  - { offsetInCU: 0x4C1FC, offset: 0x4C1FC, size: 0x8, addend: 0x0, symName: __ZNSt3__16vectorINS_5arrayIiLm2EEENS_9allocatorIS2_EEE5beginB8ue170006Ev, symObjAddr: 0x48AC, symBinAddr: 0x100008AC8, symSize: 0x30 }
  - { offsetInCU: 0x4C224, offset: 0x4C224, size: 0x8, addend: 0x0, symName: __ZNSt3__16vectorINS_5arrayIiLm2EEENS_9allocatorIS2_EEE3endB8ue170006Ev, symObjAddr: 0x48DC, symBinAddr: 0x100008AF8, symSize: 0x30 }
  - { offsetInCU: 0x4C24C, offset: 0x4C24C, size: 0x8, addend: 0x0, symName: __ZNSt3__16vectorIiNS_9allocatorIiEEE5beginB8ue170006Ev, symObjAddr: 0x49CC, symBinAddr: 0x100008BE8, symSize: 0x30 }
  - { offsetInCU: 0x4C274, offset: 0x4C274, size: 0x8, addend: 0x0, symName: __ZNSt3__16vectorIiNS_9allocatorIiEEE3endB8ue170006Ev, symObjAddr: 0x49FC, symBinAddr: 0x100008C18, symSize: 0x30 }
  - { offsetInCU: 0x4C29C, offset: 0x4C29C, size: 0x8, addend: 0x0, symName: __ZNKSt3__111__wrap_iterIPiEdeB8ue170006Ev, symObjAddr: 0x4A60, symBinAddr: 0x100008C7C, symSize: 0x18 }
  - { offsetInCU: 0x4C2C2, offset: 0x4C2C2, size: 0x8, addend: 0x0, symName: __ZNSt3__16vectorINS_5arrayIiLm2EEENS_9allocatorIS2_EEE9push_backB8ue170006ERKS2_, symObjAddr: 0x4A78, symBinAddr: 0x100008C94, symSize: 0x6C }
  - { offsetInCU: 0x4C2F9, offset: 0x4C2F9, size: 0x8, addend: 0x0, symName: __ZNSt3__111__wrap_iterIPiEppB8ue170006Ev, symObjAddr: 0x4AE4, symBinAddr: 0x100008D00, symSize: 0x20 }
  - { offsetInCU: 0x4C31F, offset: 0x4C31F, size: 0x8, addend: 0x0, symName: __ZNSt3__16vectorINS_5arrayIiLm2EEENS_9allocatorIS2_EEEC1ERKS5_, symObjAddr: 0x5208, symBinAddr: 0x100009424, symSize: 0x34 }
  - { offsetInCU: 0x4C35A, offset: 0x4C35A, size: 0x8, addend: 0x0, symName: __ZNSt3__16vectorINS_5arrayIiLm2EEENS_9allocatorIS2_EEE6insertINS_11__wrap_iterIPS2_EELi0EEES9_NS7_IPKS2_EET_SD_, symObjAddr: 0x523C, symBinAddr: 0x100009458, symSize: 0x84 }
  - { offsetInCU: 0x4C3C8, offset: 0x4C3C8, size: 0x8, addend: 0x0, symName: __ZNSt3__111__wrap_iterIPKNS_5arrayIiLm2EEEEC1B8ue170006IPS2_EERKNS0_IT_EEPNS_9enable_ifIXsr14is_convertibleIS8_S4_EE5valueEvE4typeE, symObjAddr: 0x52C0, symBinAddr: 0x1000094DC, symSize: 0x3C }
  - { offsetInCU: 0x4C414, offset: 0x4C414, size: 0x8, addend: 0x0, symName: __ZNKSt3__111__wrap_iterIPNS_5arrayIiLm2EEEEplB8ue170006El, symObjAddr: 0x52FC, symBinAddr: 0x100009518, symSize: 0x3C }
  - { offsetInCU: 0x4C456, offset: 0x4C456, size: 0x8, addend: 0x0, symName: __ZNSt3__16vectorIZN8Geometry28calculate_bend_twist_springsEiE10SpringPairNS_9allocatorIS2_EEEC1B8ue170006Ev, symObjAddr: 0x5338, symBinAddr: 0x100009554, symSize: 0x2C }
  - { offsetInCU: 0x4C480, offset: 0x4C480, size: 0x8, addend: 0x0, symName: __ZN8Geometry16get_combinationsERKNSt3__16vectorIiNS0_9allocatorIiEEEE, symObjAddr: 0x5364, symBinAddr: 0x100009580, symSize: 0x160 }
  - { offsetInCU: 0x4C4FA, offset: 0x4C4FA, size: 0x8, addend: 0x0, symName: __ZNSt3__16vectorIZN8Geometry28calculate_bend_twist_springsEiE10SpringPairNS_9allocatorIS2_EEE9push_backB8ue170006EOS2_, symObjAddr: 0x54C4, symBinAddr: 0x1000096E0, symSize: 0x6C }
  - { offsetInCU: 0x4C536, offset: 0x4C536, size: 0x8, addend: 0x0, symName: __ZZN8Geometry28calculate_bend_twist_springsEiEN10SpringPairD1Ev, symObjAddr: 0x5530, symBinAddr: 0x10000974C, symSize: 0x2C }
  - { offsetInCU: 0x4C562, offset: 0x4C562, size: 0x8, addend: 0x0, symName: __ZNKSt3__16vectorIiNS_9allocatorIiEEE5emptyB8ue170006Ev, symObjAddr: 0x555C, symBinAddr: 0x100009778, symSize: 0x28 }
  - { offsetInCU: 0x4C588, offset: 0x4C588, size: 0x8, addend: 0x0, symName: __ZN8Geometry27get_combinations_outof_intoERKNSt3__16vectorIiNS0_9allocatorIiEEEES6_, symObjAddr: 0x5584, symBinAddr: 0x1000097A0, symSize: 0x16C }
  - { offsetInCU: 0x4C675, offset: 0x4C675, size: 0x8, addend: 0x0, symName: __ZNSt3__16vectorIZN8Geometry28calculate_bend_twist_springsEiE10SpringPairNS_9allocatorIS2_EEE5beginB8ue170006Ev, symObjAddr: 0x56F0, symBinAddr: 0x10000990C, symSize: 0x30 }
  - { offsetInCU: 0x4C69D, offset: 0x4C69D, size: 0x8, addend: 0x0, symName: __ZNSt3__16vectorIZN8Geometry28calculate_bend_twist_springsEiE10SpringPairNS_9allocatorIS2_EEE3endB8ue170006Ev, symObjAddr: 0x5720, symBinAddr: 0x10000993C, symSize: 0x30 }
  - { offsetInCU: 0x4C6C5, offset: 0x4C6C5, size: 0x8, addend: 0x0, symName: __ZNKSt3__111__wrap_iterIPZN8Geometry28calculate_bend_twist_springsEiE10SpringPairEdeB8ue170006Ev, symObjAddr: 0x5784, symBinAddr: 0x1000099A0, symSize: 0x18 }
  - { offsetInCU: 0x4C6EB, offset: 0x4C6EB, size: 0x8, addend: 0x0, symName: __ZNKSt3__111__wrap_iterIPNS_5arrayIiLm2EEEEdeB8ue170006Ev, symObjAddr: 0x57D0, symBinAddr: 0x1000099EC, symSize: 0x18 }
  - { offsetInCU: 0x4C711, offset: 0x4C711, size: 0x8, addend: 0x0, symName: __ZNKSt3__15arrayIiLm2EEixB8ue170006Em, symObjAddr: 0x57E8, symBinAddr: 0x100009A04, symSize: 0x20 }
  - { offsetInCU: 0x4C745, offset: 0x4C745, size: 0x8, addend: 0x0, symName: __ZNSt3__16vectorINS_5arrayIiLm5EEENS_9allocatorIS2_EEE9push_backB8ue170006EOS2_, symObjAddr: 0x5808, symBinAddr: 0x100009A24, symSize: 0x6C }
  - { offsetInCU: 0x4C77C, offset: 0x4C77C, size: 0x8, addend: 0x0, symName: __ZNSt3__111__wrap_iterIPNS_5arrayIiLm2EEEEppB8ue170006Ev, symObjAddr: 0x5874, symBinAddr: 0x100009A90, symSize: 0x20 }
  - { offsetInCU: 0x4C7A2, offset: 0x4C7A2, size: 0x8, addend: 0x0, symName: __ZNSt3__111__wrap_iterIPZN8Geometry28calculate_bend_twist_springsEiE10SpringPairEppB8ue170006Ev, symObjAddr: 0x5894, symBinAddr: 0x100009AB0, symSize: 0x20 }
  - { offsetInCU: 0x4C7C8, offset: 0x4C7C8, size: 0x8, addend: 0x0, symName: __ZNSt3__16vectorIZN8Geometry28calculate_bend_twist_springsEiE10SpringPairNS_9allocatorIS2_EEED1B8ue170006Ev, symObjAddr: 0x58B4, symBinAddr: 0x100009AD0, symSize: 0x2C }
  - { offsetInCU: 0x4C7F2, offset: 0x4C7F2, size: 0x8, addend: 0x0, symName: __ZNKSt3__16vectorIiNS_9allocatorIiEEEixB8ue170006Em, symObjAddr: 0x58E0, symBinAddr: 0x100009AFC, symSize: 0x24 }
  - { offsetInCU: 0x4C829, offset: 0x4C829, size: 0x8, addend: 0x0, symName: __ZNKSt3__16vectorIiNS_9allocatorIiEEE5beginB8ue170006Ev, symObjAddr: 0x5904, symBinAddr: 0x100009B20, symSize: 0x30 }
  - { offsetInCU: 0x4C851, offset: 0x4C851, size: 0x8, addend: 0x0, symName: __ZNKSt3__16vectorIiNS_9allocatorIiEEE3endB8ue170006Ev, symObjAddr: 0x5934, symBinAddr: 0x100009B50, symSize: 0x30 }
  - { offsetInCU: 0x4C879, offset: 0x4C879, size: 0x8, addend: 0x0, symName: __ZNKSt3__111__wrap_iterIPKiEdeB8ue170006Ev, symObjAddr: 0x5998, symBinAddr: 0x100009BB4, symSize: 0x18 }
  - { offsetInCU: 0x4C89F, offset: 0x4C89F, size: 0x8, addend: 0x0, symName: __ZNSt3__111__wrap_iterIPKiEppB8ue170006Ev, symObjAddr: 0x59B0, symBinAddr: 0x100009BCC, symSize: 0x20 }
  - { offsetInCU: 0x4C8C5, offset: 0x4C8C5, size: 0x8, addend: 0x0, symName: __ZNKSt3__16vectorINS_5arrayIiLm2EEENS_9allocatorIS2_EEE5emptyB8ue170006Ev, symObjAddr: 0x59D0, symBinAddr: 0x100009BEC, symSize: 0x28 }
  - { offsetInCU: 0x4C8EB, offset: 0x4C8EB, size: 0x8, addend: 0x0, symName: __ZNSt3__16vectorINS_5arrayIiLm2EEENS_9allocatorIS2_EEE5clearB8ue170006Ev, symObjAddr: 0x59F8, symBinAddr: 0x100009C14, symSize: 0x44 }
  - { offsetInCU: 0x4C920, offset: 0x4C920, size: 0x8, addend: 0x0, symName: __ZNSt3__16vectorINS_5arrayIiLm2EEENS_9allocatorIS2_EEEC1B8ue170006ESt16initializer_listIS2_E, symObjAddr: 0x5A3C, symBinAddr: 0x100009C58, symSize: 0x3C }
  - { offsetInCU: 0x4C95B, offset: 0x4C95B, size: 0x8, addend: 0x0, symName: __ZN8Geometry15find_edge_indexEii, symObjAddr: 0x5A78, symBinAddr: 0x100009C94, symSize: 0x14C }
  - { offsetInCU: 0x4C9BF, offset: 0x4C9BF, size: 0x8, addend: 0x0, symName: __ZNSt3__14__fs10filesystem4pathC1B8ue170006INS_12basic_stringIcNS_11char_traitsIcEENS_9allocatorIcEEEEvEERKT_NS2_6formatE, symObjAddr: 0x5C14, symBinAddr: 0x100009E30, symSize: 0x3C }
  - { offsetInCU: 0x4CA0D, offset: 0x4CA0D, size: 0x8, addend: 0x0, symName: __ZNSt3__14__fs10filesystem4pathD1B8ue170006Ev, symObjAddr: 0x5C50, symBinAddr: 0x100009E6C, symSize: 0x2C }
  - { offsetInCU: 0x4CA55, offset: 0x4CA55, size: 0x8, addend: 0x0, symName: __ZNSt3__14pairIKNS_12basic_stringIcNS_11char_traitsIcEENS_9allocatorIcEEEEZN8Geometry8from_txtERS7_E6HeaderEC1B8ue170006IRA7_KcSA_LPv0EEEOT_OT0_, symObjAddr: 0x5D98, symBinAddr: 0x100009FB4, symSize: 0x3C }
  - { offsetInCU: 0x4CACB, offset: 0x4CACB, size: 0x8, addend: 0x0, symName: __ZNSt3__14pairIKNS_12basic_stringIcNS_11char_traitsIcEENS_9allocatorIcEEEEZN8Geometry8from_txtERS7_E6HeaderEC1B8ue170006IRA11_KcSA_LPv0EEEOT_OT0_, symObjAddr: 0x5DD4, symBinAddr: 0x100009FF0, symSize: 0x3C }
  - { offsetInCU: 0x4CB29, offset: 0x4CB29, size: 0x8, addend: 0x0, symName: __ZNSt3__14pairIKNS_12basic_stringIcNS_11char_traitsIcEENS_9allocatorIcEEEEZN8Geometry8from_txtERS7_E6HeaderED1Ev, symObjAddr: 0x5E10, symBinAddr: 0x10000A02C, symSize: 0x2C }
  - { offsetInCU: 0x4CC12, offset: 0x4CC12, size: 0x8, addend: 0x0, symName: __ZNSt3__113unordered_mapINS_12basic_stringIcNS_11char_traitsIcEENS_9allocatorIcEEEEZN8Geometry8from_txtERKS6_E6HeaderNS_4hashIS6_EENS_8equal_toIS6_EENS4_INS_4pairIS8_SA_EEEEEC1ESt16initializer_listISG_E, symObjAddr: 0x5E3C, symBinAddr: 0x10000A058, symSize: 0x3C }
  - { offsetInCU: 0x4CC4D, offset: 0x4CC4D, size: 0x8, addend: 0x0, symName: __ZNSt3__16vectorINS0_IdNS_9allocatorIdEEEENS1_IS3_EEEC1B8ue170006Ev, symObjAddr: 0x5E78, symBinAddr: 0x10000A094, symSize: 0x2C }
  - { offsetInCU: 0x4CD8B, offset: 0x4CD8B, size: 0x8, addend: 0x0, symName: __ZNSt3__114basic_ifstreamIcNS_11char_traitsIcEEEC1ERKNS_12basic_stringIcS2_NS_9allocatorIcEEEEj, symObjAddr: 0x5EA4, symBinAddr: 0x10000A0C0, symSize: 0x16C }
  - { offsetInCU: 0x4CDD5, offset: 0x4CDD5, size: 0x8, addend: 0x0, symName: __ZNSt3__112basic_stringIcNS_11char_traitsIcEENS_9allocatorIcEEEC1B8ue170006Ev, symObjAddr: 0x6010, symBinAddr: 0x10000A22C, symSize: 0x2C }
  - { offsetInCU: 0x4CDFF, offset: 0x4CDFF, size: 0x8, addend: 0x0, symName: __ZNKSt3__19basic_iosIcNS_11char_traitsIcEEEcvbB8ue170006Ev, symObjAddr: 0x6098, symBinAddr: 0x10000A2B4, symSize: 0x2C }
  - { offsetInCU: 0x4CE25, offset: 0x4CE25, size: 0x8, addend: 0x0, symName: __ZNKSt3__112basic_stringIcNS_11char_traitsIcEENS_9allocatorIcEEE17find_first_not_ofB8ue170006EPKcm, symObjAddr: 0x60C4, symBinAddr: 0x10000A2E0, symSize: 0x74 }
  - { offsetInCU: 0x4CE6B, offset: 0x4CE6B, size: 0x8, addend: 0x0, symName: __ZNKSt3__112basic_stringIcNS_11char_traitsIcEENS_9allocatorIcEEE16find_last_not_ofB8ue170006EPKcm, symObjAddr: 0x6138, symBinAddr: 0x10000A354, symSize: 0x74 }
  - { offsetInCU: 0x4CEB1, offset: 0x4CEB1, size: 0x8, addend: 0x0, symName: __ZNKSt3__112basic_stringIcNS_11char_traitsIcEENS_9allocatorIcEEE5emptyB8ue170006Ev, symObjAddr: 0x61AC, symBinAddr: 0x10000A3C8, symSize: 0x30 }
  - { offsetInCU: 0x4CED7, offset: 0x4CED7, size: 0x8, addend: 0x0, symName: __ZNSt3__112basic_stringIcNS_11char_traitsIcEENS_9allocatorIcEEEixB8ue170006Em, symObjAddr: 0x61DC, symBinAddr: 0x10000A3F8, symSize: 0x30 }
  - { offsetInCU: 0x4CF0C, offset: 0x4CF0C, size: 0x8, addend: 0x0, symName: __ZNSt3__112basic_stringIcNS_11char_traitsIcEENS_9allocatorIcEEE5beginB8ue170006Ev, symObjAddr: 0x62A4, symBinAddr: 0x10000A4C0, symSize: 0x4C }
  - { offsetInCU: 0x4CF32, offset: 0x4CF32, size: 0x8, addend: 0x0, symName: __ZNSt3__112basic_stringIcNS_11char_traitsIcEENS_9allocatorIcEEE3endB8ue170006Ev, symObjAddr: 0x62F0, symBinAddr: 0x10000A50C, symSize: 0x54 }
  - { offsetInCU: 0x4CF58, offset: 0x4CF58, size: 0x8, addend: 0x0, symName: __ZNKSt3__113unordered_mapINS_12basic_stringIcNS_11char_traitsIcEENS_9allocatorIcEEEEZN8Geometry8from_txtERKS6_E6HeaderNS_4hashIS6_EENS_8equal_toIS6_EENS4_INS_4pairIS8_SA_EEEEE4findB8ue170006ES9_, symObjAddr: 0x6368, symBinAddr: 0x10000A584, symSize: 0x40 }
  - { offsetInCU: 0x4CF8D, offset: 0x4CF8D, size: 0x8, addend: 0x0, symName: __ZNKSt3__113unordered_mapINS_12basic_stringIcNS_11char_traitsIcEENS_9allocatorIcEEEEZN8Geometry8from_txtERKS6_E6HeaderNS_4hashIS6_EENS_8equal_toIS6_EENS4_INS_4pairIS8_SA_EEEEE3endB8ue170006Ev, symObjAddr: 0x63D8, symBinAddr: 0x10000A5F4, symSize: 0x38 }
  - { offsetInCU: 0x4CFB3, offset: 0x4CFB3, size: 0x8, addend: 0x0, symName: __ZNKSt3__125__hash_map_const_iteratorINS_21__hash_const_iteratorIPNS_11__hash_nodeINS_17__hash_value_typeINS_12basic_stringIcNS_11char_traitsIcEENS_9allocatorIcEEEEZN8Geometry8from_txtERKS9_E6HeaderEEPvEEEEEptB8ue170006Ev, symObjAddr: 0x6490, symBinAddr: 0x10000A6AC, symSize: 0x2C }
  - { offsetInCU: 0x4D014, offset: 0x4D014, size: 0x8, addend: 0x0, symName: __ZNSt3__15arrayIbLm3EEixB8ue170006Em, symObjAddr: 0x64BC, symBinAddr: 0x10000A6D8, symSize: 0x20 }
  - { offsetInCU: 0x4D048, offset: 0x4D048, size: 0x8, addend: 0x0, symName: __ZN8Geometry12process_tempEiRNSt3__16vectorINS1_IdNS0_9allocatorIdEEEENS2_IS4_EEEERNS1_IN5Eigen6MatrixIdLi3ELi1ELi0ELi3ELi1EEENS2_ISA_EEEERNS1_INS0_5arrayIiLm2EEENS2_ISF_EEEERNS1_INSE_IiLm3EEENS2_ISJ_EEEE, symObjAddr: 0x64DC, symBinAddr: 0x10000A6F8, symSize: 0x2F0 }
  - { offsetInCU: 0x4D20E, offset: 0x4D20E, size: 0x8, addend: 0x0, symName: __ZNSt3__118basic_stringstreamIcNS_11char_traitsIcEENS_9allocatorIcEEEC1B8ue170006ERKNS_12basic_stringIcS2_S4_EEj, symObjAddr: 0x67CC, symBinAddr: 0x10000A9E8, symSize: 0x110 }
  - { offsetInCU: 0x4D256, offset: 0x4D256, size: 0x8, addend: 0x0, symName: __ZNSt3__16vectorIdNS_9allocatorIdEEE9push_backB8ue170006EOd, symObjAddr: 0x6B14, symBinAddr: 0x10000AD30, symSize: 0x6C }
  - { offsetInCU: 0x4D2C8, offset: 0x4D2C8, size: 0x8, addend: 0x0, symName: __ZNSt3__15arrayImLm3EEixB8ue170006Em, symObjAddr: 0x6C10, symBinAddr: 0x10000AE2C, symSize: 0x20 }
  - { offsetInCU: 0x4D2FC, offset: 0x4D2FC, size: 0x8, addend: 0x0, symName: __ZNSt3__16vectorINS0_IdNS_9allocatorIdEEEENS1_IS3_EEE9push_backB8ue170006ERKS3_, symObjAddr: 0x6C30, symBinAddr: 0x10000AE4C, symSize: 0x6C }
  - { offsetInCU: 0x4D338, offset: 0x4D338, size: 0x8, addend: 0x0, symName: __ZNSt3__118basic_stringstreamIcNS_11char_traitsIcEENS_9allocatorIcEEED1Ev, symObjAddr: 0x6C9C, symBinAddr: 0x10000AEB8, symSize: 0x40 }
  - { offsetInCU: 0x4D36A, offset: 0x4D36A, size: 0x8, addend: 0x0, symName: __ZNSt3__114basic_ifstreamIcNS_11char_traitsIcEEED1Ev, symObjAddr: 0x6CDC, symBinAddr: 0x10000AEF8, symSize: 0x40 }
  - { offsetInCU: 0x4D397, offset: 0x4D397, size: 0x8, addend: 0x0, symName: __ZNSt3__16vectorINS0_IdNS_9allocatorIdEEEENS1_IS3_EEED1B8ue170006Ev, symObjAddr: 0x6D1C, symBinAddr: 0x10000AF38, symSize: 0x2C }
  - { offsetInCU: 0x4D3C1, offset: 0x4D3C1, size: 0x8, addend: 0x0, symName: __ZNSt3__113unordered_mapINS_12basic_stringIcNS_11char_traitsIcEENS_9allocatorIcEEEEZN8Geometry8from_txtERKS6_E6HeaderNS_4hashIS6_EENS_8equal_toIS6_EENS4_INS_4pairIS8_SA_EEEEED1B8ue170006Ev, symObjAddr: 0x6D48, symBinAddr: 0x10000AF64, symSize: 0x2C }
  - { offsetInCU: 0x4D3EB, offset: 0x4D3EB, size: 0x8, addend: 0x0, symName: __ZNSt3__16vectorINS0_IdNS_9allocatorIdEEEENS1_IS3_EEE5beginB8ue170006Ev, symObjAddr: 0x6D74, symBinAddr: 0x10000AF90, symSize: 0x30 }
  - { offsetInCU: 0x4D413, offset: 0x4D413, size: 0x8, addend: 0x0, symName: __ZNSt3__16vectorINS0_IdNS_9allocatorIdEEEENS1_IS3_EEE3endB8ue170006Ev, symObjAddr: 0x6DA4, symBinAddr: 0x10000AFC0, symSize: 0x30 }
  - { offsetInCU: 0x4D43B, offset: 0x4D43B, size: 0x8, addend: 0x0, symName: __ZNKSt3__111__wrap_iterIPNS_6vectorIdNS_9allocatorIdEEEEEdeB8ue170006Ev, symObjAddr: 0x6E08, symBinAddr: 0x10000B024, symSize: 0x18 }
  - { offsetInCU: 0x4D461, offset: 0x4D461, size: 0x8, addend: 0x0, symName: __ZNSt3__16vectorIN5Eigen6MatrixIdLi3ELi1ELi0ELi3ELi1EEENS_9allocatorIS3_EEE12emplace_backIJS3_EEERS3_DpOT_, symObjAddr: 0x6E20, symBinAddr: 0x10000B03C, symSize: 0x74 }
  - { offsetInCU: 0x4D4A3, offset: 0x4D4A3, size: 0x8, addend: 0x0, symName: __ZNKSt3__16vectorIdNS_9allocatorIdEEEixB8ue170006Em, symObjAddr: 0x6E94, symBinAddr: 0x10000B0B0, symSize: 0x24 }
  - { offsetInCU: 0x4D4DA, offset: 0x4D4DA, size: 0x8, addend: 0x0, symName: __ZN5Eigen6MatrixIdLi3ELi1ELi0ELi3ELi1EEC1ERKdS3_S3_, symObjAddr: 0x6EB8, symBinAddr: 0x10000B0D4, symSize: 0x44 }
  - { offsetInCU: 0x4D531, offset: 0x4D531, size: 0x8, addend: 0x0, symName: __ZNSt3__111__wrap_iterIPNS_6vectorIdNS_9allocatorIdEEEEEppB8ue170006Ev, symObjAddr: 0x6EFC, symBinAddr: 0x10000B118, symSize: 0x20 }
  - { offsetInCU: 0x4D557, offset: 0x4D557, size: 0x8, addend: 0x0, symName: __ZNSt3__16vectorINS_5arrayIiLm3EEENS_9allocatorIS2_EEE9push_backB8ue170006EOS2_, symObjAddr: 0x6F1C, symBinAddr: 0x10000B138, symSize: 0x6C }
  - { offsetInCU: 0x4D58E, offset: 0x4D58E, size: 0x8, addend: 0x0, symName: __ZNSt3__16vectorINS0_IdNS_9allocatorIdEEEENS1_IS3_EEE5clearB8ue170006Ev, symObjAddr: 0x6F88, symBinAddr: 0x10000B1A4, symSize: 0x44 }
  - { offsetInCU: 0x4D5C3, offset: 0x4D5C3, size: 0x8, addend: 0x0, symName: __ZNKSt3__16vectorINS_5arrayIiLm2EEENS_9allocatorIS2_EEE5beginB8ue170006Ev, symObjAddr: 0x6FCC, symBinAddr: 0x10000B1E8, symSize: 0x30 }
  - { offsetInCU: 0x4D5EB, offset: 0x4D5EB, size: 0x8, addend: 0x0, symName: __ZNKSt3__16vectorINS_5arrayIiLm2EEENS_9allocatorIS2_EEE3endB8ue170006Ev, symObjAddr: 0x6FFC, symBinAddr: 0x10000B218, symSize: 0x30 }
  - { offsetInCU: 0x4D613, offset: 0x4D613, size: 0x8, addend: 0x0, symName: __ZNKSt3__111__wrap_iterIPKNS_5arrayIiLm2EEEEdeB8ue170006Ev, symObjAddr: 0x7060, symBinAddr: 0x10000B27C, symSize: 0x18 }
  - { offsetInCU: 0x4D639, offset: 0x4D639, size: 0x8, addend: 0x0, symName: __ZNSt3__111__wrap_iterIPKNS_5arrayIiLm2EEEEppB8ue170006Ev, symObjAddr: 0x7078, symBinAddr: 0x10000B294, symSize: 0x20 }
  - { offsetInCU: 0x4D65F, offset: 0x4D65F, size: 0x8, addend: 0x0, symName: __ZNSt3__14pairINS_6vectorINS_5arrayIiLm2EEENS_9allocatorIS3_EEEES6_EC1B8ue170006ILb1ELPv0EEERKS6_SB_, symObjAddr: 0x7098, symBinAddr: 0x10000B2B4, symSize: 0x3C }
  - { offsetInCU: 0x4D7DC, offset: 0x4D7DC, size: 0x8, addend: 0x0, symName: __ZNSt3__113unordered_setIiNS_4hashIiEENS_8equal_toIiEENS_9allocatorIiEEEC1B8ue170006Ev, symObjAddr: 0x70D4, symBinAddr: 0x10000B2F0, symSize: 0x2C }
  - { offsetInCU: 0x4D806, offset: 0x4D806, size: 0x8, addend: 0x0, symName: __ZNKSt3__16vectorINS_5arrayIiLm3EEENS_9allocatorIS2_EEE5beginB8ue170006Ev, symObjAddr: 0x7100, symBinAddr: 0x10000B31C, symSize: 0x30 }
  - { offsetInCU: 0x4D82E, offset: 0x4D82E, size: 0x8, addend: 0x0, symName: __ZNKSt3__16vectorINS_5arrayIiLm3EEENS_9allocatorIS2_EEE3endB8ue170006Ev, symObjAddr: 0x7130, symBinAddr: 0x10000B34C, symSize: 0x30 }
  - { offsetInCU: 0x4D856, offset: 0x4D856, size: 0x8, addend: 0x0, symName: __ZNKSt3__111__wrap_iterIPKNS_5arrayIiLm3EEEEdeB8ue170006Ev, symObjAddr: 0x7194, symBinAddr: 0x10000B3B0, symSize: 0x18 }
  - { offsetInCU: 0x4D87C, offset: 0x4D87C, size: 0x8, addend: 0x0, symName: __ZNSt3__113unordered_setIiNS_4hashIiEENS_8equal_toIiEENS_9allocatorIiEEE6insertB8ue170006ERKi, symObjAddr: 0x71AC, symBinAddr: 0x10000B3C8, symSize: 0x4C }
  - { offsetInCU: 0x4D8B1, offset: 0x4D8B1, size: 0x8, addend: 0x0, symName: __ZNKSt3__15arrayIiLm3EEixB8ue170006Em, symObjAddr: 0x71F8, symBinAddr: 0x10000B414, symSize: 0x20 }
  - { offsetInCU: 0x4D8E5, offset: 0x4D8E5, size: 0x8, addend: 0x0, symName: __ZNSt3__111__wrap_iterIPKNS_5arrayIiLm3EEEEppB8ue170006Ev, symObjAddr: 0x7218, symBinAddr: 0x10000B434, symSize: 0x20 }
  - { offsetInCU: 0x4D90B, offset: 0x4D90B, size: 0x8, addend: 0x0, symName: __ZNKSt3__113unordered_setIiNS_4hashIiEENS_8equal_toIiEENS_9allocatorIiEEE5countB8ue170006ERKi, symObjAddr: 0x7238, symBinAddr: 0x10000B454, symSize: 0x2C }
  - { offsetInCU: 0x4D940, offset: 0x4D940, size: 0x8, addend: 0x0, symName: __ZNSt3__113unordered_setIiNS_4hashIiEENS_8equal_toIiEENS_9allocatorIiEEED1B8ue170006Ev, symObjAddr: 0x72A4, symBinAddr: 0x10000B4C0, symSize: 0x2C }
  - { offsetInCU: 0x4D96A, offset: 0x4D96A, size: 0x8, addend: 0x0, symName: _main, symObjAddr: 0x72D0, symBinAddr: 0x10000B4EC, symSize: 0x80 }
  - { offsetInCU: 0x4D99A, offset: 0x4D99A, size: 0x8, addend: 0x0, symName: __ZNSt3__112basic_stringIcNS_11char_traitsIcEENS_9allocatorIcEEEC1B8ue170006ILi0EEEPKc, symObjAddr: 0x7350, symBinAddr: 0x10000B56C, symSize: 0x34 }
  - { offsetInCU: 0x4D9D9, offset: 0x4D9D9, size: 0x8, addend: 0x0, symName: __ZN8GeometryD1Ev, symObjAddr: 0x7384, symBinAddr: 0x10000B5A0, symSize: 0x2C }
  - { offsetInCU: 0x4DA05, offset: 0x4DA05, size: 0x8, addend: 0x0, symName: __ZN5Eigen8internal8FixedIntILi1EEC1Ev, symObjAddr: 0x73B0, symBinAddr: 0x10000B5CC, symSize: 0x2C }
  - { offsetInCU: 0x4DA2F, offset: 0x4DA2F, size: 0x8, addend: 0x0, symName: __ZN5Eigen8internal5all_tC2Ev, symObjAddr: 0x73DC, symBinAddr: 0x10000B5F8, symSize: 0x14 }
  - { offsetInCU: 0x4DA59, offset: 0x4DA59, size: 0x8, addend: 0x0, symName: __ZNSt3__110__get_pairILm0EE3getB8ue170006INS_6vectorINS_5arrayIiLm2EEENS_9allocatorIS5_EEEES8_EEOT_ONS_4pairIS9_T0_EE, symObjAddr: 0x73F0, symBinAddr: 0x10000B60C, symSize: 0x14 }
  - { offsetInCU: 0x4DA8F, offset: 0x4DA8F, size: 0x8, addend: 0x0, symName: __ZNSt3__110__get_pairILm1EE3getB8ue170006INS_6vectorINS_5arrayIiLm2EEENS_9allocatorIS5_EEEES8_EEOT0_ONS_4pairIT_S9_EE, symObjAddr: 0x7404, symBinAddr: 0x10000B620, symSize: 0x18 }
  - { offsetInCU: 0x4DAC5, offset: 0x4DAC5, size: 0x8, addend: 0x0, symName: __ZNSt3__14pairINS_6vectorINS_5arrayIiLm2EEENS_9allocatorIS3_EEEES6_ED2Ev, symObjAddr: 0x741C, symBinAddr: 0x10000B638, symSize: 0x38 }
  - { offsetInCU: 0x4DAF1, offset: 0x4DAF1, size: 0x8, addend: 0x0, symName: __ZNSt3__15arrayIiLm3EE4dataB8ue170006Ev, symObjAddr: 0x7454, symBinAddr: 0x10000B670, symSize: 0x14 }
  - { offsetInCU: 0x4DB17, offset: 0x4DB17, size: 0x8, addend: 0x0, symName: __ZNKSt3__111__wrap_iterIPNS_5arrayIiLm2EEEE4baseB8ue170006Ev, symObjAddr: 0x7468, symBinAddr: 0x10000B684, symSize: 0x18 }
  - { offsetInCU: 0x4DB3D, offset: 0x4DB3D, size: 0x8, addend: 0x0, symName: __ZNKSt3__111__wrap_iterIPiE4baseB8ue170006Ev, symObjAddr: 0x7480, symBinAddr: 0x10000B69C, symSize: 0x18 }
  - { offsetInCU: 0x4DB63, offset: 0x4DB63, size: 0x8, addend: 0x0, symName: __ZNSt3__111__wrap_iterIPKNS_5arrayIiLm2EEEEC2B8ue170006IPS2_EERKNS0_IT_EEPNS_9enable_ifIXsr14is_convertibleIS8_S4_EE5valueEvE4typeE, symObjAddr: 0x7498, symBinAddr: 0x10000B6B4, symSize: 0x40 }
  - { offsetInCU: 0x4DBAF, offset: 0x4DBAF, size: 0x8, addend: 0x0, symName: __ZNSt3__111__wrap_iterIPNS_5arrayIiLm2EEEEpLB8ue170006El, symObjAddr: 0x74D8, symBinAddr: 0x10000B6F4, symSize: 0x28 }
  - { offsetInCU: 0x4DBE3, offset: 0x4DBE3, size: 0x8, addend: 0x0, symName: __ZZN8Geometry28calculate_bend_twist_springsEiEN10SpringPairD2Ev, symObjAddr: 0x7500, symBinAddr: 0x10000B71C, symSize: 0x30 }
  - { offsetInCU: 0x4DC0F, offset: 0x4DC0F, size: 0x8, addend: 0x0, symName: __ZNKSt3__111__wrap_iterIPZN8Geometry28calculate_bend_twist_springsEiE10SpringPairE4baseB8ue170006Ev, symObjAddr: 0x7578, symBinAddr: 0x10000B794, symSize: 0x18 }
  - { offsetInCU: 0x4DC35, offset: 0x4DC35, size: 0x8, addend: 0x0, symName: __ZNKSt3__111__wrap_iterIPKiE4baseB8ue170006Ev, symObjAddr: 0x75D8, symBinAddr: 0x10000B7F4, symSize: 0x18 }
  - { offsetInCU: 0x4DC7A, offset: 0x4DC7A, size: 0x8, addend: 0x0, symName: __ZNSt3__14__fs10filesystem11file_statusD1B8ue170006Ev, symObjAddr: 0x7668, symBinAddr: 0x10000B884, symSize: 0x2C }
  - { offsetInCU: 0x4DCA4, offset: 0x4DCA4, size: 0x8, addend: 0x0, symName: __ZNKSt3__14__fs10filesystem11file_status4typeB8ue170006Ev, symObjAddr: 0x76C4, symBinAddr: 0x10000B8E0, symSize: 0x18 }
  - { offsetInCU: 0x4DCCA, offset: 0x4DCCA, size: 0x8, addend: 0x0, symName: __ZNSt3__14__fs10filesystem11file_statusD2B8ue170006Ev, symObjAddr: 0x76DC, symBinAddr: 0x10000B8F8, symSize: 0x14 }
  - { offsetInCU: 0x4DCF4, offset: 0x4DCF4, size: 0x8, addend: 0x0, symName: __ZNSt3__14__fs10filesystem4pathD2B8ue170006Ev, symObjAddr: 0x76F0, symBinAddr: 0x10000B90C, symSize: 0x2C }
  - { offsetInCU: 0x4DD1E, offset: 0x4DD1E, size: 0x8, addend: 0x0, symName: __ZNSt3__14pairIKNS_12basic_stringIcNS_11char_traitsIcEENS_9allocatorIcEEEEZN8Geometry8from_txtERS7_E6HeaderEC2B8ue170006IRA7_KcSA_LPv0EEEOT_OT0_, symObjAddr: 0x771C, symBinAddr: 0x10000B938, symSize: 0x44 }
  - { offsetInCU: 0x4DD7C, offset: 0x4DD7C, size: 0x8, addend: 0x0, symName: __ZNSt3__14pairIKNS_12basic_stringIcNS_11char_traitsIcEENS_9allocatorIcEEEEZN8Geometry8from_txtERS7_E6HeaderEC2B8ue170006IRA11_KcSA_LPv0EEEOT_OT0_, symObjAddr: 0x7760, symBinAddr: 0x10000B97C, symSize: 0x44 }
  - { offsetInCU: 0x4DDDA, offset: 0x4DDDA, size: 0x8, addend: 0x0, symName: __ZNSt3__14pairIKNS_12basic_stringIcNS_11char_traitsIcEENS_9allocatorIcEEEEZN8Geometry8from_txtERS7_E6HeaderED2Ev, symObjAddr: 0x77A4, symBinAddr: 0x10000B9C0, symSize: 0x2C }
  - { offsetInCU: 0x4DE06, offset: 0x4DE06, size: 0x8, addend: 0x0, symName: __ZNSt3__118basic_stringstreamIcNS_11char_traitsIcEENS_9allocatorIcEEED2Ev, symObjAddr: 0x77D0, symBinAddr: 0x10000B9EC, symSize: 0x6C }
  - { offsetInCU: 0x4DE40, offset: 0x4DE40, size: 0x8, addend: 0x0, symName: __ZThn16_NSt3__118basic_stringstreamIcNS_11char_traitsIcEENS_9allocatorIcEEED1Ev, symObjAddr: 0x783C, symBinAddr: 0x10000BA58, symSize: 0x1C }
  - { offsetInCU: 0x4DE57, offset: 0x4DE57, size: 0x8, addend: 0x0, symName: __ZTv0_n24_NSt3__118basic_stringstreamIcNS_11char_traitsIcEENS_9allocatorIcEEED1Ev, symObjAddr: 0x7858, symBinAddr: 0x10000BA74, symSize: 0x28 }
  - { offsetInCU: 0x4DE73, offset: 0x4DE73, size: 0x8, addend: 0x0, symName: __ZNSt3__115basic_stringbufIcNS_11char_traitsIcEENS_9allocatorIcEEED1Ev, symObjAddr: 0x7880, symBinAddr: 0x10000BA9C, symSize: 0x2C }
  - { offsetInCU: 0x4DEA0, offset: 0x4DEA0, size: 0x8, addend: 0x0, symName: __ZNSt3__115basic_stringbufIcNS_11char_traitsIcEENS_9allocatorIcEEED2Ev, symObjAddr: 0x78AC, symBinAddr: 0x10000BAC8, symSize: 0x48 }
  - { offsetInCU: 0x4DECD, offset: 0x4DECD, size: 0x8, addend: 0x0, symName: __ZNSt3__114basic_ifstreamIcNS_11char_traitsIcEEED2Ev, symObjAddr: 0x78F4, symBinAddr: 0x10000BB10, symSize: 0x64 }
  - { offsetInCU: 0x4DF07, offset: 0x4DF07, size: 0x8, addend: 0x0, symName: __ZTv0_n24_NSt3__114basic_ifstreamIcNS_11char_traitsIcEEED1Ev, symObjAddr: 0x7958, symBinAddr: 0x10000BB74, symSize: 0x28 }
  - { offsetInCU: 0x4DF1E, offset: 0x4DF1E, size: 0x8, addend: 0x0, symName: __ZNKSt3__111__wrap_iterIPNS_6vectorIdNS_9allocatorIdEEEEE4baseB8ue170006Ev, symObjAddr: 0x79C8, symBinAddr: 0x10000BBE4, symSize: 0x18 }
  - { offsetInCU: 0x4DF44, offset: 0x4DF44, size: 0x8, addend: 0x0, symName: __ZNKSt3__111__wrap_iterIPKNS_5arrayIiLm2EEEE4baseB8ue170006Ev, symObjAddr: 0x7A28, symBinAddr: 0x10000BC44, symSize: 0x18 }
  - { offsetInCU: 0x4DF6A, offset: 0x4DF6A, size: 0x8, addend: 0x0, symName: __ZNSt3__14pairINS_6vectorINS_5arrayIiLm2EEENS_9allocatorIS3_EEEES6_EC2B8ue170006ILb1ELPv0EEERKS6_SB_, symObjAddr: 0x7A40, symBinAddr: 0x10000BC5C, symSize: 0x70 }
  - { offsetInCU: 0x4DFC0, offset: 0x4DFC0, size: 0x8, addend: 0x0, symName: __ZNKSt3__111__wrap_iterIPKNS_5arrayIiLm3EEEE4baseB8ue170006Ev, symObjAddr: 0x7AF8, symBinAddr: 0x10000BD14, symSize: 0x18 }
  - { offsetInCU: 0x4DFE6, offset: 0x4DFE6, size: 0x8, addend: 0x0, symName: __ZNSt3__14pairINS_6vectorINS_5arrayIiLm2EEENS_9allocatorIS3_EEEES6_EC1B8ue170006IRS6_S9_LPv0EEEOT_OT0_, symObjAddr: 0x7B10, symBinAddr: 0x10000BD2C, symSize: 0x3C }
  - { offsetInCU: 0x4E044, offset: 0x4E044, size: 0x8, addend: 0x0, symName: __ZNSt3__14pairINS_6vectorINS_5arrayIiLm2EEENS_9allocatorIS3_EEEES6_EC2B8ue170006IRS6_S9_LPv0EEEOT_OT0_, symObjAddr: 0x7B4C, symBinAddr: 0x10000BD68, symSize: 0x70 }
  - { offsetInCU: 0x4E0A2, offset: 0x4E0A2, size: 0x8, addend: 0x0, symName: __ZN8GeometryD2Ev, symObjAddr: 0x7BBC, symBinAddr: 0x10000BDD8, symSize: 0x11C }
  - { offsetInCU: 0x4E0CE, offset: 0x4E0CE, size: 0x8, addend: 0x0, symName: __ZNSt3__112basic_stringIcNS_11char_traitsIcEENS_9allocatorIcEEEC2B8ue170006ILi0EEEPKc, symObjAddr: 0x7CD8, symBinAddr: 0x10000BEF4, symSize: 0x58 }
  - { offsetInCU: 0x4E113, offset: 0x4E113, size: 0x8, addend: 0x0, symName: __ZNSt3__117__compressed_pairINS_12basic_stringIcNS_11char_traitsIcEENS_9allocatorIcEEE5__repES5_EC1B8ue170006INS_18__default_init_tagESA_EEOT_OT0_, symObjAddr: 0x7D30, symBinAddr: 0x10000BF4C, symSize: 0x3C }
  - { offsetInCU: 0x4E16B, offset: 0x4E16B, size: 0x8, addend: 0x0, symName: __ZNSt3__111char_traitsIcE6lengthB8ue170006EPKc, symObjAddr: 0x7D6C, symBinAddr: 0x10000BF88, symSize: 0x34 }
  - { offsetInCU: 0x4E18E, offset: 0x4E18E, size: 0x8, addend: 0x0, symName: __ZNSt3__117__compressed_pairINS_12basic_stringIcNS_11char_traitsIcEENS_9allocatorIcEEE5__repES5_EC2B8ue170006INS_18__default_init_tagESA_EEOT_OT0_, symObjAddr: 0x7DA0, symBinAddr: 0x10000BFBC, symSize: 0x3C }
  - { offsetInCU: 0x4E1E6, offset: 0x4E1E6, size: 0x8, addend: 0x0, symName: __ZNSt3__122__compressed_pair_elemINS_12basic_stringIcNS_11char_traitsIcEENS_9allocatorIcEEE5__repELi0ELb0EEC2B8ue170006ENS_18__default_init_tagE, symObjAddr: 0x7DDC, symBinAddr: 0x10000BFF8, symSize: 0x14 }
  - { offsetInCU: 0x4E21B, offset: 0x4E21B, size: 0x8, addend: 0x0, symName: __ZNSt3__122__compressed_pair_elemINS_9allocatorIcEELi1ELb1EEC2B8ue170006ENS_18__default_init_tagE, symObjAddr: 0x7DF0, symBinAddr: 0x10000C00C, symSize: 0x2C }
  - { offsetInCU: 0x4E250, offset: 0x4E250, size: 0x8, addend: 0x0, symName: __ZNSt3__19allocatorIcEC2B8ue170006Ev, symObjAddr: 0x7E1C, symBinAddr: 0x10000C038, symSize: 0x2C }
  - { offsetInCU: 0x4E27A, offset: 0x4E27A, size: 0x8, addend: 0x0, symName: __ZNSt3__116__non_trivial_ifILb1ENS_9allocatorIcEEEC2B8ue170006Ev, symObjAddr: 0x7E48, symBinAddr: 0x10000C064, symSize: 0x14 }
  - { offsetInCU: 0x4E2A4, offset: 0x4E2A4, size: 0x8, addend: 0x0, symName: __ZN5Eigen8symbolic10SymbolExprINS_8internal17symbolic_last_tagEEC2Ev, symObjAddr: 0x7E80, symBinAddr: 0x10000C09C, symSize: 0x14 }
  - { offsetInCU: 0x4E2CE, offset: 0x4E2CE, size: 0x8, addend: 0x0, symName: __ZN5Eigen8internal8FixedIntILi1EEC2Ev, symObjAddr: 0x7E94, symBinAddr: 0x10000C0B0, symSize: 0x14 }
  - { offsetInCU: 0x4E2F8, offset: 0x4E2F8, size: 0x8, addend: 0x0, symName: __ZNK5Eigen8symbolic8BaseExprINS0_10SymbolExprINS_8internal17symbolic_last_tagEEEE7derivedEv, symObjAddr: 0x7EA8, symBinAddr: 0x10000C0C4, symSize: 0x14 }
  - { offsetInCU: 0x4E31E, offset: 0x4E31E, size: 0x8, addend: 0x0, symName: __ZN5Eigen8symbolic9ValueExprINS_8internal8FixedIntILi1EEEEC1Ev, symObjAddr: 0x7EBC, symBinAddr: 0x10000C0D8, symSize: 0x2C }
  - { offsetInCU: 0x4E348, offset: 0x4E348, size: 0x8, addend: 0x0, symName: __ZN5Eigen8symbolic7AddExprINS0_10SymbolExprINS_8internal17symbolic_last_tagEEENS0_9ValueExprINS3_8FixedIntILi1EEEEEEC1ERKS5_RKS9_, symObjAddr: 0x7EE8, symBinAddr: 0x10000C104, symSize: 0x3C }
  - { offsetInCU: 0x4E38E, offset: 0x4E38E, size: 0x8, addend: 0x0, symName: __ZN5Eigen8symbolic9ValueExprINS_8internal8FixedIntILi1EEEEC2Ev, symObjAddr: 0x7F24, symBinAddr: 0x10000C140, symSize: 0x14 }
  - { offsetInCU: 0x4E3B8, offset: 0x4E3B8, size: 0x8, addend: 0x0, symName: __ZN5Eigen8symbolic7AddExprINS0_10SymbolExprINS_8internal17symbolic_last_tagEEENS0_9ValueExprINS3_8FixedIntILi1EEEEEEC2ERKS5_RKS9_, symObjAddr: 0x7F38, symBinAddr: 0x10000C154, symSize: 0x1C }
  - { offsetInCU: 0x4E3FE, offset: 0x4E3FE, size: 0x8, addend: 0x0, symName: __ZNSt3__112basic_stringIcNS_11char_traitsIcEENS_9allocatorIcEEE13__get_pointerB8ue170006Ev, symObjAddr: 0x7F54, symBinAddr: 0x10000C170, symSize: 0x54 }
  - { offsetInCU: 0x4E424, offset: 0x4E424, size: 0x8, addend: 0x0, symName: __ZNKSt3__112basic_stringIcNS_11char_traitsIcEENS_9allocatorIcEEE9__is_longB8ue170006Ev, symObjAddr: 0x7FA8, symBinAddr: 0x10000C1C4, symSize: 0x38 }
  - { offsetInCU: 0x4E44A, offset: 0x4E44A, size: 0x8, addend: 0x0, symName: __ZNSt3__112basic_stringIcNS_11char_traitsIcEENS_9allocatorIcEEE18__get_long_pointerB8ue170006Ev, symObjAddr: 0x7FE0, symBinAddr: 0x10000C1FC, symSize: 0x28 }
  - { offsetInCU: 0x4E470, offset: 0x4E470, size: 0x8, addend: 0x0, symName: __ZNSt3__112basic_stringIcNS_11char_traitsIcEENS_9allocatorIcEEE19__get_short_pointerB8ue170006Ev, symObjAddr: 0x8008, symBinAddr: 0x10000C224, symSize: 0x28 }
  - { offsetInCU: 0x4E496, offset: 0x4E496, size: 0x8, addend: 0x0, symName: __ZNKSt3__117__compressed_pairINS_12basic_stringIcNS_11char_traitsIcEENS_9allocatorIcEEE5__repES5_E5firstB8ue170006Ev, symObjAddr: 0x8030, symBinAddr: 0x10000C24C, symSize: 0x24 }
  - { offsetInCU: 0x4E4BC, offset: 0x4E4BC, size: 0x8, addend: 0x0, symName: __ZNKSt3__122__compressed_pair_elemINS_12basic_stringIcNS_11char_traitsIcEENS_9allocatorIcEEE5__repELi0ELb0EE5__getB8ue170006Ev, symObjAddr: 0x8054, symBinAddr: 0x10000C270, symSize: 0x14 }
  - { offsetInCU: 0x4E4E2, offset: 0x4E4E2, size: 0x8, addend: 0x0, symName: __ZNSt3__117__compressed_pairINS_12basic_stringIcNS_11char_traitsIcEENS_9allocatorIcEEE5__repES5_E5firstB8ue170006Ev, symObjAddr: 0x8068, symBinAddr: 0x10000C284, symSize: 0x24 }
  - { offsetInCU: 0x4E508, offset: 0x4E508, size: 0x8, addend: 0x0, symName: __ZNSt3__122__compressed_pair_elemINS_12basic_stringIcNS_11char_traitsIcEENS_9allocatorIcEEE5__repELi0ELb0EE5__getB8ue170006Ev, symObjAddr: 0x808C, symBinAddr: 0x10000C2A8, symSize: 0x14 }
  - { offsetInCU: 0x4E52E, offset: 0x4E52E, size: 0x8, addend: 0x0, symName: __ZNSt3__114pointer_traitsIPcE10pointer_toB8ue170006ERc, symObjAddr: 0x80A0, symBinAddr: 0x10000C2BC, symSize: 0x14 }
  - { offsetInCU: 0x4E551, offset: 0x4E551, size: 0x8, addend: 0x0, symName: __ZNSt3__16vectorINS_5arrayIiLm2EEENS_9allocatorIS2_EEEC2ERKS5_, symObjAddr: 0x80B4, symBinAddr: 0x10000C2D0, symSize: 0x94 }
  - { offsetInCU: 0x4E596, offset: 0x4E596, size: 0x8, addend: 0x0, symName: __ZNSt3__116allocator_traitsINS_9allocatorINS_5arrayIiLm2EEEEEE37select_on_container_copy_constructionB8ue170006IS4_vvEES4_RKS4_, symObjAddr: 0x8148, symBinAddr: 0x10000C364, symSize: 0x10 }
  - { offsetInCU: 0x4E5C5, offset: 0x4E5C5, size: 0x8, addend: 0x0, symName: __ZNKSt3__16vectorINS_5arrayIiLm2EEENS_9allocatorIS2_EEE7__allocB8ue170006Ev, symObjAddr: 0x8158, symBinAddr: 0x10000C374, symSize: 0x28 }
  - { offsetInCU: 0x4E5F7, offset: 0x4E5F7, size: 0x8, addend: 0x0, symName: __ZNSt3__117__compressed_pairIPNS_5arrayIiLm2EEENS_9allocatorIS2_EEEC1B8ue170006IDnS5_EEOT_OT0_, symObjAddr: 0x8180, symBinAddr: 0x10000C39C, symSize: 0x3C }
  - { offsetInCU: 0x4E64F, offset: 0x4E64F, size: 0x8, addend: 0x0, symName: __ZNSt3__16vectorINS_5arrayIiLm2EEENS_9allocatorIS2_EEE16__init_with_sizeB8ue170006IPS2_S7_EEvT_T0_m, symObjAddr: 0x81BC, symBinAddr: 0x10000C3D8, symSize: 0xB8 }
  - { offsetInCU: 0x4E6C3, offset: 0x4E6C3, size: 0x8, addend: 0x0, symName: __ZNKSt3__117__compressed_pairIPNS_5arrayIiLm2EEENS_9allocatorIS2_EEE6secondB8ue170006Ev, symObjAddr: 0x8274, symBinAddr: 0x10000C490, symSize: 0x24 }
  - { offsetInCU: 0x4E6E9, offset: 0x4E6E9, size: 0x8, addend: 0x0, symName: __ZNKSt3__122__compressed_pair_elemINS_9allocatorINS_5arrayIiLm2EEEEELi1ELb1EE5__getB8ue170006Ev, symObjAddr: 0x8298, symBinAddr: 0x10000C4B4, symSize: 0x14 }
  - { offsetInCU: 0x4E70F, offset: 0x4E70F, size: 0x8, addend: 0x0, symName: __ZNSt3__117__compressed_pairIPNS_5arrayIiLm2EEENS_9allocatorIS2_EEEC2B8ue170006IDnS5_EEOT_OT0_, symObjAddr: 0x82AC, symBinAddr: 0x10000C4C8, symSize: 0x44 }
  - { offsetInCU: 0x4E767, offset: 0x4E767, size: 0x8, addend: 0x0, symName: __ZNSt3__122__compressed_pair_elemIPNS_5arrayIiLm2EEELi0ELb0EEC2B8ue170006IDnvEEOT_, symObjAddr: 0x82F0, symBinAddr: 0x10000C50C, symSize: 0x1C }
  - { offsetInCU: 0x4E7A9, offset: 0x4E7A9, size: 0x8, addend: 0x0, symName: __ZNSt3__122__compressed_pair_elemINS_9allocatorINS_5arrayIiLm2EEEEELi1ELb1EEC2B8ue170006IS4_vEEOT_, symObjAddr: 0x830C, symBinAddr: 0x10000C528, symSize: 0x18 }
  - { offsetInCU: 0x4E7EB, offset: 0x4E7EB, size: 0x8, addend: 0x0, symName: __ZNSt3__16vectorINS_5arrayIiLm2EEENS_9allocatorIS2_EEE16__destroy_vectorC1B8ue170006ERS5_, symObjAddr: 0x8364, symBinAddr: 0x10000C580, symSize: 0x34 }
  - { offsetInCU: 0x4E824, offset: 0x4E824, size: 0x8, addend: 0x0, symName: __ZNSt3__16vectorINS_5arrayIiLm2EEENS_9allocatorIS2_EEE11__vallocateB8ue170006Em, symObjAddr: 0x8398, symBinAddr: 0x10000C5B4, symSize: 0xAC }
  - { offsetInCU: 0x4E868, offset: 0x4E868, size: 0x8, addend: 0x0, symName: __ZNSt3__16vectorINS_5arrayIiLm2EEENS_9allocatorIS2_EEE18__construct_at_endIPS2_S7_EEvT_T0_m, symObjAddr: 0x8444, symBinAddr: 0x10000C660, symSize: 0x8C }
  - { offsetInCU: 0x4E8DE, offset: 0x4E8DE, size: 0x8, addend: 0x0, symName: __ZNSt3__128__exception_guard_exceptionsINS_6vectorINS_5arrayIiLm2EEENS_9allocatorIS3_EEE16__destroy_vectorEE10__completeB8ue170006Ev, symObjAddr: 0x84D0, symBinAddr: 0x10000C6EC, symSize: 0x1C }
  - { offsetInCU: 0x4E904, offset: 0x4E904, size: 0x8, addend: 0x0, symName: __ZNSt3__128__exception_guard_exceptionsINS_6vectorINS_5arrayIiLm2EEENS_9allocatorIS3_EEE16__destroy_vectorEED1B8ue170006Ev, symObjAddr: 0x84EC, symBinAddr: 0x10000C708, symSize: 0x2C }
  - { offsetInCU: 0x4E92E, offset: 0x4E92E, size: 0x8, addend: 0x0, symName: __ZNSt3__128__exception_guard_exceptionsINS_6vectorINS_5arrayIiLm2EEENS_9allocatorIS3_EEE16__destroy_vectorEEC1B8ue170006ES7_, symObjAddr: 0x8518, symBinAddr: 0x10000C734, symSize: 0x34 }
  - { offsetInCU: 0x4E966, offset: 0x4E966, size: 0x8, addend: 0x0, symName: __ZNSt3__128__exception_guard_exceptionsINS_6vectorINS_5arrayIiLm2EEENS_9allocatorIS3_EEE16__destroy_vectorEEC2B8ue170006ES7_, symObjAddr: 0x854C, symBinAddr: 0x10000C768, symSize: 0x24 }
  - { offsetInCU: 0x4E99E, offset: 0x4E99E, size: 0x8, addend: 0x0, symName: __ZNSt3__16vectorINS_5arrayIiLm2EEENS_9allocatorIS2_EEE16__destroy_vectorC2B8ue170006ERS5_, symObjAddr: 0x8570, symBinAddr: 0x10000C78C, symSize: 0x20 }
  - { offsetInCU: 0x4E9D7, offset: 0x4E9D7, size: 0x8, addend: 0x0, symName: __ZNKSt3__16vectorINS_5arrayIiLm2EEENS_9allocatorIS2_EEE8max_sizeEv, symObjAddr: 0x8590, symBinAddr: 0x10000C7AC, symSize: 0x60 }
  - { offsetInCU: 0x4E9FF, offset: 0x4E9FF, size: 0x8, addend: 0x0, symName: __ZNKSt3__16vectorINS_5arrayIiLm2EEENS_9allocatorIS2_EEE20__throw_length_errorB8ue170006Ev, symObjAddr: 0x85F0, symBinAddr: 0x10000C80C, symSize: 0x1C }
  - { offsetInCU: 0x4EA25, offset: 0x4EA25, size: 0x8, addend: 0x0, symName: __ZNSt3__16vectorINS_5arrayIiLm2EEENS_9allocatorIS2_EEE7__allocB8ue170006Ev, symObjAddr: 0x864C, symBinAddr: 0x10000C868, symSize: 0x28 }
  - { offsetInCU: 0x4EA4B, offset: 0x4EA4B, size: 0x8, addend: 0x0, symName: __ZNSt3__16vectorINS_5arrayIiLm2EEENS_9allocatorIS2_EEE9__end_capB8ue170006Ev, symObjAddr: 0x8674, symBinAddr: 0x10000C890, symSize: 0x28 }
  - { offsetInCU: 0x4EA71, offset: 0x4EA71, size: 0x8, addend: 0x0, symName: __ZNKSt3__16vectorINS_5arrayIiLm2EEENS_9allocatorIS2_EEE14__annotate_newB8ue170006Em, symObjAddr: 0x869C, symBinAddr: 0x10000C8B8, symSize: 0xAC }
  - { offsetInCU: 0x4EAA6, offset: 0x4EAA6, size: 0x8, addend: 0x0, symName: __ZNSt3__116allocator_traitsINS_9allocatorINS_5arrayIiLm2EEEEEE8max_sizeB8ue170006IS4_vEEmRKS4_, symObjAddr: 0x8774, symBinAddr: 0x10000C990, symSize: 0x24 }
  - { offsetInCU: 0x4EAD4, offset: 0x4EAD4, size: 0x8, addend: 0x0, symName: __ZNSt3__114numeric_limitsIlE3maxB8ue170006Ev, symObjAddr: 0x8798, symBinAddr: 0x10000C9B4, symSize: 0x14 }
  - { offsetInCU: 0x4EAF2, offset: 0x4EAF2, size: 0x8, addend: 0x0, symName: __ZNKSt3__16__lessIvvEclB8ue170006ImmEEbRKT_RKT0_, symObjAddr: 0x8800, symBinAddr: 0x10000CA1C, symSize: 0x34 }
  - { offsetInCU: 0x4EB46, offset: 0x4EB46, size: 0x8, addend: 0x0, symName: __ZNKSt3__19allocatorINS_5arrayIiLm2EEEE8max_sizeB8ue170006Ev, symObjAddr: 0x8834, symBinAddr: 0x10000CA50, symSize: 0x14 }
  - { offsetInCU: 0x4EB6C, offset: 0x4EB6C, size: 0x8, addend: 0x0, symName: __ZNSt3__123__libcpp_numeric_limitsIlLb1EE3maxB8ue170006Ev, symObjAddr: 0x8848, symBinAddr: 0x10000CA64, symSize: 0x8 }
  - { offsetInCU: 0x4EB80, offset: 0x4EB80, size: 0x8, addend: 0x0, symName: __ZNSt12length_errorC1B8ue170006EPKc, symObjAddr: 0x88B4, symBinAddr: 0x10000CAD0, symSize: 0x34 }
  - { offsetInCU: 0x4EBB8, offset: 0x4EBB8, size: 0x8, addend: 0x0, symName: __ZNSt12length_errorC2B8ue170006EPKc, symObjAddr: 0x88E8, symBinAddr: 0x10000CB04, symSize: 0x4C }
  - { offsetInCU: 0x4EBF0, offset: 0x4EBF0, size: 0x8, addend: 0x0, symName: __ZNSt3__19allocatorINS_5arrayIiLm2EEEE8allocateB8ue170006Em, symObjAddr: 0x8934, symBinAddr: 0x10000CB50, symSize: 0x58 }
  - { offsetInCU: 0x4EC24, offset: 0x4EC24, size: 0x8, addend: 0x0, symName: __ZNSt3__117__compressed_pairIPNS_5arrayIiLm2EEENS_9allocatorIS2_EEE6secondB8ue170006Ev, symObjAddr: 0x8A90, symBinAddr: 0x10000CCAC, symSize: 0x24 }
  - { offsetInCU: 0x4EC4A, offset: 0x4EC4A, size: 0x8, addend: 0x0, symName: __ZNSt3__122__compressed_pair_elemINS_9allocatorINS_5arrayIiLm2EEEEELi1ELb1EE5__getB8ue170006Ev, symObjAddr: 0x8AB4, symBinAddr: 0x10000CCD0, symSize: 0x14 }
  - { offsetInCU: 0x4EC70, offset: 0x4EC70, size: 0x8, addend: 0x0, symName: __ZNSt3__117__compressed_pairIPNS_5arrayIiLm2EEENS_9allocatorIS2_EEE5firstB8ue170006Ev, symObjAddr: 0x8AC8, symBinAddr: 0x10000CCE4, symSize: 0x24 }
  - { offsetInCU: 0x4EC96, offset: 0x4EC96, size: 0x8, addend: 0x0, symName: __ZNSt3__122__compressed_pair_elemIPNS_5arrayIiLm2EEELi0ELb0EE5__getB8ue170006Ev, symObjAddr: 0x8AEC, symBinAddr: 0x10000CD08, symSize: 0x14 }
  - { offsetInCU: 0x4ECBC, offset: 0x4ECBC, size: 0x8, addend: 0x0, symName: __ZNKSt3__16vectorINS_5arrayIiLm2EEENS_9allocatorIS2_EEE31__annotate_contiguous_containerB8ue170006EPKvS7_S7_S7_, symObjAddr: 0x8B00, symBinAddr: 0x10000CD1C, symSize: 0x20 }
  - { offsetInCU: 0x4ED0E, offset: 0x4ED0E, size: 0x8, addend: 0x0, symName: __ZNKSt3__16vectorINS_5arrayIiLm2EEENS_9allocatorIS2_EEE4dataB8ue170006Ev, symObjAddr: 0x8B20, symBinAddr: 0x10000CD3C, symSize: 0x28 }
  - { offsetInCU: 0x4ED34, offset: 0x4ED34, size: 0x8, addend: 0x0, symName: __ZNKSt3__16vectorINS_5arrayIiLm2EEENS_9allocatorIS2_EEE8capacityB8ue170006Ev, symObjAddr: 0x8B48, symBinAddr: 0x10000CD64, symSize: 0x40 }
  - { offsetInCU: 0x4ED5A, offset: 0x4ED5A, size: 0x8, addend: 0x0, symName: __ZNKSt3__16vectorINS_5arrayIiLm2EEENS_9allocatorIS2_EEE9__end_capB8ue170006Ev, symObjAddr: 0x8B9C, symBinAddr: 0x10000CDB8, symSize: 0x28 }
  - { offsetInCU: 0x4ED80, offset: 0x4ED80, size: 0x8, addend: 0x0, symName: __ZNKSt3__117__compressed_pairIPNS_5arrayIiLm2EEENS_9allocatorIS2_EEE5firstB8ue170006Ev, symObjAddr: 0x8BC4, symBinAddr: 0x10000CDE0, symSize: 0x24 }
  - { offsetInCU: 0x4EDA6, offset: 0x4EDA6, size: 0x8, addend: 0x0, symName: __ZNKSt3__122__compressed_pair_elemIPNS_5arrayIiLm2EEELi0ELb0EE5__getB8ue170006Ev, symObjAddr: 0x8BE8, symBinAddr: 0x10000CE04, symSize: 0x14 }
  - { offsetInCU: 0x4EDE5, offset: 0x4EDE5, size: 0x8, addend: 0x0, symName: __ZNSt3__16vectorINS_5arrayIiLm2EEENS_9allocatorIS2_EEE21_ConstructTransactionC1B8ue170006ERS5_m, symObjAddr: 0x8BFC, symBinAddr: 0x10000CE18, symSize: 0x3C }
  - { offsetInCU: 0x4EE2D, offset: 0x4EE2D, size: 0x8, addend: 0x0, symName: __ZNSt3__16vectorINS_5arrayIiLm2EEENS_9allocatorIS2_EEE21_ConstructTransactionD1B8ue170006Ev, symObjAddr: 0x8CB8, symBinAddr: 0x10000CED4, symSize: 0x2C }
  - { offsetInCU: 0x4EE57, offset: 0x4EE57, size: 0x8, addend: 0x0, symName: __ZNSt3__16vectorINS_5arrayIiLm2EEENS_9allocatorIS2_EEE21_ConstructTransactionC2B8ue170006ERS5_m, symObjAddr: 0x8CE4, symBinAddr: 0x10000CF00, symSize: 0x44 }
  - { offsetInCU: 0x4EEBF, offset: 0x4EEBF, size: 0x8, addend: 0x0, symName: __ZNSt3__14pairIPNS_5arrayIiLm2EEES3_EC1B8ue170006IS3_S3_LPv0EEEOT_OT0_, symObjAddr: 0x8E58, symBinAddr: 0x10000D074, symSize: 0x3C }
  - { offsetInCU: 0x4EF1D, offset: 0x4EF1D, size: 0x8, addend: 0x0, symName: __ZNSt3__14pairIPNS_5arrayIiLm2EEES3_EC2B8ue170006IS3_S3_LPv0EEEOT_OT0_, symObjAddr: 0x8E94, symBinAddr: 0x10000D0B0, symSize: 0x34 }
  - { offsetInCU: 0x4EF85, offset: 0x4EF85, size: 0x8, addend: 0x0, symName: __ZNKSt3__114__copy_trivialclB8ue170006INS_5arrayIiLm2EEES3_Li0EEENS_4pairIPT_PT0_EES6_S6_S8_, symObjAddr: 0x9044, symBinAddr: 0x10000D260, symSize: 0x48 }
  - { offsetInCU: 0x4EFED, offset: 0x4EFED, size: 0x8, addend: 0x0, symName: __ZNSt3__14pairIPNS_5arrayIiLm2EEES3_EC1B8ue170006IRS3_S3_LPv0EEEOT_OT0_, symObjAddr: 0x91D4, symBinAddr: 0x10000D3F0, symSize: 0x3C }
  - { offsetInCU: 0x4F04B, offset: 0x4F04B, size: 0x8, addend: 0x0, symName: __ZNSt3__14pairIPNS_5arrayIiLm2EEES3_EC2B8ue170006IRS3_S3_LPv0EEEOT_OT0_, symObjAddr: 0x9210, symBinAddr: 0x10000D42C, symSize: 0x34 }
  - { offsetInCU: 0x4F0A9, offset: 0x4F0A9, size: 0x8, addend: 0x0, symName: __ZNSt3__118__unwrap_iter_implIPNS_5arrayIiLm2EEELb1EE8__unwrapB8ue170006ES3_, symObjAddr: 0x9244, symBinAddr: 0x10000D460, symSize: 0x24 }
  - { offsetInCU: 0x4F0CC, offset: 0x4F0CC, size: 0x8, addend: 0x0, symName: __ZNSt3__118__unwrap_iter_implIPNS_5arrayIiLm2EEELb1EE8__rewrapB8ue170006ES3_S3_, symObjAddr: 0x9268, symBinAddr: 0x10000D484, symSize: 0x50 }
  - { offsetInCU: 0x4F0FD, offset: 0x4F0FD, size: 0x8, addend: 0x0, symName: __ZNSt3__16vectorINS_5arrayIiLm2EEENS_9allocatorIS2_EEE21_ConstructTransactionD2B8ue170006Ev, symObjAddr: 0x92B8, symBinAddr: 0x10000D4D4, symSize: 0x20 }
  - { offsetInCU: 0x4F127, offset: 0x4F127, size: 0x8, addend: 0x0, symName: __ZNSt3__128__exception_guard_exceptionsINS_6vectorINS_5arrayIiLm2EEENS_9allocatorIS3_EEE16__destroy_vectorEED2B8ue170006Ev, symObjAddr: 0x92D8, symBinAddr: 0x10000D4F4, symSize: 0x50 }
  - { offsetInCU: 0x4F151, offset: 0x4F151, size: 0x8, addend: 0x0, symName: __ZNSt3__16vectorINS_5arrayIiLm2EEENS_9allocatorIS2_EEE16__destroy_vectorclB8ue170006Ev, symObjAddr: 0x9328, symBinAddr: 0x10000D544, symSize: 0x90 }
  - { offsetInCU: 0x4F177, offset: 0x4F177, size: 0x8, addend: 0x0, symName: __ZNSt3__16vectorINS_5arrayIiLm2EEENS_9allocatorIS2_EEE7__clearB8ue170006Ev, symObjAddr: 0x93B8, symBinAddr: 0x10000D5D4, symSize: 0x28 }
  - { offsetInCU: 0x4F19D, offset: 0x4F19D, size: 0x8, addend: 0x0, symName: __ZNKSt3__16vectorINS_5arrayIiLm2EEENS_9allocatorIS2_EEE17__annotate_deleteB8ue170006Ev, symObjAddr: 0x93E0, symBinAddr: 0x10000D5FC, symSize: 0xB8 }
  - { offsetInCU: 0x4F1C3, offset: 0x4F1C3, size: 0x8, addend: 0x0, symName: __ZNSt3__116allocator_traitsINS_9allocatorINS_5arrayIiLm2EEEEEE10deallocateB8ue170006ERS4_PS3_m, symObjAddr: 0x9498, symBinAddr: 0x10000D6B4, symSize: 0x34 }
  - { offsetInCU: 0x4F205, offset: 0x4F205, size: 0x8, addend: 0x0, symName: __ZNSt3__16vectorINS_5arrayIiLm2EEENS_9allocatorIS2_EEE22__base_destruct_at_endB8ue170006EPS2_, symObjAddr: 0x94CC, symBinAddr: 0x10000D6E8, symSize: 0x8C }
  - { offsetInCU: 0x4F249, offset: 0x4F249, size: 0x8, addend: 0x0, symName: __ZNSt3__116allocator_traitsINS_9allocatorINS_5arrayIiLm2EEEEEE7destroyB8ue170006IS3_vEEvRS4_PT_, symObjAddr: 0x9558, symBinAddr: 0x10000D774, symSize: 0x2C }
  - { offsetInCU: 0x4F286, offset: 0x4F286, size: 0x8, addend: 0x0, symName: __ZNSt3__19allocatorINS_5arrayIiLm2EEEE7destroyB8ue170006EPS2_, symObjAddr: 0x9584, symBinAddr: 0x10000D7A0, symSize: 0x14 }
  - { offsetInCU: 0x4F2BA, offset: 0x4F2BA, size: 0x8, addend: 0x0, symName: __ZNSt3__19allocatorINS_5arrayIiLm2EEEE10deallocateB8ue170006EPS2_m, symObjAddr: 0x9598, symBinAddr: 0x10000D7B4, symSize: 0x40 }
  - { offsetInCU: 0x4F2FC, offset: 0x4F2FC, size: 0x8, addend: 0x0, symName: __ZNSt3__112basic_stringIcNS_11char_traitsIcEENS_9allocatorIcEEEC2B8ue170006Ev, symObjAddr: 0x96E0, symBinAddr: 0x10000D8FC, symSize: 0x48 }
  - { offsetInCU: 0x4F326, offset: 0x4F326, size: 0x8, addend: 0x0, symName: __ZNSt3__112basic_stringIcNS_11char_traitsIcEENS_9allocatorIcEEE14__default_initB8ue170006Ev, symObjAddr: 0x9728, symBinAddr: 0x10000D944, symSize: 0x40 }
  - { offsetInCU: 0x4F34C, offset: 0x4F34C, size: 0x8, addend: 0x0, symName: __ZNKSt3__112basic_stringIcNS_11char_traitsIcEENS_9allocatorIcEEE4sizeB8ue170006Ev, symObjAddr: 0x9768, symBinAddr: 0x10000D984, symSize: 0x54 }
  - { offsetInCU: 0x4F372, offset: 0x4F372, size: 0x8, addend: 0x0, symName: __ZNKSt3__112basic_stringIcNS_11char_traitsIcEENS_9allocatorIcEEE15__get_long_sizeB8ue170006Ev, symObjAddr: 0x97BC, symBinAddr: 0x10000D9D8, symSize: 0x28 }
  - { offsetInCU: 0x4F398, offset: 0x4F398, size: 0x8, addend: 0x0, symName: __ZNKSt3__112basic_stringIcNS_11char_traitsIcEENS_9allocatorIcEEE16__get_short_sizeB8ue170006Ev, symObjAddr: 0x97E4, symBinAddr: 0x10000DA00, symSize: 0x34 }
  - { offsetInCU: 0x4F3BE, offset: 0x4F3BE, size: 0x8, addend: 0x0, symName: __ZNSt3__16vectorIN5Eigen6MatrixIdLi3ELi1ELi0ELi3ELi1EEENS_9allocatorIS3_EEEC2B8ue170006Ev, symObjAddr: 0x9818, symBinAddr: 0x10000DA34, symSize: 0x4C }
  - { offsetInCU: 0x4F3E8, offset: 0x4F3E8, size: 0x8, addend: 0x0, symName: __ZNSt3__117__compressed_pairIPN5Eigen6MatrixIdLi3ELi1ELi0ELi3ELi1EEENS_9allocatorIS3_EEEC1B8ue170006IDnNS_18__default_init_tagEEEOT_OT0_, symObjAddr: 0x9864, symBinAddr: 0x10000DA80, symSize: 0x3C }
  - { offsetInCU: 0x4F440, offset: 0x4F440, size: 0x8, addend: 0x0, symName: __ZNSt3__117__compressed_pairIPN5Eigen6MatrixIdLi3ELi1ELi0ELi3ELi1EEENS_9allocatorIS3_EEEC2B8ue170006IDnNS_18__default_init_tagEEEOT_OT0_, symObjAddr: 0x98A0, symBinAddr: 0x10000DABC, symSize: 0x40 }
  - { offsetInCU: 0x4F498, offset: 0x4F498, size: 0x8, addend: 0x0, symName: __ZNSt3__122__compressed_pair_elemIPN5Eigen6MatrixIdLi3ELi1ELi0ELi3ELi1EEELi0ELb0EEC2B8ue170006IDnvEEOT_, symObjAddr: 0x98E0, symBinAddr: 0x10000DAFC, symSize: 0x1C }
  - { offsetInCU: 0x4F4DA, offset: 0x4F4DA, size: 0x8, addend: 0x0, symName: __ZNSt3__122__compressed_pair_elemINS_9allocatorIN5Eigen6MatrixIdLi3ELi1ELi0ELi3ELi1EEEEELi1ELb1EEC2B8ue170006ENS_18__default_init_tagE, symObjAddr: 0x98FC, symBinAddr: 0x10000DB18, symSize: 0x2C }
  - { offsetInCU: 0x4F50F, offset: 0x4F50F, size: 0x8, addend: 0x0, symName: __ZNSt3__19allocatorIN5Eigen6MatrixIdLi3ELi1ELi0ELi3ELi1EEEEC2B8ue170006Ev, symObjAddr: 0x9928, symBinAddr: 0x10000DB44, symSize: 0x2C }
  - { offsetInCU: 0x4F539, offset: 0x4F539, size: 0x8, addend: 0x0, symName: __ZNSt3__116__non_trivial_ifILb1ENS_9allocatorIN5Eigen6MatrixIdLi3ELi1ELi0ELi3ELi1EEEEEEC2B8ue170006Ev, symObjAddr: 0x9954, symBinAddr: 0x10000DB70, symSize: 0x14 }
  - { offsetInCU: 0x4F563, offset: 0x4F563, size: 0x8, addend: 0x0, symName: __ZNSt3__16vectorINS_5arrayIiLm2EEENS_9allocatorIS2_EEEC2B8ue170006Ev, symObjAddr: 0x9968, symBinAddr: 0x10000DB84, symSize: 0x4C }
  - { offsetInCU: 0x4F58D, offset: 0x4F58D, size: 0x8, addend: 0x0, symName: __ZNSt3__117__compressed_pairIPNS_5arrayIiLm2EEENS_9allocatorIS2_EEEC1B8ue170006IDnNS_18__default_init_tagEEEOT_OT0_, symObjAddr: 0x99B4, symBinAddr: 0x10000DBD0, symSize: 0x3C }
  - { offsetInCU: 0x4F5E5, offset: 0x4F5E5, size: 0x8, addend: 0x0, symName: __ZNSt3__117__compressed_pairIPNS_5arrayIiLm2EEENS_9allocatorIS2_EEEC2B8ue170006IDnNS_18__default_init_tagEEEOT_OT0_, symObjAddr: 0x99F0, symBinAddr: 0x10000DC0C, symSize: 0x40 }
  - { offsetInCU: 0x4F63D, offset: 0x4F63D, size: 0x8, addend: 0x0, symName: __ZNSt3__122__compressed_pair_elemINS_9allocatorINS_5arrayIiLm2EEEEELi1ELb1EEC2B8ue170006ENS_18__default_init_tagE, symObjAddr: 0x9A30, symBinAddr: 0x10000DC4C, symSize: 0x2C }
  - { offsetInCU: 0x4F672, offset: 0x4F672, size: 0x8, addend: 0x0, symName: __ZNSt3__19allocatorINS_5arrayIiLm2EEEEC2B8ue170006Ev, symObjAddr: 0x9A5C, symBinAddr: 0x10000DC78, symSize: 0x2C }
  - { offsetInCU: 0x4F69C, offset: 0x4F69C, size: 0x8, addend: 0x0, symName: __ZNSt3__116__non_trivial_ifILb1ENS_9allocatorINS_5arrayIiLm2EEEEEEC2B8ue170006Ev, symObjAddr: 0x9A88, symBinAddr: 0x10000DCA4, symSize: 0x14 }
  - { offsetInCU: 0x4F6C6, offset: 0x4F6C6, size: 0x8, addend: 0x0, symName: __ZNSt3__16vectorINS_5arrayIiLm3EEENS_9allocatorIS2_EEEC2B8ue170006Ev, symObjAddr: 0x9A9C, symBinAddr: 0x10000DCB8, symSize: 0x4C }
  - { offsetInCU: 0x4F6F0, offset: 0x4F6F0, size: 0x8, addend: 0x0, symName: __ZNSt3__117__compressed_pairIPNS_5arrayIiLm3EEENS_9allocatorIS2_EEEC1B8ue170006IDnNS_18__default_init_tagEEEOT_OT0_, symObjAddr: 0x9AE8, symBinAddr: 0x10000DD04, symSize: 0x3C }
  - { offsetInCU: 0x4F748, offset: 0x4F748, size: 0x8, addend: 0x0, symName: __ZNSt3__117__compressed_pairIPNS_5arrayIiLm3EEENS_9allocatorIS2_EEEC2B8ue170006IDnNS_18__default_init_tagEEEOT_OT0_, symObjAddr: 0x9B24, symBinAddr: 0x10000DD40, symSize: 0x40 }
  - { offsetInCU: 0x4F7A0, offset: 0x4F7A0, size: 0x8, addend: 0x0, symName: __ZNSt3__122__compressed_pair_elemIPNS_5arrayIiLm3EEELi0ELb0EEC2B8ue170006IDnvEEOT_, symObjAddr: 0x9B64, symBinAddr: 0x10000DD80, symSize: 0x1C }
  - { offsetInCU: 0x4F7E2, offset: 0x4F7E2, size: 0x8, addend: 0x0, symName: __ZNSt3__122__compressed_pair_elemINS_9allocatorINS_5arrayIiLm3EEEEELi1ELb1EEC2B8ue170006ENS_18__default_init_tagE, symObjAddr: 0x9B80, symBinAddr: 0x10000DD9C, symSize: 0x2C }
  - { offsetInCU: 0x4F817, offset: 0x4F817, size: 0x8, addend: 0x0, symName: __ZNSt3__19allocatorINS_5arrayIiLm3EEEEC2B8ue170006Ev, symObjAddr: 0x9BAC, symBinAddr: 0x10000DDC8, symSize: 0x2C }
  - { offsetInCU: 0x4F841, offset: 0x4F841, size: 0x8, addend: 0x0, symName: __ZNSt3__116__non_trivial_ifILb1ENS_9allocatorINS_5arrayIiLm3EEEEEEC2B8ue170006Ev, symObjAddr: 0x9BD8, symBinAddr: 0x10000DDF4, symSize: 0x14 }
  - { offsetInCU: 0x4F86B, offset: 0x4F86B, size: 0x8, addend: 0x0, symName: __ZNSt3__16vectorINS_5arrayIiLm5EEENS_9allocatorIS2_EEEC2B8ue170006Ev, symObjAddr: 0x9BEC, symBinAddr: 0x10000DE08, symSize: 0x4C }
  - { offsetInCU: 0x4F895, offset: 0x4F895, size: 0x8, addend: 0x0, symName: __ZNSt3__117__compressed_pairIPNS_5arrayIiLm5EEENS_9allocatorIS2_EEEC1B8ue170006IDnNS_18__default_init_tagEEEOT_OT0_, symObjAddr: 0x9C38, symBinAddr: 0x10000DE54, symSize: 0x3C }
  - { offsetInCU: 0x4F8ED, offset: 0x4F8ED, size: 0x8, addend: 0x0, symName: __ZNSt3__117__compressed_pairIPNS_5arrayIiLm5EEENS_9allocatorIS2_EEEC2B8ue170006IDnNS_18__default_init_tagEEEOT_OT0_, symObjAddr: 0x9C74, symBinAddr: 0x10000DE90, symSize: 0x40 }
  - { offsetInCU: 0x4F945, offset: 0x4F945, size: 0x8, addend: 0x0, symName: __ZNSt3__122__compressed_pair_elemIPNS_5arrayIiLm5EEELi0ELb0EEC2B8ue170006IDnvEEOT_, symObjAddr: 0x9CB4, symBinAddr: 0x10000DED0, symSize: 0x1C }
  - { offsetInCU: 0x4F987, offset: 0x4F987, size: 0x8, addend: 0x0, symName: __ZNSt3__122__compressed_pair_elemINS_9allocatorINS_5arrayIiLm5EEEEELi1ELb1EEC2B8ue170006ENS_18__default_init_tagE, symObjAddr: 0x9CD0, symBinAddr: 0x10000DEEC, symSize: 0x2C }
  - { offsetInCU: 0x4F9BC, offset: 0x4F9BC, size: 0x8, addend: 0x0, symName: __ZNSt3__19allocatorINS_5arrayIiLm5EEEEC2B8ue170006Ev, symObjAddr: 0x9CFC, symBinAddr: 0x10000DF18, symSize: 0x2C }
  - { offsetInCU: 0x4F9E6, offset: 0x4F9E6, size: 0x8, addend: 0x0, symName: __ZNSt3__116__non_trivial_ifILb1ENS_9allocatorINS_5arrayIiLm5EEEEEEC2B8ue170006Ev, symObjAddr: 0x9D28, symBinAddr: 0x10000DF44, symSize: 0x14 }
  - { offsetInCU: 0x4FA10, offset: 0x4FA10, size: 0x8, addend: 0x0, symName: __ZNSt3__16vectorINS_5arrayIiLm4EEENS_9allocatorIS2_EEEC2B8ue170006Ev, symObjAddr: 0x9D3C, symBinAddr: 0x10000DF58, symSize: 0x4C }
  - { offsetInCU: 0x4FA3A, offset: 0x4FA3A, size: 0x8, addend: 0x0, symName: __ZNSt3__117__compressed_pairIPNS_5arrayIiLm4EEENS_9allocatorIS2_EEEC1B8ue170006IDnNS_18__default_init_tagEEEOT_OT0_, symObjAddr: 0x9D88, symBinAddr: 0x10000DFA4, symSize: 0x3C }
  - { offsetInCU: 0x4FA92, offset: 0x4FA92, size: 0x8, addend: 0x0, symName: __ZNSt3__117__compressed_pairIPNS_5arrayIiLm4EEENS_9allocatorIS2_EEEC2B8ue170006IDnNS_18__default_init_tagEEEOT_OT0_, symObjAddr: 0x9DC4, symBinAddr: 0x10000DFE0, symSize: 0x40 }
  - { offsetInCU: 0x4FAEA, offset: 0x4FAEA, size: 0x8, addend: 0x0, symName: __ZNSt3__122__compressed_pair_elemIPNS_5arrayIiLm4EEELi0ELb0EEC2B8ue170006IDnvEEOT_, symObjAddr: 0x9E04, symBinAddr: 0x10000E020, symSize: 0x1C }
  - { offsetInCU: 0x4FB2C, offset: 0x4FB2C, size: 0x8, addend: 0x0, symName: __ZNSt3__122__compressed_pair_elemINS_9allocatorINS_5arrayIiLm4EEEEELi1ELb1EEC2B8ue170006ENS_18__default_init_tagE, symObjAddr: 0x9E20, symBinAddr: 0x10000E03C, symSize: 0x2C }
  - { offsetInCU: 0x4FB61, offset: 0x4FB61, size: 0x8, addend: 0x0, symName: __ZNSt3__19allocatorINS_5arrayIiLm4EEEEC2B8ue170006Ev, symObjAddr: 0x9E4C, symBinAddr: 0x10000E068, symSize: 0x2C }
  - { offsetInCU: 0x4FB8B, offset: 0x4FB8B, size: 0x8, addend: 0x0, symName: __ZNSt3__116__non_trivial_ifILb1ENS_9allocatorINS_5arrayIiLm4EEEEEEC2B8ue170006Ev, symObjAddr: 0x9E78, symBinAddr: 0x10000E094, symSize: 0x14 }
  - { offsetInCU: 0x4FBB5, offset: 0x4FBB5, size: 0x8, addend: 0x0, symName: __ZNSt3__16vectorIdNS_9allocatorIdEEEC2B8ue170006Ev, symObjAddr: 0x9E8C, symBinAddr: 0x10000E0A8, symSize: 0x4C }
  - { offsetInCU: 0x4FBDF, offset: 0x4FBDF, size: 0x8, addend: 0x0, symName: __ZNSt3__117__compressed_pairIPdNS_9allocatorIdEEEC1B8ue170006IDnNS_18__default_init_tagEEEOT_OT0_, symObjAddr: 0x9ED8, symBinAddr: 0x10000E0F4, symSize: 0x3C }
  - { offsetInCU: 0x4FC37, offset: 0x4FC37, size: 0x8, addend: 0x0, symName: __ZNSt3__117__compressed_pairIPdNS_9allocatorIdEEEC2B8ue170006IDnNS_18__default_init_tagEEEOT_OT0_, symObjAddr: 0x9F14, symBinAddr: 0x10000E130, symSize: 0x40 }
  - { offsetInCU: 0x4FC8F, offset: 0x4FC8F, size: 0x8, addend: 0x0, symName: __ZNSt3__122__compressed_pair_elemIPdLi0ELb0EEC2B8ue170006IDnvEEOT_, symObjAddr: 0x9F54, symBinAddr: 0x10000E170, symSize: 0x1C }
  - { offsetInCU: 0x4FCD1, offset: 0x4FCD1, size: 0x8, addend: 0x0, symName: __ZNSt3__122__compressed_pair_elemINS_9allocatorIdEELi1ELb1EEC2B8ue170006ENS_18__default_init_tagE, symObjAddr: 0x9F70, symBinAddr: 0x10000E18C, symSize: 0x2C }
  - { offsetInCU: 0x4FD06, offset: 0x4FD06, size: 0x8, addend: 0x0, symName: __ZNSt3__19allocatorIdEC2B8ue170006Ev, symObjAddr: 0x9F9C, symBinAddr: 0x10000E1B8, symSize: 0x2C }
  - { offsetInCU: 0x4FD30, offset: 0x4FD30, size: 0x8, addend: 0x0, symName: __ZNSt3__116__non_trivial_ifILb1ENS_9allocatorIdEEEC2B8ue170006Ev, symObjAddr: 0x9FC8, symBinAddr: 0x10000E1E4, symSize: 0x14 }
  - { offsetInCU: 0x4FD5A, offset: 0x4FD5A, size: 0x8, addend: 0x0, symName: __ZNSt3__16vectorIiNS_9allocatorIiEEEC2B8ue170006Ev, symObjAddr: 0x9FDC, symBinAddr: 0x10000E1F8, symSize: 0x4C }
  - { offsetInCU: 0x4FD84, offset: 0x4FD84, size: 0x8, addend: 0x0, symName: __ZNSt3__117__compressed_pairIPiNS_9allocatorIiEEEC1B8ue170006IDnNS_18__default_init_tagEEEOT_OT0_, symObjAddr: 0xA028, symBinAddr: 0x10000E244, symSize: 0x3C }
  - { offsetInCU: 0x4FDDC, offset: 0x4FDDC, size: 0x8, addend: 0x0, symName: __ZNSt3__117__compressed_pairIPiNS_9allocatorIiEEEC2B8ue170006IDnNS_18__default_init_tagEEEOT_OT0_, symObjAddr: 0xA064, symBinAddr: 0x10000E280, symSize: 0x40 }
  - { offsetInCU: 0x4FE34, offset: 0x4FE34, size: 0x8, addend: 0x0, symName: __ZNSt3__122__compressed_pair_elemIPiLi0ELb0EEC2B8ue170006IDnvEEOT_, symObjAddr: 0xA0A4, symBinAddr: 0x10000E2C0, symSize: 0x1C }
  - { offsetInCU: 0x4FE76, offset: 0x4FE76, size: 0x8, addend: 0x0, symName: __ZNSt3__122__compressed_pair_elemINS_9allocatorIiEELi1ELb1EEC2B8ue170006ENS_18__default_init_tagE, symObjAddr: 0xA0C0, symBinAddr: 0x10000E2DC, symSize: 0x2C }
  - { offsetInCU: 0x4FEAB, offset: 0x4FEAB, size: 0x8, addend: 0x0, symName: __ZNSt3__19allocatorIiEC2B8ue170006Ev, symObjAddr: 0xA0EC, symBinAddr: 0x10000E308, symSize: 0x2C }
  - { offsetInCU: 0x4FED5, offset: 0x4FED5, size: 0x8, addend: 0x0, symName: __ZNSt3__116__non_trivial_ifILb1ENS_9allocatorIiEEEC2B8ue170006Ev, symObjAddr: 0xA118, symBinAddr: 0x10000E334, symSize: 0x14 }
  - { offsetInCU: 0x4FEFF, offset: 0x4FEFF, size: 0x8, addend: 0x0, symName: __ZNSt3__16vectorIN5Eigen6MatrixIdLi3ELi1ELi0ELi3ELi1EEENS_9allocatorIS3_EEED2B8ue170006Ev, symObjAddr: 0xA12C, symBinAddr: 0x10000E348, symSize: 0x44 }
  - { offsetInCU: 0x4FF29, offset: 0x4FF29, size: 0x8, addend: 0x0, symName: __ZNSt3__16vectorIN5Eigen6MatrixIdLi3ELi1ELi0ELi3ELi1EEENS_9allocatorIS3_EEE16__destroy_vectorC1B8ue170006ERS6_, symObjAddr: 0xA170, symBinAddr: 0x10000E38C, symSize: 0x34 }
  - { offsetInCU: 0x4FF62, offset: 0x4FF62, size: 0x8, addend: 0x0, symName: __ZNSt3__16vectorIN5Eigen6MatrixIdLi3ELi1ELi0ELi3ELi1EEENS_9allocatorIS3_EEE16__destroy_vectorclB8ue170006Ev, symObjAddr: 0xA1A4, symBinAddr: 0x10000E3C0, symSize: 0x90 }
  - { offsetInCU: 0x4FF88, offset: 0x4FF88, size: 0x8, addend: 0x0, symName: __ZNSt3__16vectorIN5Eigen6MatrixIdLi3ELi1ELi0ELi3ELi1EEENS_9allocatorIS3_EEE16__destroy_vectorC2B8ue170006ERS6_, symObjAddr: 0xA234, symBinAddr: 0x10000E450, symSize: 0x20 }
  - { offsetInCU: 0x4FFC1, offset: 0x4FFC1, size: 0x8, addend: 0x0, symName: __ZNSt3__16vectorIN5Eigen6MatrixIdLi3ELi1ELi0ELi3ELi1EEENS_9allocatorIS3_EEE7__clearB8ue170006Ev, symObjAddr: 0xA254, symBinAddr: 0x10000E470, symSize: 0x28 }
  - { offsetInCU: 0x4FFE7, offset: 0x4FFE7, size: 0x8, addend: 0x0, symName: __ZNKSt3__16vectorIN5Eigen6MatrixIdLi3ELi1ELi0ELi3ELi1EEENS_9allocatorIS3_EEE17__annotate_deleteB8ue170006Ev, symObjAddr: 0xA27C, symBinAddr: 0x10000E498, symSize: 0xD4 }
  - { offsetInCU: 0x5000D, offset: 0x5000D, size: 0x8, addend: 0x0, symName: __ZNSt3__116allocator_traitsINS_9allocatorIN5Eigen6MatrixIdLi3ELi1ELi0ELi3ELi1EEEEEE10deallocateB8ue170006ERS5_PS4_m, symObjAddr: 0xA350, symBinAddr: 0x10000E56C, symSize: 0x34 }
  - { offsetInCU: 0x5004F, offset: 0x5004F, size: 0x8, addend: 0x0, symName: __ZNSt3__16vectorIN5Eigen6MatrixIdLi3ELi1ELi0ELi3ELi1EEENS_9allocatorIS3_EEE7__allocB8ue170006Ev, symObjAddr: 0xA384, symBinAddr: 0x10000E5A0, symSize: 0x28 }
  - { offsetInCU: 0x50075, offset: 0x50075, size: 0x8, addend: 0x0, symName: __ZNKSt3__16vectorIN5Eigen6MatrixIdLi3ELi1ELi0ELi3ELi1EEENS_9allocatorIS3_EEE8capacityB8ue170006Ev, symObjAddr: 0xA3AC, symBinAddr: 0x10000E5C8, symSize: 0x40 }
  - { offsetInCU: 0x5009B, offset: 0x5009B, size: 0x8, addend: 0x0, symName: __ZNSt3__16vectorIN5Eigen6MatrixIdLi3ELi1ELi0ELi3ELi1EEENS_9allocatorIS3_EEE22__base_destruct_at_endB8ue170006EPS3_, symObjAddr: 0xA3EC, symBinAddr: 0x10000E608, symSize: 0x8C }
  - { offsetInCU: 0x500DF, offset: 0x500DF, size: 0x8, addend: 0x0, symName: __ZNSt3__116allocator_traitsINS_9allocatorIN5Eigen6MatrixIdLi3ELi1ELi0ELi3ELi1EEEEEE7destroyB8ue170006IS4_vEEvRS5_PT_, symObjAddr: 0xA478, symBinAddr: 0x10000E694, symSize: 0x2C }
  - { offsetInCU: 0x5011C, offset: 0x5011C, size: 0x8, addend: 0x0, symName: __ZNSt3__19allocatorIN5Eigen6MatrixIdLi3ELi1ELi0ELi3ELi1EEEE7destroyB8ue170006EPS3_, symObjAddr: 0xA4B8, symBinAddr: 0x10000E6D4, symSize: 0x14 }
  - { offsetInCU: 0x50150, offset: 0x50150, size: 0x8, addend: 0x0, symName: __ZNKSt3__16vectorIN5Eigen6MatrixIdLi3ELi1ELi0ELi3ELi1EEENS_9allocatorIS3_EEE31__annotate_contiguous_containerB8ue170006EPKvS8_S8_S8_, symObjAddr: 0xA4CC, symBinAddr: 0x10000E6E8, symSize: 0x20 }
  - { offsetInCU: 0x501A2, offset: 0x501A2, size: 0x8, addend: 0x0, symName: __ZNKSt3__16vectorIN5Eigen6MatrixIdLi3ELi1ELi0ELi3ELi1EEENS_9allocatorIS3_EEE4dataB8ue170006Ev, symObjAddr: 0xA4EC, symBinAddr: 0x10000E708, symSize: 0x28 }
  - { offsetInCU: 0x501C8, offset: 0x501C8, size: 0x8, addend: 0x0, symName: __ZNSt3__19allocatorIN5Eigen6MatrixIdLi3ELi1ELi0ELi3ELi1EEEE10deallocateB8ue170006EPS3_m, symObjAddr: 0xA514, symBinAddr: 0x10000E730, symSize: 0x44 }
  - { offsetInCU: 0x5020A, offset: 0x5020A, size: 0x8, addend: 0x0, symName: __ZNSt3__117__compressed_pairIPN5Eigen6MatrixIdLi3ELi1ELi0ELi3ELi1EEENS_9allocatorIS3_EEE6secondB8ue170006Ev, symObjAddr: 0xA558, symBinAddr: 0x10000E774, symSize: 0x24 }
  - { offsetInCU: 0x50230, offset: 0x50230, size: 0x8, addend: 0x0, symName: __ZNSt3__122__compressed_pair_elemINS_9allocatorIN5Eigen6MatrixIdLi3ELi1ELi0ELi3ELi1EEEEELi1ELb1EE5__getB8ue170006Ev, symObjAddr: 0xA57C, symBinAddr: 0x10000E798, symSize: 0x14 }
  - { offsetInCU: 0x50256, offset: 0x50256, size: 0x8, addend: 0x0, symName: __ZNKSt3__16vectorIN5Eigen6MatrixIdLi3ELi1ELi0ELi3ELi1EEENS_9allocatorIS3_EEE9__end_capB8ue170006Ev, symObjAddr: 0xA590, symBinAddr: 0x10000E7AC, symSize: 0x28 }
  - { offsetInCU: 0x5027C, offset: 0x5027C, size: 0x8, addend: 0x0, symName: __ZNKSt3__117__compressed_pairIPN5Eigen6MatrixIdLi3ELi1ELi0ELi3ELi1EEENS_9allocatorIS3_EEE5firstB8ue170006Ev, symObjAddr: 0xA5B8, symBinAddr: 0x10000E7D4, symSize: 0x24 }
  - { offsetInCU: 0x502A2, offset: 0x502A2, size: 0x8, addend: 0x0, symName: __ZNKSt3__122__compressed_pair_elemIPN5Eigen6MatrixIdLi3ELi1ELi0ELi3ELi1EEELi0ELb0EE5__getB8ue170006Ev, symObjAddr: 0xA5DC, symBinAddr: 0x10000E7F8, symSize: 0x14 }
  - { offsetInCU: 0x502C8, offset: 0x502C8, size: 0x8, addend: 0x0, symName: __ZNSt3__16vectorINS_5arrayIiLm2EEENS_9allocatorIS2_EEED2B8ue170006Ev, symObjAddr: 0xA5F0, symBinAddr: 0x10000E80C, symSize: 0x40 }
  - { offsetInCU: 0x502F2, offset: 0x502F2, size: 0x8, addend: 0x0, symName: __ZNSt3__16vectorINS_5arrayIiLm3EEENS_9allocatorIS2_EEED2B8ue170006Ev, symObjAddr: 0xA630, symBinAddr: 0x10000E84C, symSize: 0x44 }
  - { offsetInCU: 0x5031C, offset: 0x5031C, size: 0x8, addend: 0x0, symName: __ZNSt3__16vectorINS_5arrayIiLm3EEENS_9allocatorIS2_EEE16__destroy_vectorC1B8ue170006ERS5_, symObjAddr: 0xA674, symBinAddr: 0x10000E890, symSize: 0x34 }
  - { offsetInCU: 0x50355, offset: 0x50355, size: 0x8, addend: 0x0, symName: __ZNSt3__16vectorINS_5arrayIiLm3EEENS_9allocatorIS2_EEE16__destroy_vectorclB8ue170006Ev, symObjAddr: 0xA6A8, symBinAddr: 0x10000E8C4, symSize: 0x90 }
  - { offsetInCU: 0x5037B, offset: 0x5037B, size: 0x8, addend: 0x0, symName: __ZNSt3__16vectorINS_5arrayIiLm3EEENS_9allocatorIS2_EEE16__destroy_vectorC2B8ue170006ERS5_, symObjAddr: 0xA738, symBinAddr: 0x10000E954, symSize: 0x20 }
  - { offsetInCU: 0x503B4, offset: 0x503B4, size: 0x8, addend: 0x0, symName: __ZNSt3__16vectorINS_5arrayIiLm3EEENS_9allocatorIS2_EEE7__clearB8ue170006Ev, symObjAddr: 0xA758, symBinAddr: 0x10000E974, symSize: 0x28 }
  - { offsetInCU: 0x503DA, offset: 0x503DA, size: 0x8, addend: 0x0, symName: __ZNKSt3__16vectorINS_5arrayIiLm3EEENS_9allocatorIS2_EEE17__annotate_deleteB8ue170006Ev, symObjAddr: 0xA780, symBinAddr: 0x10000E99C, symSize: 0xD4 }
  - { offsetInCU: 0x50400, offset: 0x50400, size: 0x8, addend: 0x0, symName: __ZNSt3__116allocator_traitsINS_9allocatorINS_5arrayIiLm3EEEEEE10deallocateB8ue170006ERS4_PS3_m, symObjAddr: 0xA854, symBinAddr: 0x10000EA70, symSize: 0x34 }
  - { offsetInCU: 0x50442, offset: 0x50442, size: 0x8, addend: 0x0, symName: __ZNSt3__16vectorINS_5arrayIiLm3EEENS_9allocatorIS2_EEE7__allocB8ue170006Ev, symObjAddr: 0xA888, symBinAddr: 0x10000EAA4, symSize: 0x28 }
  - { offsetInCU: 0x50468, offset: 0x50468, size: 0x8, addend: 0x0, symName: __ZNKSt3__16vectorINS_5arrayIiLm3EEENS_9allocatorIS2_EEE8capacityB8ue170006Ev, symObjAddr: 0xA8B0, symBinAddr: 0x10000EACC, symSize: 0x40 }
  - { offsetInCU: 0x5048E, offset: 0x5048E, size: 0x8, addend: 0x0, symName: __ZNSt3__16vectorINS_5arrayIiLm3EEENS_9allocatorIS2_EEE22__base_destruct_at_endB8ue170006EPS2_, symObjAddr: 0xA8F0, symBinAddr: 0x10000EB0C, symSize: 0x8C }
  - { offsetInCU: 0x504D2, offset: 0x504D2, size: 0x8, addend: 0x0, symName: __ZNSt3__116allocator_traitsINS_9allocatorINS_5arrayIiLm3EEEEEE7destroyB8ue170006IS3_vEEvRS4_PT_, symObjAddr: 0xA97C, symBinAddr: 0x10000EB98, symSize: 0x2C }
  - { offsetInCU: 0x5050F, offset: 0x5050F, size: 0x8, addend: 0x0, symName: __ZNSt3__19allocatorINS_5arrayIiLm3EEEE7destroyB8ue170006EPS2_, symObjAddr: 0xA9BC, symBinAddr: 0x10000EBD8, symSize: 0x14 }
  - { offsetInCU: 0x50543, offset: 0x50543, size: 0x8, addend: 0x0, symName: __ZNKSt3__16vectorINS_5arrayIiLm3EEENS_9allocatorIS2_EEE31__annotate_contiguous_containerB8ue170006EPKvS7_S7_S7_, symObjAddr: 0xA9D0, symBinAddr: 0x10000EBEC, symSize: 0x20 }
  - { offsetInCU: 0x50595, offset: 0x50595, size: 0x8, addend: 0x0, symName: __ZNKSt3__16vectorINS_5arrayIiLm3EEENS_9allocatorIS2_EEE4dataB8ue170006Ev, symObjAddr: 0xA9F0, symBinAddr: 0x10000EC0C, symSize: 0x28 }
  - { offsetInCU: 0x505BB, offset: 0x505BB, size: 0x8, addend: 0x0, symName: __ZNSt3__19allocatorINS_5arrayIiLm3EEEE10deallocateB8ue170006EPS2_m, symObjAddr: 0xAA18, symBinAddr: 0x10000EC34, symSize: 0x44 }
  - { offsetInCU: 0x505FD, offset: 0x505FD, size: 0x8, addend: 0x0, symName: __ZNSt3__117__compressed_pairIPNS_5arrayIiLm3EEENS_9allocatorIS2_EEE6secondB8ue170006Ev, symObjAddr: 0xAA5C, symBinAddr: 0x10000EC78, symSize: 0x24 }
  - { offsetInCU: 0x50623, offset: 0x50623, size: 0x8, addend: 0x0, symName: __ZNSt3__122__compressed_pair_elemINS_9allocatorINS_5arrayIiLm3EEEEELi1ELb1EE5__getB8ue170006Ev, symObjAddr: 0xAA80, symBinAddr: 0x10000EC9C, symSize: 0x14 }
  - { offsetInCU: 0x50649, offset: 0x50649, size: 0x8, addend: 0x0, symName: __ZNKSt3__16vectorINS_5arrayIiLm3EEENS_9allocatorIS2_EEE9__end_capB8ue170006Ev, symObjAddr: 0xAA94, symBinAddr: 0x10000ECB0, symSize: 0x28 }
  - { offsetInCU: 0x5066F, offset: 0x5066F, size: 0x8, addend: 0x0, symName: __ZNKSt3__117__compressed_pairIPNS_5arrayIiLm3EEENS_9allocatorIS2_EEE5firstB8ue170006Ev, symObjAddr: 0xAABC, symBinAddr: 0x10000ECD8, symSize: 0x24 }
  - { offsetInCU: 0x50695, offset: 0x50695, size: 0x8, addend: 0x0, symName: __ZNKSt3__122__compressed_pair_elemIPNS_5arrayIiLm3EEELi0ELb0EE5__getB8ue170006Ev, symObjAddr: 0xAAE0, symBinAddr: 0x10000ECFC, symSize: 0x14 }
  - { offsetInCU: 0x506BB, offset: 0x506BB, size: 0x8, addend: 0x0, symName: __ZNSt3__16vectorINS_5arrayIiLm5EEENS_9allocatorIS2_EEED2B8ue170006Ev, symObjAddr: 0xAAF4, symBinAddr: 0x10000ED10, symSize: 0x44 }
  - { offsetInCU: 0x506E5, offset: 0x506E5, size: 0x8, addend: 0x0, symName: __ZNSt3__16vectorINS_5arrayIiLm5EEENS_9allocatorIS2_EEE16__destroy_vectorC1B8ue170006ERS5_, symObjAddr: 0xAB38, symBinAddr: 0x10000ED54, symSize: 0x34 }
  - { offsetInCU: 0x5071E, offset: 0x5071E, size: 0x8, addend: 0x0, symName: __ZNSt3__16vectorINS_5arrayIiLm5EEENS_9allocatorIS2_EEE16__destroy_vectorclB8ue170006Ev, symObjAddr: 0xAB6C, symBinAddr: 0x10000ED88, symSize: 0x90 }
  - { offsetInCU: 0x50744, offset: 0x50744, size: 0x8, addend: 0x0, symName: __ZNSt3__16vectorINS_5arrayIiLm5EEENS_9allocatorIS2_EEE16__destroy_vectorC2B8ue170006ERS5_, symObjAddr: 0xABFC, symBinAddr: 0x10000EE18, symSize: 0x20 }
  - { offsetInCU: 0x5077D, offset: 0x5077D, size: 0x8, addend: 0x0, symName: __ZNSt3__16vectorINS_5arrayIiLm5EEENS_9allocatorIS2_EEE7__clearB8ue170006Ev, symObjAddr: 0xAC1C, symBinAddr: 0x10000EE38, symSize: 0x28 }
  - { offsetInCU: 0x507A3, offset: 0x507A3, size: 0x8, addend: 0x0, symName: __ZNKSt3__16vectorINS_5arrayIiLm5EEENS_9allocatorIS2_EEE17__annotate_deleteB8ue170006Ev, symObjAddr: 0xAC44, symBinAddr: 0x10000EE60, symSize: 0xD4 }
  - { offsetInCU: 0x507C9, offset: 0x507C9, size: 0x8, addend: 0x0, symName: __ZNSt3__116allocator_traitsINS_9allocatorINS_5arrayIiLm5EEEEEE10deallocateB8ue170006ERS4_PS3_m, symObjAddr: 0xAD18, symBinAddr: 0x10000EF34, symSize: 0x34 }
  - { offsetInCU: 0x5080B, offset: 0x5080B, size: 0x8, addend: 0x0, symName: __ZNSt3__16vectorINS_5arrayIiLm5EEENS_9allocatorIS2_EEE7__allocB8ue170006Ev, symObjAddr: 0xAD4C, symBinAddr: 0x10000EF68, symSize: 0x28 }
  - { offsetInCU: 0x50831, offset: 0x50831, size: 0x8, addend: 0x0, symName: __ZNKSt3__16vectorINS_5arrayIiLm5EEENS_9allocatorIS2_EEE8capacityB8ue170006Ev, symObjAddr: 0xAD74, symBinAddr: 0x10000EF90, symSize: 0x40 }
  - { offsetInCU: 0x50857, offset: 0x50857, size: 0x8, addend: 0x0, symName: __ZNSt3__16vectorINS_5arrayIiLm5EEENS_9allocatorIS2_EEE22__base_destruct_at_endB8ue170006EPS2_, symObjAddr: 0xADB4, symBinAddr: 0x10000EFD0, symSize: 0x8C }
  - { offsetInCU: 0x5089B, offset: 0x5089B, size: 0x8, addend: 0x0, symName: __ZNSt3__116allocator_traitsINS_9allocatorINS_5arrayIiLm5EEEEEE7destroyB8ue170006IS3_vEEvRS4_PT_, symObjAddr: 0xAE40, symBinAddr: 0x10000F05C, symSize: 0x2C }
  - { offsetInCU: 0x508D8, offset: 0x508D8, size: 0x8, addend: 0x0, symName: __ZNSt3__19allocatorINS_5arrayIiLm5EEEE7destroyB8ue170006EPS2_, symObjAddr: 0xAE80, symBinAddr: 0x10000F09C, symSize: 0x14 }
  - { offsetInCU: 0x5090C, offset: 0x5090C, size: 0x8, addend: 0x0, symName: __ZNKSt3__16vectorINS_5arrayIiLm5EEENS_9allocatorIS2_EEE31__annotate_contiguous_containerB8ue170006EPKvS7_S7_S7_, symObjAddr: 0xAE94, symBinAddr: 0x10000F0B0, symSize: 0x20 }
  - { offsetInCU: 0x5095E, offset: 0x5095E, size: 0x8, addend: 0x0, symName: __ZNKSt3__16vectorINS_5arrayIiLm5EEENS_9allocatorIS2_EEE4dataB8ue170006Ev, symObjAddr: 0xAEB4, symBinAddr: 0x10000F0D0, symSize: 0x28 }
  - { offsetInCU: 0x50984, offset: 0x50984, size: 0x8, addend: 0x0, symName: __ZNKSt3__16vectorINS_5arrayIiLm5EEENS_9allocatorIS2_EEE4sizeB8ue170006Ev, symObjAddr: 0xAEDC, symBinAddr: 0x10000F0F8, symSize: 0x28 }
  - { offsetInCU: 0x509AA, offset: 0x509AA, size: 0x8, addend: 0x0, symName: __ZNSt3__19allocatorINS_5arrayIiLm5EEEE10deallocateB8ue170006EPS2_m, symObjAddr: 0xAF04, symBinAddr: 0x10000F120, symSize: 0x44 }
  - { offsetInCU: 0x509EC, offset: 0x509EC, size: 0x8, addend: 0x0, symName: __ZNSt3__117__compressed_pairIPNS_5arrayIiLm5EEENS_9allocatorIS2_EEE6secondB8ue170006Ev, symObjAddr: 0xAF48, symBinAddr: 0x10000F164, symSize: 0x24 }
  - { offsetInCU: 0x50A12, offset: 0x50A12, size: 0x8, addend: 0x0, symName: __ZNSt3__122__compressed_pair_elemINS_9allocatorINS_5arrayIiLm5EEEEELi1ELb1EE5__getB8ue170006Ev, symObjAddr: 0xAF6C, symBinAddr: 0x10000F188, symSize: 0x14 }
  - { offsetInCU: 0x50A38, offset: 0x50A38, size: 0x8, addend: 0x0, symName: __ZNKSt3__16vectorINS_5arrayIiLm5EEENS_9allocatorIS2_EEE9__end_capB8ue170006Ev, symObjAddr: 0xAF80, symBinAddr: 0x10000F19C, symSize: 0x28 }
  - { offsetInCU: 0x50A5E, offset: 0x50A5E, size: 0x8, addend: 0x0, symName: __ZNKSt3__117__compressed_pairIPNS_5arrayIiLm5EEENS_9allocatorIS2_EEE5firstB8ue170006Ev, symObjAddr: 0xAFA8, symBinAddr: 0x10000F1C4, symSize: 0x24 }
  - { offsetInCU: 0x50A84, offset: 0x50A84, size: 0x8, addend: 0x0, symName: __ZNKSt3__122__compressed_pair_elemIPNS_5arrayIiLm5EEELi0ELb0EE5__getB8ue170006Ev, symObjAddr: 0xAFCC, symBinAddr: 0x10000F1E8, symSize: 0x14 }
  - { offsetInCU: 0x50AAA, offset: 0x50AAA, size: 0x8, addend: 0x0, symName: __ZNSt3__16vectorINS_5arrayIiLm4EEENS_9allocatorIS2_EEED2B8ue170006Ev, symObjAddr: 0xAFE0, symBinAddr: 0x10000F1FC, symSize: 0x44 }
  - { offsetInCU: 0x50AD4, offset: 0x50AD4, size: 0x8, addend: 0x0, symName: __ZNSt3__16vectorINS_5arrayIiLm4EEENS_9allocatorIS2_EEE16__destroy_vectorC1B8ue170006ERS5_, symObjAddr: 0xB024, symBinAddr: 0x10000F240, symSize: 0x34 }
  - { offsetInCU: 0x50B0D, offset: 0x50B0D, size: 0x8, addend: 0x0, symName: __ZNSt3__16vectorINS_5arrayIiLm4EEENS_9allocatorIS2_EEE16__destroy_vectorclB8ue170006Ev, symObjAddr: 0xB058, symBinAddr: 0x10000F274, symSize: 0x90 }
  - { offsetInCU: 0x50B33, offset: 0x50B33, size: 0x8, addend: 0x0, symName: __ZNSt3__16vectorINS_5arrayIiLm4EEENS_9allocatorIS2_EEE16__destroy_vectorC2B8ue170006ERS5_, symObjAddr: 0xB0E8, symBinAddr: 0x10000F304, symSize: 0x20 }
  - { offsetInCU: 0x50B6C, offset: 0x50B6C, size: 0x8, addend: 0x0, symName: __ZNSt3__16vectorINS_5arrayIiLm4EEENS_9allocatorIS2_EEE7__clearB8ue170006Ev, symObjAddr: 0xB108, symBinAddr: 0x10000F324, symSize: 0x28 }
  - { offsetInCU: 0x50B92, offset: 0x50B92, size: 0x8, addend: 0x0, symName: __ZNKSt3__16vectorINS_5arrayIiLm4EEENS_9allocatorIS2_EEE17__annotate_deleteB8ue170006Ev, symObjAddr: 0xB130, symBinAddr: 0x10000F34C, symSize: 0xB8 }
  - { offsetInCU: 0x50BB8, offset: 0x50BB8, size: 0x8, addend: 0x0, symName: __ZNSt3__116allocator_traitsINS_9allocatorINS_5arrayIiLm4EEEEEE10deallocateB8ue170006ERS4_PS3_m, symObjAddr: 0xB1E8, symBinAddr: 0x10000F404, symSize: 0x34 }
  - { offsetInCU: 0x50BFA, offset: 0x50BFA, size: 0x8, addend: 0x0, symName: __ZNSt3__16vectorINS_5arrayIiLm4EEENS_9allocatorIS2_EEE7__allocB8ue170006Ev, symObjAddr: 0xB21C, symBinAddr: 0x10000F438, symSize: 0x28 }
  - { offsetInCU: 0x50C20, offset: 0x50C20, size: 0x8, addend: 0x0, symName: __ZNKSt3__16vectorINS_5arrayIiLm4EEENS_9allocatorIS2_EEE8capacityB8ue170006Ev, symObjAddr: 0xB244, symBinAddr: 0x10000F460, symSize: 0x40 }
  - { offsetInCU: 0x50C46, offset: 0x50C46, size: 0x8, addend: 0x0, symName: __ZNSt3__16vectorINS_5arrayIiLm4EEENS_9allocatorIS2_EEE22__base_destruct_at_endB8ue170006EPS2_, symObjAddr: 0xB284, symBinAddr: 0x10000F4A0, symSize: 0x8C }
  - { offsetInCU: 0x50C8A, offset: 0x50C8A, size: 0x8, addend: 0x0, symName: __ZNSt3__116allocator_traitsINS_9allocatorINS_5arrayIiLm4EEEEEE7destroyB8ue170006IS3_vEEvRS4_PT_, symObjAddr: 0xB310, symBinAddr: 0x10000F52C, symSize: 0x2C }
  - { offsetInCU: 0x50CC7, offset: 0x50CC7, size: 0x8, addend: 0x0, symName: __ZNSt3__19allocatorINS_5arrayIiLm4EEEE7destroyB8ue170006EPS2_, symObjAddr: 0xB350, symBinAddr: 0x10000F56C, symSize: 0x14 }
  - { offsetInCU: 0x50CFB, offset: 0x50CFB, size: 0x8, addend: 0x0, symName: __ZNKSt3__16vectorINS_5arrayIiLm4EEENS_9allocatorIS2_EEE31__annotate_contiguous_containerB8ue170006EPKvS7_S7_S7_, symObjAddr: 0xB364, symBinAddr: 0x10000F580, symSize: 0x20 }
  - { offsetInCU: 0x50D4D, offset: 0x50D4D, size: 0x8, addend: 0x0, symName: __ZNKSt3__16vectorINS_5arrayIiLm4EEENS_9allocatorIS2_EEE4dataB8ue170006Ev, symObjAddr: 0xB384, symBinAddr: 0x10000F5A0, symSize: 0x28 }
  - { offsetInCU: 0x50D73, offset: 0x50D73, size: 0x8, addend: 0x0, symName: __ZNKSt3__16vectorINS_5arrayIiLm4EEENS_9allocatorIS2_EEE4sizeB8ue170006Ev, symObjAddr: 0xB3AC, symBinAddr: 0x10000F5C8, symSize: 0x28 }
  - { offsetInCU: 0x50D99, offset: 0x50D99, size: 0x8, addend: 0x0, symName: __ZNSt3__19allocatorINS_5arrayIiLm4EEEE10deallocateB8ue170006EPS2_m, symObjAddr: 0xB3D4, symBinAddr: 0x10000F5F0, symSize: 0x40 }
  - { offsetInCU: 0x50DDB, offset: 0x50DDB, size: 0x8, addend: 0x0, symName: __ZNSt3__117__compressed_pairIPNS_5arrayIiLm4EEENS_9allocatorIS2_EEE6secondB8ue170006Ev, symObjAddr: 0xB414, symBinAddr: 0x10000F630, symSize: 0x24 }
  - { offsetInCU: 0x50E01, offset: 0x50E01, size: 0x8, addend: 0x0, symName: __ZNSt3__122__compressed_pair_elemINS_9allocatorINS_5arrayIiLm4EEEEELi1ELb1EE5__getB8ue170006Ev, symObjAddr: 0xB438, symBinAddr: 0x10000F654, symSize: 0x14 }
  - { offsetInCU: 0x50E27, offset: 0x50E27, size: 0x8, addend: 0x0, symName: __ZNKSt3__16vectorINS_5arrayIiLm4EEENS_9allocatorIS2_EEE9__end_capB8ue170006Ev, symObjAddr: 0xB44C, symBinAddr: 0x10000F668, symSize: 0x28 }
  - { offsetInCU: 0x50E4D, offset: 0x50E4D, size: 0x8, addend: 0x0, symName: __ZNKSt3__117__compressed_pairIPNS_5arrayIiLm4EEENS_9allocatorIS2_EEE5firstB8ue170006Ev, symObjAddr: 0xB474, symBinAddr: 0x10000F690, symSize: 0x24 }
  - { offsetInCU: 0x50E73, offset: 0x50E73, size: 0x8, addend: 0x0, symName: __ZNKSt3__122__compressed_pair_elemIPNS_5arrayIiLm4EEELi0ELb0EE5__getB8ue170006Ev, symObjAddr: 0xB498, symBinAddr: 0x10000F6B4, symSize: 0x14 }
  - { offsetInCU: 0x50E99, offset: 0x50E99, size: 0x8, addend: 0x0, symName: __ZNSt3__16vectorIdNS_9allocatorIdEEED2B8ue170006Ev, symObjAddr: 0xB4AC, symBinAddr: 0x10000F6C8, symSize: 0x44 }
  - { offsetInCU: 0x50EC3, offset: 0x50EC3, size: 0x8, addend: 0x0, symName: __ZNSt3__16vectorIdNS_9allocatorIdEEE16__destroy_vectorC1B8ue170006ERS3_, symObjAddr: 0xB4F0, symBinAddr: 0x10000F70C, symSize: 0x34 }
  - { offsetInCU: 0x50EFC, offset: 0x50EFC, size: 0x8, addend: 0x0, symName: __ZNSt3__16vectorIdNS_9allocatorIdEEE16__destroy_vectorclB8ue170006Ev, symObjAddr: 0xB524, symBinAddr: 0x10000F740, symSize: 0x90 }
  - { offsetInCU: 0x50F22, offset: 0x50F22, size: 0x8, addend: 0x0, symName: __ZNSt3__16vectorIdNS_9allocatorIdEEE16__destroy_vectorC2B8ue170006ERS3_, symObjAddr: 0xB5B4, symBinAddr: 0x10000F7D0, symSize: 0x20 }
  - { offsetInCU: 0x50F5B, offset: 0x50F5B, size: 0x8, addend: 0x0, symName: __ZNSt3__16vectorIdNS_9allocatorIdEEE7__clearB8ue170006Ev, symObjAddr: 0xB5D4, symBinAddr: 0x10000F7F0, symSize: 0x28 }
  - { offsetInCU: 0x50F81, offset: 0x50F81, size: 0x8, addend: 0x0, symName: __ZNKSt3__16vectorIdNS_9allocatorIdEEE17__annotate_deleteB8ue170006Ev, symObjAddr: 0xB5FC, symBinAddr: 0x10000F818, symSize: 0xB8 }
  - { offsetInCU: 0x50FA7, offset: 0x50FA7, size: 0x8, addend: 0x0, symName: __ZNSt3__116allocator_traitsINS_9allocatorIdEEE10deallocateB8ue170006ERS2_Pdm, symObjAddr: 0xB6B4, symBinAddr: 0x10000F8D0, symSize: 0x34 }
  - { offsetInCU: 0x50FE9, offset: 0x50FE9, size: 0x8, addend: 0x0, symName: __ZNSt3__16vectorIdNS_9allocatorIdEEE7__allocB8ue170006Ev, symObjAddr: 0xB6E8, symBinAddr: 0x10000F904, symSize: 0x28 }
  - { offsetInCU: 0x5100F, offset: 0x5100F, size: 0x8, addend: 0x0, symName: __ZNKSt3__16vectorIdNS_9allocatorIdEEE8capacityB8ue170006Ev, symObjAddr: 0xB710, symBinAddr: 0x10000F92C, symSize: 0x40 }
  - { offsetInCU: 0x51035, offset: 0x51035, size: 0x8, addend: 0x0, symName: __ZNSt3__16vectorIdNS_9allocatorIdEEE22__base_destruct_at_endB8ue170006EPd, symObjAddr: 0xB750, symBinAddr: 0x10000F96C, symSize: 0x8C }
  - { offsetInCU: 0x51079, offset: 0x51079, size: 0x8, addend: 0x0, symName: __ZNSt3__116allocator_traitsINS_9allocatorIdEEE7destroyB8ue170006IdvEEvRS2_PT_, symObjAddr: 0xB7DC, symBinAddr: 0x10000F9F8, symSize: 0x2C }
  - { offsetInCU: 0x510B6, offset: 0x510B6, size: 0x8, addend: 0x0, symName: __ZNSt3__19allocatorIdE7destroyB8ue170006EPd, symObjAddr: 0xB81C, symBinAddr: 0x10000FA38, symSize: 0x14 }
  - { offsetInCU: 0x510EA, offset: 0x510EA, size: 0x8, addend: 0x0, symName: __ZNKSt3__16vectorIdNS_9allocatorIdEEE31__annotate_contiguous_containerB8ue170006EPKvS5_S5_S5_, symObjAddr: 0xB830, symBinAddr: 0x10000FA4C, symSize: 0x20 }
  - { offsetInCU: 0x5113C, offset: 0x5113C, size: 0x8, addend: 0x0, symName: __ZNKSt3__16vectorIdNS_9allocatorIdEEE4dataB8ue170006Ev, symObjAddr: 0xB850, symBinAddr: 0x10000FA6C, symSize: 0x28 }
  - { offsetInCU: 0x51162, offset: 0x51162, size: 0x8, addend: 0x0, symName: __ZNSt3__19allocatorIdE10deallocateB8ue170006EPdm, symObjAddr: 0xB878, symBinAddr: 0x10000FA94, symSize: 0x40 }
  - { offsetInCU: 0x511A4, offset: 0x511A4, size: 0x8, addend: 0x0, symName: __ZNSt3__117__compressed_pairIPdNS_9allocatorIdEEE6secondB8ue170006Ev, symObjAddr: 0xB8B8, symBinAddr: 0x10000FAD4, symSize: 0x24 }
  - { offsetInCU: 0x511CA, offset: 0x511CA, size: 0x8, addend: 0x0, symName: __ZNSt3__122__compressed_pair_elemINS_9allocatorIdEELi1ELb1EE5__getB8ue170006Ev, symObjAddr: 0xB8DC, symBinAddr: 0x10000FAF8, symSize: 0x14 }
  - { offsetInCU: 0x511F0, offset: 0x511F0, size: 0x8, addend: 0x0, symName: __ZNKSt3__16vectorIdNS_9allocatorIdEEE9__end_capB8ue170006Ev, symObjAddr: 0xB8F0, symBinAddr: 0x10000FB0C, symSize: 0x28 }
  - { offsetInCU: 0x51216, offset: 0x51216, size: 0x8, addend: 0x0, symName: __ZNKSt3__117__compressed_pairIPdNS_9allocatorIdEEE5firstB8ue170006Ev, symObjAddr: 0xB918, symBinAddr: 0x10000FB34, symSize: 0x24 }
  - { offsetInCU: 0x5123C, offset: 0x5123C, size: 0x8, addend: 0x0, symName: __ZNKSt3__122__compressed_pair_elemIPdLi0ELb0EE5__getB8ue170006Ev, symObjAddr: 0xB93C, symBinAddr: 0x10000FB58, symSize: 0x14 }
  - { offsetInCU: 0x51262, offset: 0x51262, size: 0x8, addend: 0x0, symName: __ZNSt3__16vectorIiNS_9allocatorIiEEED2B8ue170006Ev, symObjAddr: 0xB950, symBinAddr: 0x10000FB6C, symSize: 0x44 }
  - { offsetInCU: 0x5128C, offset: 0x5128C, size: 0x8, addend: 0x0, symName: __ZNSt3__16vectorIiNS_9allocatorIiEEE16__destroy_vectorC1B8ue170006ERS3_, symObjAddr: 0xB994, symBinAddr: 0x10000FBB0, symSize: 0x34 }
  - { offsetInCU: 0x512C5, offset: 0x512C5, size: 0x8, addend: 0x0, symName: __ZNSt3__16vectorIiNS_9allocatorIiEEE16__destroy_vectorclB8ue170006Ev, symObjAddr: 0xB9C8, symBinAddr: 0x10000FBE4, symSize: 0x90 }
  - { offsetInCU: 0x512EB, offset: 0x512EB, size: 0x8, addend: 0x0, symName: __ZNSt3__16vectorIiNS_9allocatorIiEEE16__destroy_vectorC2B8ue170006ERS3_, symObjAddr: 0xBA58, symBinAddr: 0x10000FC74, symSize: 0x20 }
  - { offsetInCU: 0x51324, offset: 0x51324, size: 0x8, addend: 0x0, symName: __ZNSt3__16vectorIiNS_9allocatorIiEEE7__clearB8ue170006Ev, symObjAddr: 0xBA78, symBinAddr: 0x10000FC94, symSize: 0x28 }
  - { offsetInCU: 0x5134A, offset: 0x5134A, size: 0x8, addend: 0x0, symName: __ZNKSt3__16vectorIiNS_9allocatorIiEEE17__annotate_deleteB8ue170006Ev, symObjAddr: 0xBAA0, symBinAddr: 0x10000FCBC, symSize: 0xB8 }
  - { offsetInCU: 0x51370, offset: 0x51370, size: 0x8, addend: 0x0, symName: __ZNSt3__116allocator_traitsINS_9allocatorIiEEE10deallocateB8ue170006ERS2_Pim, symObjAddr: 0xBB58, symBinAddr: 0x10000FD74, symSize: 0x34 }
  - { offsetInCU: 0x513B2, offset: 0x513B2, size: 0x8, addend: 0x0, symName: __ZNSt3__16vectorIiNS_9allocatorIiEEE7__allocB8ue170006Ev, symObjAddr: 0xBB8C, symBinAddr: 0x10000FDA8, symSize: 0x28 }
  - { offsetInCU: 0x513D8, offset: 0x513D8, size: 0x8, addend: 0x0, symName: __ZNKSt3__16vectorIiNS_9allocatorIiEEE8capacityB8ue170006Ev, symObjAddr: 0xBBB4, symBinAddr: 0x10000FDD0, symSize: 0x40 }
  - { offsetInCU: 0x513FE, offset: 0x513FE, size: 0x8, addend: 0x0, symName: __ZNSt3__16vectorIiNS_9allocatorIiEEE22__base_destruct_at_endB8ue170006EPi, symObjAddr: 0xBBF4, symBinAddr: 0x10000FE10, symSize: 0x8C }
  - { offsetInCU: 0x51442, offset: 0x51442, size: 0x8, addend: 0x0, symName: __ZNSt3__116allocator_traitsINS_9allocatorIiEEE7destroyB8ue170006IivEEvRS2_PT_, symObjAddr: 0xBC80, symBinAddr: 0x10000FE9C, symSize: 0x2C }
  - { offsetInCU: 0x5147F, offset: 0x5147F, size: 0x8, addend: 0x0, symName: __ZNSt3__19allocatorIiE7destroyB8ue170006EPi, symObjAddr: 0xBCC0, symBinAddr: 0x10000FEDC, symSize: 0x14 }
  - { offsetInCU: 0x514B3, offset: 0x514B3, size: 0x8, addend: 0x0, symName: __ZNKSt3__16vectorIiNS_9allocatorIiEEE31__annotate_contiguous_containerB8ue170006EPKvS5_S5_S5_, symObjAddr: 0xBCD4, symBinAddr: 0x10000FEF0, symSize: 0x20 }
  - { offsetInCU: 0x51505, offset: 0x51505, size: 0x8, addend: 0x0, symName: __ZNKSt3__16vectorIiNS_9allocatorIiEEE4dataB8ue170006Ev, symObjAddr: 0xBCF4, symBinAddr: 0x10000FF10, symSize: 0x28 }
  - { offsetInCU: 0x5152B, offset: 0x5152B, size: 0x8, addend: 0x0, symName: __ZNSt3__19allocatorIiE10deallocateB8ue170006EPim, symObjAddr: 0xBD1C, symBinAddr: 0x10000FF38, symSize: 0x40 }
  - { offsetInCU: 0x5156D, offset: 0x5156D, size: 0x8, addend: 0x0, symName: __ZNSt3__117__compressed_pairIPiNS_9allocatorIiEEE6secondB8ue170006Ev, symObjAddr: 0xBD5C, symBinAddr: 0x10000FF78, symSize: 0x24 }
  - { offsetInCU: 0x51593, offset: 0x51593, size: 0x8, addend: 0x0, symName: __ZNSt3__122__compressed_pair_elemINS_9allocatorIiEELi1ELb1EE5__getB8ue170006Ev, symObjAddr: 0xBD80, symBinAddr: 0x10000FF9C, symSize: 0x14 }
  - { offsetInCU: 0x515B9, offset: 0x515B9, size: 0x8, addend: 0x0, symName: __ZNKSt3__16vectorIiNS_9allocatorIiEEE9__end_capB8ue170006Ev, symObjAddr: 0xBD94, symBinAddr: 0x10000FFB0, symSize: 0x28 }
  - { offsetInCU: 0x515DF, offset: 0x515DF, size: 0x8, addend: 0x0, symName: __ZNKSt3__117__compressed_pairIPiNS_9allocatorIiEEE5firstB8ue170006Ev, symObjAddr: 0xBDBC, symBinAddr: 0x10000FFD8, symSize: 0x24 }
  - { offsetInCU: 0x51605, offset: 0x51605, size: 0x8, addend: 0x0, symName: __ZNKSt3__122__compressed_pair_elemIPiLi0ELb0EE5__getB8ue170006Ev, symObjAddr: 0xBDE0, symBinAddr: 0x10000FFFC, symSize: 0x14 }
  - { offsetInCU: 0x51649, offset: 0x51649, size: 0x8, addend: 0x0, symName: __ZNKSt3__113basic_ostreamIcNS_11char_traitsIcEEE6sentrycvbB8ue170006Ev, symObjAddr: 0xBFE0, symBinAddr: 0x1000101FC, symSize: 0x1C }
  - { offsetInCU: 0x5166F, offset: 0x5166F, size: 0x8, addend: 0x0, symName: __ZNSt3__119ostreambuf_iteratorIcNS_11char_traitsIcEEEC1B8ue170006ERNS_13basic_ostreamIcS2_EE, symObjAddr: 0xC23C, symBinAddr: 0x100010458, symSize: 0x34 }
  - { offsetInCU: 0x516A7, offset: 0x516A7, size: 0x8, addend: 0x0, symName: __ZNKSt3__18ios_base5flagsB8ue170006Ev, symObjAddr: 0xC270, symBinAddr: 0x10001048C, symSize: 0x18 }
  - { offsetInCU: 0x516CF, offset: 0x516CF, size: 0x8, addend: 0x0, symName: __ZNKSt3__19basic_iosIcNS_11char_traitsIcEEE4fillB8ue170006Ev, symObjAddr: 0xC288, symBinAddr: 0x1000104A4, symSize: 0x64 }
  - { offsetInCU: 0x516F7, offset: 0x516F7, size: 0x8, addend: 0x0, symName: __ZNKSt3__119ostreambuf_iteratorIcNS_11char_traitsIcEEE6failedB8ue170006Ev, symObjAddr: 0xC2EC, symBinAddr: 0x100010508, symSize: 0x24 }
  - { offsetInCU: 0x5171D, offset: 0x5171D, size: 0x8, addend: 0x0, symName: __ZNSt3__19basic_iosIcNS_11char_traitsIcEEE8setstateB8ue170006Ej, symObjAddr: 0xC310, symBinAddr: 0x10001052C, symSize: 0x2C }
  - { offsetInCU: 0x51752, offset: 0x51752, size: 0x8, addend: 0x0, symName: __ZNKSt3__18ios_base5widthB8ue170006Ev, symObjAddr: 0xC33C, symBinAddr: 0x100010558, symSize: 0x18 }
  - { offsetInCU: 0x5177A, offset: 0x5177A, size: 0x8, addend: 0x0, symName: __ZNSt3__115basic_streambufIcNS_11char_traitsIcEEE5sputnB8ue170006EPKcl, symObjAddr: 0xC354, symBinAddr: 0x100010570, symSize: 0x3C }
  - { offsetInCU: 0x517BC, offset: 0x517BC, size: 0x8, addend: 0x0, symName: __ZNSt3__112basic_stringIcNS_11char_traitsIcEENS_9allocatorIcEEEC1B8ue170006Emc, symObjAddr: 0xC390, symBinAddr: 0x1000105AC, symSize: 0x3C }
  - { offsetInCU: 0x51804, offset: 0x51804, size: 0x8, addend: 0x0, symName: __ZNSt3__112basic_stringIcNS_11char_traitsIcEENS_9allocatorIcEEE4dataB8ue170006Ev, symObjAddr: 0xC3CC, symBinAddr: 0x1000105E8, symSize: 0x28 }
  - { offsetInCU: 0x5182A, offset: 0x5182A, size: 0x8, addend: 0x0, symName: __ZNSt3__18ios_base5widthB8ue170006El, symObjAddr: 0xC3F4, symBinAddr: 0x100010610, symSize: 0x2C }
  - { offsetInCU: 0x51870, offset: 0x51870, size: 0x8, addend: 0x0, symName: __ZNSt3__112basic_stringIcNS_11char_traitsIcEENS_9allocatorIcEEEC2B8ue170006Emc, symObjAddr: 0xC420, symBinAddr: 0x10001063C, symSize: 0x4C }
  - { offsetInCU: 0x518B8, offset: 0x518B8, size: 0x8, addend: 0x0, symName: __ZNSt3__119ostreambuf_iteratorIcNS_11char_traitsIcEEEC2B8ue170006ERNS_13basic_ostreamIcS2_EE, symObjAddr: 0xC480, symBinAddr: 0x10001069C, symSize: 0x54 }
  - { offsetInCU: 0x518F0, offset: 0x518F0, size: 0x8, addend: 0x0, symName: __ZNKSt3__19basic_iosIcNS_11char_traitsIcEEE5rdbufB8ue170006Ev, symObjAddr: 0xC4D4, symBinAddr: 0x1000106F0, symSize: 0x24 }
  - { offsetInCU: 0x51918, offset: 0x51918, size: 0x8, addend: 0x0, symName: __ZNKSt3__18ios_base5rdbufB8ue170006Ev, symObjAddr: 0xC4F8, symBinAddr: 0x100010714, symSize: 0x18 }
  - { offsetInCU: 0x5193E, offset: 0x5193E, size: 0x8, addend: 0x0, symName: __ZNSt3__111char_traitsIcE11eq_int_typeB8ue170006Eii, symObjAddr: 0xC510, symBinAddr: 0x10001072C, symSize: 0x28 }
  - { offsetInCU: 0x51971, offset: 0x51971, size: 0x8, addend: 0x0, symName: __ZNSt3__111char_traitsIcE3eofB8ue170006Ev, symObjAddr: 0xC538, symBinAddr: 0x100010754, symSize: 0x8 }
  - { offsetInCU: 0x51985, offset: 0x51985, size: 0x8, addend: 0x0, symName: __ZNKSt3__19basic_iosIcNS_11char_traitsIcEEE5widenB8ue170006Ec, symObjAddr: 0xC540, symBinAddr: 0x10001075C, symSize: 0x84 }
  - { offsetInCU: 0x519EE, offset: 0x519EE, size: 0x8, addend: 0x0, symName: __ZNKSt3__15ctypeIcE5widenB8ue170006Ec, symObjAddr: 0xC5F0, symBinAddr: 0x10001080C, symSize: 0x38 }
  - { offsetInCU: 0x51A23, offset: 0x51A23, size: 0x8, addend: 0x0, symName: __ZNSt3__18ios_base8setstateB8ue170006Ej, symObjAddr: 0xC628, symBinAddr: 0x100010844, symSize: 0x34 }
  - { offsetInCU: 0x51A5A, offset: 0x51A5A, size: 0x8, addend: 0x0, symName: __ZNKSt3__112basic_stringIcNS_11char_traitsIcEENS_9allocatorIcEEE4dataB8ue170006Ev, symObjAddr: 0xC65C, symBinAddr: 0x100010878, symSize: 0x28 }
  - { offsetInCU: 0x51A80, offset: 0x51A80, size: 0x8, addend: 0x0, symName: __ZNKSt3__112basic_stringIcNS_11char_traitsIcEENS_9allocatorIcEEE13__get_pointerB8ue170006Ev, symObjAddr: 0xC698, symBinAddr: 0x1000108B4, symSize: 0x54 }
  - { offsetInCU: 0x51AA6, offset: 0x51AA6, size: 0x8, addend: 0x0, symName: __ZNKSt3__112basic_stringIcNS_11char_traitsIcEENS_9allocatorIcEEE18__get_long_pointerB8ue170006Ev, symObjAddr: 0xC6EC, symBinAddr: 0x100010908, symSize: 0x28 }
  - { offsetInCU: 0x51ACC, offset: 0x51ACC, size: 0x8, addend: 0x0, symName: __ZNKSt3__112basic_stringIcNS_11char_traitsIcEENS_9allocatorIcEEE19__get_short_pointerB8ue170006Ev, symObjAddr: 0xC714, symBinAddr: 0x100010930, symSize: 0x28 }
  - { offsetInCU: 0x51AF2, offset: 0x51AF2, size: 0x8, addend: 0x0, symName: __ZNSt3__114pointer_traitsIPKcE10pointer_toB8ue170006ERS1_, symObjAddr: 0xC73C, symBinAddr: 0x100010958, symSize: 0x14 }
  - { offsetInCU: 0x51B15, offset: 0x51B15, size: 0x8, addend: 0x0, symName: __ZNSt3__16vectorINS_5arrayIiLm2EEENS_9allocatorIS2_EEE19__copy_assign_allocB8ue170006ERKS5_, symObjAddr: 0xC750, symBinAddr: 0x10001096C, symSize: 0x2C }
  - { offsetInCU: 0x51B4A, offset: 0x51B4A, size: 0x8, addend: 0x0, symName: __ZNSt3__16vectorINS_5arrayIiLm2EEENS_9allocatorIS2_EEE6assignIPS2_Li0EEEvT_S8_, symObjAddr: 0xC77C, symBinAddr: 0x100010998, symSize: 0x5C }
  - { offsetInCU: 0x51B9F, offset: 0x51B9F, size: 0x8, addend: 0x0, symName: __ZNSt3__16vectorINS_5arrayIiLm2EEENS_9allocatorIS2_EEE19__copy_assign_allocB8ue170006ERKS5_NS_17integral_constantIbLb0EEE, symObjAddr: 0xC7D8, symBinAddr: 0x1000109F4, symSize: 0x14 }
  - { offsetInCU: 0x51BDB, offset: 0x51BDB, size: 0x8, addend: 0x0, symName: __ZNSt3__16vectorINS_5arrayIiLm2EEENS_9allocatorIS2_EEE18__assign_with_sizeB8ue170006IPS2_S7_EEvT_T0_l, symObjAddr: 0xC7EC, symBinAddr: 0x100010A08, symSize: 0x164 }
  - { offsetInCU: 0x51C8B, offset: 0x51C8B, size: 0x8, addend: 0x0, symName: __ZNSt3__16vectorINS_5arrayIiLm2EEENS_9allocatorIS2_EEE17__destruct_at_endB8ue170006EPS2_, symObjAddr: 0xC9B0, symBinAddr: 0x100010BCC, symSize: 0x4C }
  - { offsetInCU: 0x51CCF, offset: 0x51CCF, size: 0x8, addend: 0x0, symName: __ZNSt3__16vectorINS_5arrayIiLm2EEENS_9allocatorIS2_EEE13__vdeallocateEv, symObjAddr: 0xC9FC, symBinAddr: 0x100010C18, symSize: 0x94 }
  - { offsetInCU: 0x51CF7, offset: 0x51CF7, size: 0x8, addend: 0x0, symName: __ZNKSt3__16vectorINS_5arrayIiLm2EEENS_9allocatorIS2_EEE11__recommendB8ue170006Em, symObjAddr: 0xCA90, symBinAddr: 0x100010CAC, symSize: 0xB4 }
  - { offsetInCU: 0x51D4C, offset: 0x51D4C, size: 0x8, addend: 0x0, symName: __ZNKSt3__16vectorINS_5arrayIiLm2EEENS_9allocatorIS2_EEE17__annotate_shrinkB8ue170006Em, symObjAddr: 0xCBB8, symBinAddr: 0x100010DD4, symSize: 0xB4 }
  - { offsetInCU: 0x51D81, offset: 0x51D81, size: 0x8, addend: 0x0, symName: __ZNSt3__16vectorINS_5arrayIiLm2EEENS_9allocatorIS2_EEE8__appendEmRKS2_, symObjAddr: 0xCD14, symBinAddr: 0x100010F30, symSize: 0x114 }
  - { offsetInCU: 0x51DEB, offset: 0x51DEB, size: 0x8, addend: 0x0, symName: __ZNSt3__16vectorINS_5arrayIiLm2EEENS_9allocatorIS2_EEE18__construct_at_endEmRKS2_, symObjAddr: 0xCE28, symBinAddr: 0x100011044, symSize: 0xD0 }
  - { offsetInCU: 0x51E6C, offset: 0x51E6C, size: 0x8, addend: 0x0, symName: __ZNSt3__114__split_bufferINS_5arrayIiLm2EEERNS_9allocatorIS2_EEEC1EmmS5_, symObjAddr: 0xCEF8, symBinAddr: 0x100011114, symSize: 0x44 }
  - { offsetInCU: 0x51EC2, offset: 0x51EC2, size: 0x8, addend: 0x0, symName: __ZNSt3__114__split_bufferINS_5arrayIiLm2EEERNS_9allocatorIS2_EEE18__construct_at_endEmRKS2_, symObjAddr: 0xCF3C, symBinAddr: 0x100011158, symSize: 0xBC }
  - { offsetInCU: 0x51F15, offset: 0x51F15, size: 0x8, addend: 0x0, symName: __ZNSt3__114__split_bufferINS_5arrayIiLm2EEERNS_9allocatorIS2_EEED1Ev, symObjAddr: 0xD108, symBinAddr: 0x100011324, symSize: 0x2C }
  - { offsetInCU: 0x51F41, offset: 0x51F41, size: 0x8, addend: 0x0, symName: __ZNSt3__116allocator_traitsINS_9allocatorINS_5arrayIiLm2EEEEEE9constructB8ue170006IS3_JRKS3_EvEEvRS4_PT_DpOT0_, symObjAddr: 0xD134, symBinAddr: 0x100011350, symSize: 0x34 }
  - { offsetInCU: 0x51F98, offset: 0x51F98, size: 0x8, addend: 0x0, symName: __ZNSt3__19allocatorINS_5arrayIiLm2EEEE9constructB8ue170006IS2_JRKS2_EEEvPT_DpOT0_, symObjAddr: 0xD168, symBinAddr: 0x100011384, symSize: 0x28 }
  - { offsetInCU: 0x51FEE, offset: 0x51FEE, size: 0x8, addend: 0x0, symName: __ZNSt3__114__split_bufferINS_5arrayIiLm2EEERNS_9allocatorIS2_EEEC2EmmS5_, symObjAddr: 0xD190, symBinAddr: 0x1000113AC, symSize: 0xD4 }
  - { offsetInCU: 0x52061, offset: 0x52061, size: 0x8, addend: 0x0, symName: __ZNSt3__117__compressed_pairIPNS_5arrayIiLm2EEERNS_9allocatorIS2_EEEC1B8ue170006IDnS6_EEOT_OT0_, symObjAddr: 0xD264, symBinAddr: 0x100011480, symSize: 0x3C }
  - { offsetInCU: 0x520B9, offset: 0x520B9, size: 0x8, addend: 0x0, symName: __ZNSt3__114__split_bufferINS_5arrayIiLm2EEERNS_9allocatorIS2_EEE7__allocB8ue170006Ev, symObjAddr: 0xD2A0, symBinAddr: 0x1000114BC, symSize: 0x28 }
  - { offsetInCU: 0x520DF, offset: 0x520DF, size: 0x8, addend: 0x0, symName: __ZNSt3__114__split_bufferINS_5arrayIiLm2EEERNS_9allocatorIS2_EEE9__end_capB8ue170006Ev, symObjAddr: 0xD2C8, symBinAddr: 0x1000114E4, symSize: 0x28 }
  - { offsetInCU: 0x52105, offset: 0x52105, size: 0x8, addend: 0x0, symName: __ZNSt3__117__compressed_pairIPNS_5arrayIiLm2EEERNS_9allocatorIS2_EEEC2B8ue170006IDnS6_EEOT_OT0_, symObjAddr: 0xD2F0, symBinAddr: 0x10001150C, symSize: 0x48 }
  - { offsetInCU: 0x5215D, offset: 0x5215D, size: 0x8, addend: 0x0, symName: __ZNSt3__122__compressed_pair_elemIRNS_9allocatorINS_5arrayIiLm2EEEEELi1ELb0EEC2B8ue170006IS5_vEEOT_, symObjAddr: 0xD338, symBinAddr: 0x100011554, symSize: 0x20 }
  - { offsetInCU: 0x5219F, offset: 0x5219F, size: 0x8, addend: 0x0, symName: __ZNSt3__117__compressed_pairIPNS_5arrayIiLm2EEERNS_9allocatorIS2_EEE6secondB8ue170006Ev, symObjAddr: 0xD358, symBinAddr: 0x100011574, symSize: 0x28 }
  - { offsetInCU: 0x521C5, offset: 0x521C5, size: 0x8, addend: 0x0, symName: __ZNSt3__122__compressed_pair_elemIRNS_9allocatorINS_5arrayIiLm2EEEEELi1ELb0EE5__getB8ue170006Ev, symObjAddr: 0xD380, symBinAddr: 0x10001159C, symSize: 0x18 }
  - { offsetInCU: 0x521EB, offset: 0x521EB, size: 0x8, addend: 0x0, symName: __ZNSt3__117__compressed_pairIPNS_5arrayIiLm2EEERNS_9allocatorIS2_EEE5firstB8ue170006Ev, symObjAddr: 0xD398, symBinAddr: 0x1000115B4, symSize: 0x24 }
  - { offsetInCU: 0x5221B, offset: 0x5221B, size: 0x8, addend: 0x0, symName: __ZNSt3__114__split_bufferINS_5arrayIiLm2EEERNS_9allocatorIS2_EEE21_ConstructTransactionC1B8ue170006EPPS2_m, symObjAddr: 0xD3BC, symBinAddr: 0x1000115D8, symSize: 0x3C }
  - { offsetInCU: 0x52261, offset: 0x52261, size: 0x8, addend: 0x0, symName: __ZNSt3__114__split_bufferINS_5arrayIiLm2EEERNS_9allocatorIS2_EEE21_ConstructTransactionD1B8ue170006Ev, symObjAddr: 0xD3F8, symBinAddr: 0x100011614, symSize: 0x2C }
  - { offsetInCU: 0x5228B, offset: 0x5228B, size: 0x8, addend: 0x0, symName: __ZNSt3__114__split_bufferINS_5arrayIiLm2EEERNS_9allocatorIS2_EEE21_ConstructTransactionC2B8ue170006EPPS2_m, symObjAddr: 0xD424, symBinAddr: 0x100011640, symSize: 0x44 }
  - { offsetInCU: 0x522D1, offset: 0x522D1, size: 0x8, addend: 0x0, symName: __ZNSt3__114__split_bufferINS_5arrayIiLm2EEERNS_9allocatorIS2_EEE21_ConstructTransactionD2B8ue170006Ev, symObjAddr: 0xD468, symBinAddr: 0x100011684, symSize: 0x20 }
  - { offsetInCU: 0x522FB, offset: 0x522FB, size: 0x8, addend: 0x0, symName: __ZNSt3__116reverse_iteratorIPNS_5arrayIiLm2EEEEC1B8ue170006ES3_, symObjAddr: 0xD500, symBinAddr: 0x10001171C, symSize: 0x34 }
  - { offsetInCU: 0x52333, offset: 0x52333, size: 0x8, addend: 0x0, symName: __ZNKSt3__116reverse_iteratorIPNS_5arrayIiLm2EEEE4baseB8ue170006Ev, symObjAddr: 0xD534, symBinAddr: 0x100011750, symSize: 0x18 }
  - { offsetInCU: 0x5237D, offset: 0x5237D, size: 0x8, addend: 0x0, symName: __ZNKSt3__111__move_loopINS_17_ClassicAlgPolicyEEclB8ue170006INS_16reverse_iteratorIPNS_5arrayIiLm2EEEEES8_S8_EENS_4pairIT_T1_EESA_T0_SB_, symObjAddr: 0xD878, symBinAddr: 0x100011A94, symSize: 0xA0 }
  - { offsetInCU: 0x523EE, offset: 0x523EE, size: 0x8, addend: 0x0, symName: __ZNSt3__18_IterOpsINS_17_ClassicAlgPolicyEE11__iter_moveB8ue170006IRNS_16reverse_iteratorIPNS_5arrayIiLm2EEEEEEENS_9enable_ifIXsr12is_referenceIDTdeclsr3stdE7declvalIRT_EEEEE5valueEDTclsr3stdE4movedeclsr3stdE7declvalISC_EEEEE4typeEOSB_, symObjAddr: 0xDAAC, symBinAddr: 0x100011CC8, symSize: 0x28 }
  - { offsetInCU: 0x5241A, offset: 0x5241A, size: 0x8, addend: 0x0, symName: __ZNKSt3__116reverse_iteratorIPNS_5arrayIiLm2EEEEdeB8ue170006Ev, symObjAddr: 0xDAD4, symBinAddr: 0x100011CF0, symSize: 0x28 }
  - { offsetInCU: 0x5244E, offset: 0x5244E, size: 0x8, addend: 0x0, symName: __ZNSt3__116reverse_iteratorIPNS_5arrayIiLm2EEEEppB8ue170006Ev, symObjAddr: 0xDAFC, symBinAddr: 0x100011D18, symSize: 0x20 }
  - { offsetInCU: 0x52474, offset: 0x52474, size: 0x8, addend: 0x0, symName: __ZNSt3__18_IterOpsINS_17_ClassicAlgPolicyEE25__validate_iter_referenceB8ue170006IRNS_16reverse_iteratorIPNS_5arrayIiLm2EEEEEEEvv, symObjAddr: 0xDB1C, symBinAddr: 0x100011D38, symSize: 0x4 }
  - { offsetInCU: 0x52492, offset: 0x52492, size: 0x8, addend: 0x0, symName: __ZNSt3__118__unwrap_iter_implINS_16reverse_iteratorIPNS_5arrayIiLm2EEEEELb0EE8__unwrapB8ue170006ES5_, symObjAddr: 0xDB20, symBinAddr: 0x100011D3C, symSize: 0x24 }
  - { offsetInCU: 0x524BB, offset: 0x524BB, size: 0x8, addend: 0x0, symName: __ZNSt3__14pairINS_16reverse_iteratorIPNS_5arrayIiLm2EEEEES5_EC1B8ue170006IS5_S5_LPv0EEEOT_OT0_, symObjAddr: 0xDB44, symBinAddr: 0x100011D60, symSize: 0x3C }
  - { offsetInCU: 0x52519, offset: 0x52519, size: 0x8, addend: 0x0, symName: __ZNSt3__14pairINS_16reverse_iteratorIPNS_5arrayIiLm2EEEEES5_EC2B8ue170006IS5_S5_LPv0EEEOT_OT0_, symObjAddr: 0xDB80, symBinAddr: 0x100011D9C, symSize: 0x34 }
  - { offsetInCU: 0x52577, offset: 0x52577, size: 0x8, addend: 0x0, symName: __ZNSt3__118__unwrap_iter_implINS_16reverse_iteratorIPNS_5arrayIiLm2EEEEELb0EE8__rewrapB8ue170006ES5_S5_, symObjAddr: 0xDBB4, symBinAddr: 0x100011DD0, symSize: 0x2C }
  - { offsetInCU: 0x525A5, offset: 0x525A5, size: 0x8, addend: 0x0, symName: __ZNSt3__116reverse_iteratorIPNS_5arrayIiLm2EEEEC2B8ue170006ES3_, symObjAddr: 0xDBE0, symBinAddr: 0x100011DFC, symSize: 0x28 }
  - { offsetInCU: 0x525DD, offset: 0x525DD, size: 0x8, addend: 0x0, symName: __ZNSt3__114__split_bufferINS_5arrayIiLm2EEERNS_9allocatorIS2_EEED2Ev, symObjAddr: 0xDC08, symBinAddr: 0x100011E24, symSize: 0x8C }
  - { offsetInCU: 0x52609, offset: 0x52609, size: 0x8, addend: 0x0, symName: __ZNSt3__114__split_bufferINS_5arrayIiLm2EEERNS_9allocatorIS2_EEE5clearB8ue170006Ev, symObjAddr: 0xDC94, symBinAddr: 0x100011EB0, symSize: 0x28 }
  - { offsetInCU: 0x5262F, offset: 0x5262F, size: 0x8, addend: 0x0, symName: __ZNKSt3__114__split_bufferINS_5arrayIiLm2EEERNS_9allocatorIS2_EEE8capacityB8ue170006Ev, symObjAddr: 0xDCBC, symBinAddr: 0x100011ED8, symSize: 0x40 }
  - { offsetInCU: 0x52655, offset: 0x52655, size: 0x8, addend: 0x0, symName: __ZNSt3__114__split_bufferINS_5arrayIiLm2EEERNS_9allocatorIS2_EEE17__destruct_at_endB8ue170006EPS2_, symObjAddr: 0xDCFC, symBinAddr: 0x100011F18, symSize: 0x2C }
  - { offsetInCU: 0x52689, offset: 0x52689, size: 0x8, addend: 0x0, symName: __ZNSt3__114__split_bufferINS_5arrayIiLm2EEERNS_9allocatorIS2_EEE17__destruct_at_endB8ue170006EPS2_NS_17integral_constantIbLb0EEE, symObjAddr: 0xDD28, symBinAddr: 0x100011F44, symSize: 0x80 }
  - { offsetInCU: 0x526CA, offset: 0x526CA, size: 0x8, addend: 0x0, symName: __ZNKSt3__114__split_bufferINS_5arrayIiLm2EEERNS_9allocatorIS2_EEE9__end_capB8ue170006Ev, symObjAddr: 0xDDA8, symBinAddr: 0x100011FC4, symSize: 0x28 }
  - { offsetInCU: 0x526F0, offset: 0x526F0, size: 0x8, addend: 0x0, symName: __ZNKSt3__117__compressed_pairIPNS_5arrayIiLm2EEERNS_9allocatorIS2_EEE5firstB8ue170006Ev, symObjAddr: 0xDDD0, symBinAddr: 0x100011FEC, symSize: 0x24 }
  - { offsetInCU: 0x52716, offset: 0x52716, size: 0x8, addend: 0x0, symName: __ZNSt3__16vectorIiNS_9allocatorIiEEE8__appendEmRKi, symObjAddr: 0xDDF4, symBinAddr: 0x100012010, symSize: 0x114 }
  - { offsetInCU: 0x52780, offset: 0x52780, size: 0x8, addend: 0x0, symName: __ZNSt3__16vectorIiNS_9allocatorIiEEE17__destruct_at_endB8ue170006EPi, symObjAddr: 0xDF08, symBinAddr: 0x100012124, symSize: 0x4C }
  - { offsetInCU: 0x527C4, offset: 0x527C4, size: 0x8, addend: 0x0, symName: __ZNSt3__16vectorIiNS_9allocatorIiEEE9__end_capB8ue170006Ev, symObjAddr: 0xDF54, symBinAddr: 0x100012170, symSize: 0x28 }
  - { offsetInCU: 0x527EA, offset: 0x527EA, size: 0x8, addend: 0x0, symName: __ZNSt3__16vectorIiNS_9allocatorIiEEE18__construct_at_endEmRKi, symObjAddr: 0xDF7C, symBinAddr: 0x100012198, symSize: 0xD0 }
  - { offsetInCU: 0x5286B, offset: 0x5286B, size: 0x8, addend: 0x0, symName: __ZNKSt3__16vectorIiNS_9allocatorIiEEE11__recommendB8ue170006Em, symObjAddr: 0xE04C, symBinAddr: 0x100012268, symSize: 0xB4 }
  - { offsetInCU: 0x528C0, offset: 0x528C0, size: 0x8, addend: 0x0, symName: __ZNSt3__114__split_bufferIiRNS_9allocatorIiEEEC1EmmS3_, symObjAddr: 0xE100, symBinAddr: 0x10001231C, symSize: 0x44 }
  - { offsetInCU: 0x52916, offset: 0x52916, size: 0x8, addend: 0x0, symName: __ZNSt3__114__split_bufferIiRNS_9allocatorIiEEE18__construct_at_endEmRKi, symObjAddr: 0xE144, symBinAddr: 0x100012360, symSize: 0xBC }
  - { offsetInCU: 0x52969, offset: 0x52969, size: 0x8, addend: 0x0, symName: __ZNSt3__114__split_bufferIiRNS_9allocatorIiEEED1Ev, symObjAddr: 0xE310, symBinAddr: 0x10001252C, symSize: 0x2C }
  - { offsetInCU: 0x52995, offset: 0x52995, size: 0x8, addend: 0x0, symName: __ZNSt3__117__compressed_pairIPiNS_9allocatorIiEEE5firstB8ue170006Ev, symObjAddr: 0xE33C, symBinAddr: 0x100012558, symSize: 0x24 }
  - { offsetInCU: 0x529BB, offset: 0x529BB, size: 0x8, addend: 0x0, symName: __ZNSt3__122__compressed_pair_elemIPiLi0ELb0EE5__getB8ue170006Ev, symObjAddr: 0xE360, symBinAddr: 0x10001257C, symSize: 0x14 }
  - { offsetInCU: 0x529FA, offset: 0x529FA, size: 0x8, addend: 0x0, symName: __ZNSt3__16vectorIiNS_9allocatorIiEEE21_ConstructTransactionC1B8ue170006ERS3_m, symObjAddr: 0xE374, symBinAddr: 0x100012590, symSize: 0x3C }
  - { offsetInCU: 0x52A42, offset: 0x52A42, size: 0x8, addend: 0x0, symName: __ZNSt3__116allocator_traitsINS_9allocatorIiEEE9constructB8ue170006IiJRKiEvEEvRS2_PT_DpOT0_, symObjAddr: 0xE3B0, symBinAddr: 0x1000125CC, symSize: 0x34 }
  - { offsetInCU: 0x52A99, offset: 0x52A99, size: 0x8, addend: 0x0, symName: __ZNSt3__16vectorIiNS_9allocatorIiEEE21_ConstructTransactionD1B8ue170006Ev, symObjAddr: 0xE3E4, symBinAddr: 0x100012600, symSize: 0x2C }
  - { offsetInCU: 0x52AC3, offset: 0x52AC3, size: 0x8, addend: 0x0, symName: __ZNSt3__16vectorIiNS_9allocatorIiEEE21_ConstructTransactionC2B8ue170006ERS3_m, symObjAddr: 0xE410, symBinAddr: 0x10001262C, symSize: 0x44 }
  - { offsetInCU: 0x52B0B, offset: 0x52B0B, size: 0x8, addend: 0x0, symName: __ZNSt3__19allocatorIiE9constructB8ue170006IiJRKiEEEvPT_DpOT0_, symObjAddr: 0xE454, symBinAddr: 0x100012670, symSize: 0x28 }
  - { offsetInCU: 0x52B61, offset: 0x52B61, size: 0x8, addend: 0x0, symName: __ZNSt3__16vectorIiNS_9allocatorIiEEE21_ConstructTransactionD2B8ue170006Ev, symObjAddr: 0xE47C, symBinAddr: 0x100012698, symSize: 0x20 }
  - { offsetInCU: 0x52B8B, offset: 0x52B8B, size: 0x8, addend: 0x0, symName: __ZNKSt3__16vectorIiNS_9allocatorIiEEE8max_sizeEv, symObjAddr: 0xE49C, symBinAddr: 0x1000126B8, symSize: 0x60 }
  - { offsetInCU: 0x52BB3, offset: 0x52BB3, size: 0x8, addend: 0x0, symName: __ZNKSt3__16vectorIiNS_9allocatorIiEEE20__throw_length_errorB8ue170006Ev, symObjAddr: 0xE4FC, symBinAddr: 0x100012718, symSize: 0x1C }
  - { offsetInCU: 0x52BE3, offset: 0x52BE3, size: 0x8, addend: 0x0, symName: __ZNSt3__116allocator_traitsINS_9allocatorIiEEE8max_sizeB8ue170006IS2_vEEmRKS2_, symObjAddr: 0xE518, symBinAddr: 0x100012734, symSize: 0x24 }
  - { offsetInCU: 0x52C11, offset: 0x52C11, size: 0x8, addend: 0x0, symName: __ZNKSt3__16vectorIiNS_9allocatorIiEEE7__allocB8ue170006Ev, symObjAddr: 0xE53C, symBinAddr: 0x100012758, symSize: 0x28 }
  - { offsetInCU: 0x52C37, offset: 0x52C37, size: 0x8, addend: 0x0, symName: __ZNKSt3__19allocatorIiE8max_sizeB8ue170006Ev, symObjAddr: 0xE564, symBinAddr: 0x100012780, symSize: 0x14 }
  - { offsetInCU: 0x52C5D, offset: 0x52C5D, size: 0x8, addend: 0x0, symName: __ZNKSt3__117__compressed_pairIPiNS_9allocatorIiEEE6secondB8ue170006Ev, symObjAddr: 0xE578, symBinAddr: 0x100012794, symSize: 0x24 }
  - { offsetInCU: 0x52C83, offset: 0x52C83, size: 0x8, addend: 0x0, symName: __ZNKSt3__122__compressed_pair_elemINS_9allocatorIiEELi1ELb1EE5__getB8ue170006Ev, symObjAddr: 0xE59C, symBinAddr: 0x1000127B8, symSize: 0x14 }
  - { offsetInCU: 0x52CA9, offset: 0x52CA9, size: 0x8, addend: 0x0, symName: __ZNSt3__114__split_bufferIiRNS_9allocatorIiEEEC2EmmS3_, symObjAddr: 0xE5B0, symBinAddr: 0x1000127CC, symSize: 0xD4 }
  - { offsetInCU: 0x52D1C, offset: 0x52D1C, size: 0x8, addend: 0x0, symName: __ZNSt3__117__compressed_pairIPiRNS_9allocatorIiEEEC1B8ue170006IDnS4_EEOT_OT0_, symObjAddr: 0xE684, symBinAddr: 0x1000128A0, symSize: 0x3C }
  - { offsetInCU: 0x52D74, offset: 0x52D74, size: 0x8, addend: 0x0, symName: __ZNSt3__114__split_bufferIiRNS_9allocatorIiEEE7__allocB8ue170006Ev, symObjAddr: 0xE700, symBinAddr: 0x10001291C, symSize: 0x28 }
  - { offsetInCU: 0x52D9A, offset: 0x52D9A, size: 0x8, addend: 0x0, symName: __ZNSt3__114__split_bufferIiRNS_9allocatorIiEEE9__end_capB8ue170006Ev, symObjAddr: 0xE728, symBinAddr: 0x100012944, symSize: 0x28 }
  - { offsetInCU: 0x52DC0, offset: 0x52DC0, size: 0x8, addend: 0x0, symName: __ZNSt3__117__compressed_pairIPiRNS_9allocatorIiEEEC2B8ue170006IDnS4_EEOT_OT0_, symObjAddr: 0xE750, symBinAddr: 0x10001296C, symSize: 0x48 }
  - { offsetInCU: 0x52E18, offset: 0x52E18, size: 0x8, addend: 0x0, symName: __ZNSt3__122__compressed_pair_elemIRNS_9allocatorIiEELi1ELb0EEC2B8ue170006IS3_vEEOT_, symObjAddr: 0xE798, symBinAddr: 0x1000129B4, symSize: 0x20 }
  - { offsetInCU: 0x52E5A, offset: 0x52E5A, size: 0x8, addend: 0x0, symName: __ZNSt3__19allocatorIiE8allocateB8ue170006Em, symObjAddr: 0xE7B8, symBinAddr: 0x1000129D4, symSize: 0x58 }
  - { offsetInCU: 0x52E8E, offset: 0x52E8E, size: 0x8, addend: 0x0, symName: __ZNSt3__117__compressed_pairIPiRNS_9allocatorIiEEE6secondB8ue170006Ev, symObjAddr: 0xE810, symBinAddr: 0x100012A2C, symSize: 0x28 }
  - { offsetInCU: 0x52EB4, offset: 0x52EB4, size: 0x8, addend: 0x0, symName: __ZNSt3__122__compressed_pair_elemIRNS_9allocatorIiEELi1ELb0EE5__getB8ue170006Ev, symObjAddr: 0xE838, symBinAddr: 0x100012A54, symSize: 0x18 }
  - { offsetInCU: 0x52EDA, offset: 0x52EDA, size: 0x8, addend: 0x0, symName: __ZNSt3__117__compressed_pairIPiRNS_9allocatorIiEEE5firstB8ue170006Ev, symObjAddr: 0xE850, symBinAddr: 0x100012A6C, symSize: 0x24 }
  - { offsetInCU: 0x52F0A, offset: 0x52F0A, size: 0x8, addend: 0x0, symName: __ZNSt3__114__split_bufferIiRNS_9allocatorIiEEE21_ConstructTransactionC1B8ue170006EPPim, symObjAddr: 0xE874, symBinAddr: 0x100012A90, symSize: 0x3C }
  - { offsetInCU: 0x52F50, offset: 0x52F50, size: 0x8, addend: 0x0, symName: __ZNSt3__114__split_bufferIiRNS_9allocatorIiEEE21_ConstructTransactionD1B8ue170006Ev, symObjAddr: 0xE8B0, symBinAddr: 0x100012ACC, symSize: 0x2C }
  - { offsetInCU: 0x52F7A, offset: 0x52F7A, size: 0x8, addend: 0x0, symName: __ZNSt3__114__split_bufferIiRNS_9allocatorIiEEE21_ConstructTransactionC2B8ue170006EPPim, symObjAddr: 0xE8DC, symBinAddr: 0x100012AF8, symSize: 0x44 }
  - { offsetInCU: 0x52FC0, offset: 0x52FC0, size: 0x8, addend: 0x0, symName: __ZNSt3__114__split_bufferIiRNS_9allocatorIiEEE21_ConstructTransactionD2B8ue170006Ev, symObjAddr: 0xE920, symBinAddr: 0x100012B3C, symSize: 0x20 }
  - { offsetInCU: 0x52FEA, offset: 0x52FEA, size: 0x8, addend: 0x0, symName: __ZNSt3__116reverse_iteratorIPiEC1B8ue170006ES1_, symObjAddr: 0xE9B8, symBinAddr: 0x100012BD4, symSize: 0x34 }
  - { offsetInCU: 0x53022, offset: 0x53022, size: 0x8, addend: 0x0, symName: __ZNKSt3__116reverse_iteratorIPiE4baseB8ue170006Ev, symObjAddr: 0xE9EC, symBinAddr: 0x100012C08, symSize: 0x18 }
  - { offsetInCU: 0x53048, offset: 0x53048, size: 0x8, addend: 0x0, symName: __ZNKSt3__16vectorIiNS_9allocatorIiEEE14__annotate_newB8ue170006Em, symObjAddr: 0xEA40, symBinAddr: 0x100012C5C, symSize: 0xAC }
  - { offsetInCU: 0x53097, offset: 0x53097, size: 0x8, addend: 0x0, symName: __ZNKSt3__111__move_loopINS_17_ClassicAlgPolicyEEclB8ue170006INS_16reverse_iteratorIPiEES6_S6_EENS_4pairIT_T1_EES8_T0_S9_, symObjAddr: 0xEDDC, symBinAddr: 0x100012FF8, symSize: 0xA0 }
  - { offsetInCU: 0x53108, offset: 0x53108, size: 0x8, addend: 0x0, symName: __ZNSt3__18_IterOpsINS_17_ClassicAlgPolicyEE11__iter_moveB8ue170006IRNS_16reverse_iteratorIPiEEEENS_9enable_ifIXsr12is_referenceIDTdeclsr3stdE7declvalIRT_EEEEE5valueEDTclsr3stdE4movedeclsr3stdE7declvalISA_EEEEE4typeEOS9_, symObjAddr: 0xF010, symBinAddr: 0x10001322C, symSize: 0x28 }
  - { offsetInCU: 0x53134, offset: 0x53134, size: 0x8, addend: 0x0, symName: __ZNKSt3__116reverse_iteratorIPiEdeB8ue170006Ev, symObjAddr: 0xF038, symBinAddr: 0x100013254, symSize: 0x28 }
  - { offsetInCU: 0x53168, offset: 0x53168, size: 0x8, addend: 0x0, symName: __ZNSt3__116reverse_iteratorIPiEppB8ue170006Ev, symObjAddr: 0xF060, symBinAddr: 0x10001327C, symSize: 0x20 }
  - { offsetInCU: 0x5318E, offset: 0x5318E, size: 0x8, addend: 0x0, symName: __ZNSt3__18_IterOpsINS_17_ClassicAlgPolicyEE25__validate_iter_referenceB8ue170006IRNS_16reverse_iteratorIPiEEEEvv, symObjAddr: 0xF080, symBinAddr: 0x10001329C, symSize: 0x4 }
  - { offsetInCU: 0x531AC, offset: 0x531AC, size: 0x8, addend: 0x0, symName: __ZNSt3__118__unwrap_iter_implINS_16reverse_iteratorIPiEELb0EE8__unwrapB8ue170006ES3_, symObjAddr: 0xF084, symBinAddr: 0x1000132A0, symSize: 0x24 }
  - { offsetInCU: 0x531D5, offset: 0x531D5, size: 0x8, addend: 0x0, symName: __ZNSt3__14pairINS_16reverse_iteratorIPiEES3_EC1B8ue170006IS3_S3_LPv0EEEOT_OT0_, symObjAddr: 0xF0A8, symBinAddr: 0x1000132C4, symSize: 0x3C }
  - { offsetInCU: 0x53233, offset: 0x53233, size: 0x8, addend: 0x0, symName: __ZNSt3__14pairINS_16reverse_iteratorIPiEES3_EC2B8ue170006IS3_S3_LPv0EEEOT_OT0_, symObjAddr: 0xF0E4, symBinAddr: 0x100013300, symSize: 0x34 }
  - { offsetInCU: 0x53291, offset: 0x53291, size: 0x8, addend: 0x0, symName: __ZNSt3__118__unwrap_iter_implINS_16reverse_iteratorIPiEELb0EE8__rewrapB8ue170006ES3_S3_, symObjAddr: 0xF118, symBinAddr: 0x100013334, symSize: 0x2C }
  - { offsetInCU: 0x532BF, offset: 0x532BF, size: 0x8, addend: 0x0, symName: __ZNSt3__116reverse_iteratorIPiEC2B8ue170006ES1_, symObjAddr: 0xF144, symBinAddr: 0x100013360, symSize: 0x28 }
  - { offsetInCU: 0x532F7, offset: 0x532F7, size: 0x8, addend: 0x0, symName: __ZNSt3__114__split_bufferIiRNS_9allocatorIiEEED2Ev, symObjAddr: 0xF16C, symBinAddr: 0x100013388, symSize: 0x8C }
  - { offsetInCU: 0x53323, offset: 0x53323, size: 0x8, addend: 0x0, symName: __ZNSt3__114__split_bufferIiRNS_9allocatorIiEEE5clearB8ue170006Ev, symObjAddr: 0xF1F8, symBinAddr: 0x100013414, symSize: 0x28 }
  - { offsetInCU: 0x53349, offset: 0x53349, size: 0x8, addend: 0x0, symName: __ZNKSt3__114__split_bufferIiRNS_9allocatorIiEEE8capacityB8ue170006Ev, symObjAddr: 0xF220, symBinAddr: 0x10001343C, symSize: 0x40 }
  - { offsetInCU: 0x5336F, offset: 0x5336F, size: 0x8, addend: 0x0, symName: __ZNSt3__114__split_bufferIiRNS_9allocatorIiEEE17__destruct_at_endB8ue170006EPi, symObjAddr: 0xF260, symBinAddr: 0x10001347C, symSize: 0x2C }
  - { offsetInCU: 0x533A3, offset: 0x533A3, size: 0x8, addend: 0x0, symName: __ZNSt3__114__split_bufferIiRNS_9allocatorIiEEE17__destruct_at_endB8ue170006EPiNS_17integral_constantIbLb0EEE, symObjAddr: 0xF28C, symBinAddr: 0x1000134A8, symSize: 0x80 }
  - { offsetInCU: 0x533E4, offset: 0x533E4, size: 0x8, addend: 0x0, symName: __ZNKSt3__114__split_bufferIiRNS_9allocatorIiEEE9__end_capB8ue170006Ev, symObjAddr: 0xF30C, symBinAddr: 0x100013528, symSize: 0x28 }
  - { offsetInCU: 0x5340A, offset: 0x5340A, size: 0x8, addend: 0x0, symName: __ZNKSt3__117__compressed_pairIPiRNS_9allocatorIiEEE5firstB8ue170006Ev, symObjAddr: 0xF334, symBinAddr: 0x100013550, symSize: 0x24 }
  - { offsetInCU: 0x53430, offset: 0x53430, size: 0x8, addend: 0x0, symName: __ZNKSt3__16vectorIiNS_9allocatorIiEEE17__annotate_shrinkB8ue170006Em, symObjAddr: 0xF358, symBinAddr: 0x100013574, symSize: 0xB4 }
  - { offsetInCU: 0x53465, offset: 0x53465, size: 0x8, addend: 0x0, symName: __ZNSt3__16vectorINS_5arrayIiLm3EEENS_9allocatorIS2_EEE8__appendEmRKS2_, symObjAddr: 0xF40C, symBinAddr: 0x100013628, symSize: 0x114 }
  - { offsetInCU: 0x534CF, offset: 0x534CF, size: 0x8, addend: 0x0, symName: __ZNSt3__16vectorINS_5arrayIiLm3EEENS_9allocatorIS2_EEE17__destruct_at_endB8ue170006EPS2_, symObjAddr: 0xF520, symBinAddr: 0x10001373C, symSize: 0x4C }
  - { offsetInCU: 0x53513, offset: 0x53513, size: 0x8, addend: 0x0, symName: __ZNSt3__16vectorINS_5arrayIiLm3EEENS_9allocatorIS2_EEE9__end_capB8ue170006Ev, symObjAddr: 0xF56C, symBinAddr: 0x100013788, symSize: 0x28 }
  - { offsetInCU: 0x53539, offset: 0x53539, size: 0x8, addend: 0x0, symName: __ZNSt3__16vectorINS_5arrayIiLm3EEENS_9allocatorIS2_EEE18__construct_at_endEmRKS2_, symObjAddr: 0xF594, symBinAddr: 0x1000137B0, symSize: 0xD0 }
  - { offsetInCU: 0x535BA, offset: 0x535BA, size: 0x8, addend: 0x0, symName: __ZNKSt3__16vectorINS_5arrayIiLm3EEENS_9allocatorIS2_EEE11__recommendB8ue170006Em, symObjAddr: 0xF664, symBinAddr: 0x100013880, symSize: 0xB4 }
  - { offsetInCU: 0x5360F, offset: 0x5360F, size: 0x8, addend: 0x0, symName: __ZNSt3__114__split_bufferINS_5arrayIiLm3EEERNS_9allocatorIS2_EEEC1EmmS5_, symObjAddr: 0xF718, symBinAddr: 0x100013934, symSize: 0x44 }
  - { offsetInCU: 0x53665, offset: 0x53665, size: 0x8, addend: 0x0, symName: __ZNSt3__114__split_bufferINS_5arrayIiLm3EEERNS_9allocatorIS2_EEE18__construct_at_endEmRKS2_, symObjAddr: 0xF75C, symBinAddr: 0x100013978, symSize: 0xBC }
  - { offsetInCU: 0x536B8, offset: 0x536B8, size: 0x8, addend: 0x0, symName: __ZNSt3__114__split_bufferINS_5arrayIiLm3EEERNS_9allocatorIS2_EEED1Ev, symObjAddr: 0xF928, symBinAddr: 0x100013B44, symSize: 0x2C }
  - { offsetInCU: 0x536E4, offset: 0x536E4, size: 0x8, addend: 0x0, symName: __ZNSt3__117__compressed_pairIPNS_5arrayIiLm3EEENS_9allocatorIS2_EEE5firstB8ue170006Ev, symObjAddr: 0xF954, symBinAddr: 0x100013B70, symSize: 0x24 }
  - { offsetInCU: 0x5370A, offset: 0x5370A, size: 0x8, addend: 0x0, symName: __ZNSt3__122__compressed_pair_elemIPNS_5arrayIiLm3EEELi0ELb0EE5__getB8ue170006Ev, symObjAddr: 0xF978, symBinAddr: 0x100013B94, symSize: 0x14 }
  - { offsetInCU: 0x53749, offset: 0x53749, size: 0x8, addend: 0x0, symName: __ZNSt3__16vectorINS_5arrayIiLm3EEENS_9allocatorIS2_EEE21_ConstructTransactionC1B8ue170006ERS5_m, symObjAddr: 0xF98C, symBinAddr: 0x100013BA8, symSize: 0x3C }
  - { offsetInCU: 0x53791, offset: 0x53791, size: 0x8, addend: 0x0, symName: __ZNSt3__116allocator_traitsINS_9allocatorINS_5arrayIiLm3EEEEEE9constructB8ue170006IS3_JRKS3_EvEEvRS4_PT_DpOT0_, symObjAddr: 0xF9C8, symBinAddr: 0x100013BE4, symSize: 0x34 }
  - { offsetInCU: 0x537E8, offset: 0x537E8, size: 0x8, addend: 0x0, symName: __ZNSt3__16vectorINS_5arrayIiLm3EEENS_9allocatorIS2_EEE21_ConstructTransactionD1B8ue170006Ev, symObjAddr: 0xF9FC, symBinAddr: 0x100013C18, symSize: 0x2C }
  - { offsetInCU: 0x53812, offset: 0x53812, size: 0x8, addend: 0x0, symName: __ZNSt3__16vectorINS_5arrayIiLm3EEENS_9allocatorIS2_EEE21_ConstructTransactionC2B8ue170006ERS5_m, symObjAddr: 0xFA28, symBinAddr: 0x100013C44, symSize: 0x4C }
  - { offsetInCU: 0x5385A, offset: 0x5385A, size: 0x8, addend: 0x0, symName: __ZNSt3__19allocatorINS_5arrayIiLm3EEEE9constructB8ue170006IS2_JRKS2_EEEvPT_DpOT0_, symObjAddr: 0xFA74, symBinAddr: 0x100013C90, symSize: 0x30 }
  - { offsetInCU: 0x538B0, offset: 0x538B0, size: 0x8, addend: 0x0, symName: __ZNSt3__16vectorINS_5arrayIiLm3EEENS_9allocatorIS2_EEE21_ConstructTransactionD2B8ue170006Ev, symObjAddr: 0xFAA4, symBinAddr: 0x100013CC0, symSize: 0x20 }
  - { offsetInCU: 0x538DA, offset: 0x538DA, size: 0x8, addend: 0x0, symName: __ZNKSt3__16vectorINS_5arrayIiLm3EEENS_9allocatorIS2_EEE8max_sizeEv, symObjAddr: 0xFAC4, symBinAddr: 0x100013CE0, symSize: 0x60 }
  - { offsetInCU: 0x53902, offset: 0x53902, size: 0x8, addend: 0x0, symName: __ZNKSt3__16vectorINS_5arrayIiLm3EEENS_9allocatorIS2_EEE20__throw_length_errorB8ue170006Ev, symObjAddr: 0xFB24, symBinAddr: 0x100013D40, symSize: 0x1C }
  - { offsetInCU: 0x53932, offset: 0x53932, size: 0x8, addend: 0x0, symName: __ZNSt3__116allocator_traitsINS_9allocatorINS_5arrayIiLm3EEEEEE8max_sizeB8ue170006IS4_vEEmRKS4_, symObjAddr: 0xFB40, symBinAddr: 0x100013D5C, symSize: 0x24 }
  - { offsetInCU: 0x53960, offset: 0x53960, size: 0x8, addend: 0x0, symName: __ZNKSt3__16vectorINS_5arrayIiLm3EEENS_9allocatorIS2_EEE7__allocB8ue170006Ev, symObjAddr: 0xFB64, symBinAddr: 0x100013D80, symSize: 0x28 }
  - { offsetInCU: 0x53986, offset: 0x53986, size: 0x8, addend: 0x0, symName: __ZNKSt3__19allocatorINS_5arrayIiLm3EEEE8max_sizeB8ue170006Ev, symObjAddr: 0xFB8C, symBinAddr: 0x100013DA8, symSize: 0x18 }
  - { offsetInCU: 0x539AC, offset: 0x539AC, size: 0x8, addend: 0x0, symName: __ZNKSt3__117__compressed_pairIPNS_5arrayIiLm3EEENS_9allocatorIS2_EEE6secondB8ue170006Ev, symObjAddr: 0xFBA4, symBinAddr: 0x100013DC0, symSize: 0x24 }
  - { offsetInCU: 0x539D2, offset: 0x539D2, size: 0x8, addend: 0x0, symName: __ZNKSt3__122__compressed_pair_elemINS_9allocatorINS_5arrayIiLm3EEEEELi1ELb1EE5__getB8ue170006Ev, symObjAddr: 0xFBC8, symBinAddr: 0x100013DE4, symSize: 0x14 }
  - { offsetInCU: 0x539F8, offset: 0x539F8, size: 0x8, addend: 0x0, symName: __ZNSt3__114__split_bufferINS_5arrayIiLm3EEERNS_9allocatorIS2_EEEC2EmmS5_, symObjAddr: 0xFBDC, symBinAddr: 0x100013DF8, symSize: 0xE0 }
  - { offsetInCU: 0x53A6B, offset: 0x53A6B, size: 0x8, addend: 0x0, symName: __ZNSt3__117__compressed_pairIPNS_5arrayIiLm3EEERNS_9allocatorIS2_EEEC1B8ue170006IDnS6_EEOT_OT0_, symObjAddr: 0xFCBC, symBinAddr: 0x100013ED8, symSize: 0x3C }
  - { offsetInCU: 0x53AC3, offset: 0x53AC3, size: 0x8, addend: 0x0, symName: __ZNSt3__114__split_bufferINS_5arrayIiLm3EEERNS_9allocatorIS2_EEE7__allocB8ue170006Ev, symObjAddr: 0xFD38, symBinAddr: 0x100013F54, symSize: 0x28 }
  - { offsetInCU: 0x53AE9, offset: 0x53AE9, size: 0x8, addend: 0x0, symName: __ZNSt3__114__split_bufferINS_5arrayIiLm3EEERNS_9allocatorIS2_EEE9__end_capB8ue170006Ev, symObjAddr: 0xFD60, symBinAddr: 0x100013F7C, symSize: 0x28 }
  - { offsetInCU: 0x53B0F, offset: 0x53B0F, size: 0x8, addend: 0x0, symName: __ZNSt3__117__compressed_pairIPNS_5arrayIiLm3EEERNS_9allocatorIS2_EEEC2B8ue170006IDnS6_EEOT_OT0_, symObjAddr: 0xFD88, symBinAddr: 0x100013FA4, symSize: 0x48 }
  - { offsetInCU: 0x53B67, offset: 0x53B67, size: 0x8, addend: 0x0, symName: __ZNSt3__122__compressed_pair_elemIRNS_9allocatorINS_5arrayIiLm3EEEEELi1ELb0EEC2B8ue170006IS5_vEEOT_, symObjAddr: 0xFDD0, symBinAddr: 0x100013FEC, symSize: 0x20 }
  - { offsetInCU: 0x53BA9, offset: 0x53BA9, size: 0x8, addend: 0x0, symName: __ZNSt3__19allocatorINS_5arrayIiLm3EEEE8allocateB8ue170006Em, symObjAddr: 0xFDF0, symBinAddr: 0x10001400C, symSize: 0x5C }
  - { offsetInCU: 0x53BDD, offset: 0x53BDD, size: 0x8, addend: 0x0, symName: __ZNSt3__117__compressed_pairIPNS_5arrayIiLm3EEERNS_9allocatorIS2_EEE6secondB8ue170006Ev, symObjAddr: 0xFE4C, symBinAddr: 0x100014068, symSize: 0x28 }
  - { offsetInCU: 0x53C03, offset: 0x53C03, size: 0x8, addend: 0x0, symName: __ZNSt3__122__compressed_pair_elemIRNS_9allocatorINS_5arrayIiLm3EEEEELi1ELb0EE5__getB8ue170006Ev, symObjAddr: 0xFE74, symBinAddr: 0x100014090, symSize: 0x18 }
  - { offsetInCU: 0x53C29, offset: 0x53C29, size: 0x8, addend: 0x0, symName: __ZNSt3__117__compressed_pairIPNS_5arrayIiLm3EEERNS_9allocatorIS2_EEE5firstB8ue170006Ev, symObjAddr: 0xFE8C, symBinAddr: 0x1000140A8, symSize: 0x24 }
  - { offsetInCU: 0x53C59, offset: 0x53C59, size: 0x8, addend: 0x0, symName: __ZNSt3__114__split_bufferINS_5arrayIiLm3EEERNS_9allocatorIS2_EEE21_ConstructTransactionC1B8ue170006EPPS2_m, symObjAddr: 0xFEB0, symBinAddr: 0x1000140CC, symSize: 0x3C }
  - { offsetInCU: 0x53C9F, offset: 0x53C9F, size: 0x8, addend: 0x0, symName: __ZNSt3__114__split_bufferINS_5arrayIiLm3EEERNS_9allocatorIS2_EEE21_ConstructTransactionD1B8ue170006Ev, symObjAddr: 0xFEEC, symBinAddr: 0x100014108, symSize: 0x2C }
  - { offsetInCU: 0x53CC9, offset: 0x53CC9, size: 0x8, addend: 0x0, symName: __ZNSt3__114__split_bufferINS_5arrayIiLm3EEERNS_9allocatorIS2_EEE21_ConstructTransactionC2B8ue170006EPPS2_m, symObjAddr: 0xFF18, symBinAddr: 0x100014134, symSize: 0x4C }
  - { offsetInCU: 0x53D0F, offset: 0x53D0F, size: 0x8, addend: 0x0, symName: __ZNSt3__114__split_bufferINS_5arrayIiLm3EEERNS_9allocatorIS2_EEE21_ConstructTransactionD2B8ue170006Ev, symObjAddr: 0xFF64, symBinAddr: 0x100014180, symSize: 0x20 }
  - { offsetInCU: 0x53D39, offset: 0x53D39, size: 0x8, addend: 0x0, symName: __ZNSt3__116reverse_iteratorIPNS_5arrayIiLm3EEEEC1B8ue170006ES3_, symObjAddr: 0xFFFC, symBinAddr: 0x100014218, symSize: 0x34 }
  - { offsetInCU: 0x53D71, offset: 0x53D71, size: 0x8, addend: 0x0, symName: __ZNKSt3__116reverse_iteratorIPNS_5arrayIiLm3EEEE4baseB8ue170006Ev, symObjAddr: 0x10030, symBinAddr: 0x10001424C, symSize: 0x18 }
  - { offsetInCU: 0x53D97, offset: 0x53D97, size: 0x8, addend: 0x0, symName: __ZNKSt3__16vectorINS_5arrayIiLm3EEENS_9allocatorIS2_EEE14__annotate_newB8ue170006Em, symObjAddr: 0x10084, symBinAddr: 0x1000142A0, symSize: 0xC8 }
  - { offsetInCU: 0x53DE6, offset: 0x53DE6, size: 0x8, addend: 0x0, symName: __ZNKSt3__111__move_loopINS_17_ClassicAlgPolicyEEclB8ue170006INS_16reverse_iteratorIPNS_5arrayIiLm3EEEEES8_S8_EENS_4pairIT_T1_EESA_T0_SB_, symObjAddr: 0x1043C, symBinAddr: 0x100014658, symSize: 0xA8 }
  - { offsetInCU: 0x53E57, offset: 0x53E57, size: 0x8, addend: 0x0, symName: __ZNSt3__18_IterOpsINS_17_ClassicAlgPolicyEE11__iter_moveB8ue170006IRNS_16reverse_iteratorIPNS_5arrayIiLm3EEEEEEENS_9enable_ifIXsr12is_referenceIDTdeclsr3stdE7declvalIRT_EEEEE5valueEDTclsr3stdE4movedeclsr3stdE7declvalISC_EEEEE4typeEOSB_, symObjAddr: 0x10678, symBinAddr: 0x100014894, symSize: 0x28 }
  - { offsetInCU: 0x53E83, offset: 0x53E83, size: 0x8, addend: 0x0, symName: __ZNKSt3__116reverse_iteratorIPNS_5arrayIiLm3EEEEdeB8ue170006Ev, symObjAddr: 0x106A0, symBinAddr: 0x1000148BC, symSize: 0x28 }
  - { offsetInCU: 0x53EB7, offset: 0x53EB7, size: 0x8, addend: 0x0, symName: __ZNSt3__116reverse_iteratorIPNS_5arrayIiLm3EEEEppB8ue170006Ev, symObjAddr: 0x106C8, symBinAddr: 0x1000148E4, symSize: 0x20 }
  - { offsetInCU: 0x53EDD, offset: 0x53EDD, size: 0x8, addend: 0x0, symName: __ZNSt3__18_IterOpsINS_17_ClassicAlgPolicyEE25__validate_iter_referenceB8ue170006IRNS_16reverse_iteratorIPNS_5arrayIiLm3EEEEEEEvv, symObjAddr: 0x106E8, symBinAddr: 0x100014904, symSize: 0x4 }
  - { offsetInCU: 0x53EFB, offset: 0x53EFB, size: 0x8, addend: 0x0, symName: __ZNSt3__118__unwrap_iter_implINS_16reverse_iteratorIPNS_5arrayIiLm3EEEEELb0EE8__unwrapB8ue170006ES5_, symObjAddr: 0x106EC, symBinAddr: 0x100014908, symSize: 0x24 }
  - { offsetInCU: 0x53F24, offset: 0x53F24, size: 0x8, addend: 0x0, symName: __ZNSt3__14pairINS_16reverse_iteratorIPNS_5arrayIiLm3EEEEES5_EC1B8ue170006IS5_S5_LPv0EEEOT_OT0_, symObjAddr: 0x10710, symBinAddr: 0x10001492C, symSize: 0x3C }
  - { offsetInCU: 0x53F82, offset: 0x53F82, size: 0x8, addend: 0x0, symName: __ZNSt3__14pairINS_16reverse_iteratorIPNS_5arrayIiLm3EEEEES5_EC2B8ue170006IS5_S5_LPv0EEEOT_OT0_, symObjAddr: 0x1074C, symBinAddr: 0x100014968, symSize: 0x34 }
  - { offsetInCU: 0x53FE0, offset: 0x53FE0, size: 0x8, addend: 0x0, symName: __ZNSt3__118__unwrap_iter_implINS_16reverse_iteratorIPNS_5arrayIiLm3EEEEELb0EE8__rewrapB8ue170006ES5_S5_, symObjAddr: 0x10780, symBinAddr: 0x10001499C, symSize: 0x2C }
  - { offsetInCU: 0x5400E, offset: 0x5400E, size: 0x8, addend: 0x0, symName: __ZNSt3__116reverse_iteratorIPNS_5arrayIiLm3EEEEC2B8ue170006ES3_, symObjAddr: 0x107AC, symBinAddr: 0x1000149C8, symSize: 0x28 }
  - { offsetInCU: 0x54046, offset: 0x54046, size: 0x8, addend: 0x0, symName: __ZNSt3__114__split_bufferINS_5arrayIiLm3EEERNS_9allocatorIS2_EEED2Ev, symObjAddr: 0x107D4, symBinAddr: 0x1000149F0, symSize: 0x8C }
  - { offsetInCU: 0x54072, offset: 0x54072, size: 0x8, addend: 0x0, symName: __ZNSt3__114__split_bufferINS_5arrayIiLm3EEERNS_9allocatorIS2_EEE5clearB8ue170006Ev, symObjAddr: 0x10860, symBinAddr: 0x100014A7C, symSize: 0x28 }
  - { offsetInCU: 0x54098, offset: 0x54098, size: 0x8, addend: 0x0, symName: __ZNKSt3__114__split_bufferINS_5arrayIiLm3EEERNS_9allocatorIS2_EEE8capacityB8ue170006Ev, symObjAddr: 0x10888, symBinAddr: 0x100014AA4, symSize: 0x40 }
  - { offsetInCU: 0x540BE, offset: 0x540BE, size: 0x8, addend: 0x0, symName: __ZNSt3__114__split_bufferINS_5arrayIiLm3EEERNS_9allocatorIS2_EEE17__destruct_at_endB8ue170006EPS2_, symObjAddr: 0x108C8, symBinAddr: 0x100014AE4, symSize: 0x2C }
  - { offsetInCU: 0x540F2, offset: 0x540F2, size: 0x8, addend: 0x0, symName: __ZNSt3__114__split_bufferINS_5arrayIiLm3EEERNS_9allocatorIS2_EEE17__destruct_at_endB8ue170006EPS2_NS_17integral_constantIbLb0EEE, symObjAddr: 0x108F4, symBinAddr: 0x100014B10, symSize: 0x80 }
  - { offsetInCU: 0x54133, offset: 0x54133, size: 0x8, addend: 0x0, symName: __ZNKSt3__114__split_bufferINS_5arrayIiLm3EEERNS_9allocatorIS2_EEE9__end_capB8ue170006Ev, symObjAddr: 0x10974, symBinAddr: 0x100014B90, symSize: 0x28 }
  - { offsetInCU: 0x54159, offset: 0x54159, size: 0x8, addend: 0x0, symName: __ZNKSt3__117__compressed_pairIPNS_5arrayIiLm3EEERNS_9allocatorIS2_EEE5firstB8ue170006Ev, symObjAddr: 0x1099C, symBinAddr: 0x100014BB8, symSize: 0x24 }
  - { offsetInCU: 0x5417F, offset: 0x5417F, size: 0x8, addend: 0x0, symName: __ZNKSt3__16vectorINS_5arrayIiLm3EEENS_9allocatorIS2_EEE17__annotate_shrinkB8ue170006Em, symObjAddr: 0x109C0, symBinAddr: 0x100014BDC, symSize: 0xD0 }
  - { offsetInCU: 0x541B4, offset: 0x541B4, size: 0x8, addend: 0x0, symName: __ZNSt3__16vectorIdNS_9allocatorIdEEE8__appendEmRKd, symObjAddr: 0x10A90, symBinAddr: 0x100014CAC, symSize: 0x114 }
  - { offsetInCU: 0x5421E, offset: 0x5421E, size: 0x8, addend: 0x0, symName: __ZNSt3__16vectorIdNS_9allocatorIdEEE17__destruct_at_endB8ue170006EPd, symObjAddr: 0x10BA4, symBinAddr: 0x100014DC0, symSize: 0x4C }
  - { offsetInCU: 0x54262, offset: 0x54262, size: 0x8, addend: 0x0, symName: __ZNSt3__16vectorIdNS_9allocatorIdEEE9__end_capB8ue170006Ev, symObjAddr: 0x10BF0, symBinAddr: 0x100014E0C, symSize: 0x28 }
  - { offsetInCU: 0x54288, offset: 0x54288, size: 0x8, addend: 0x0, symName: __ZNSt3__16vectorIdNS_9allocatorIdEEE18__construct_at_endEmRKd, symObjAddr: 0x10C18, symBinAddr: 0x100014E34, symSize: 0xD0 }
  - { offsetInCU: 0x54309, offset: 0x54309, size: 0x8, addend: 0x0, symName: __ZNKSt3__16vectorIdNS_9allocatorIdEEE11__recommendB8ue170006Em, symObjAddr: 0x10CE8, symBinAddr: 0x100014F04, symSize: 0xB4 }
  - { offsetInCU: 0x5435E, offset: 0x5435E, size: 0x8, addend: 0x0, symName: __ZNSt3__114__split_bufferIdRNS_9allocatorIdEEEC1EmmS3_, symObjAddr: 0x10D9C, symBinAddr: 0x100014FB8, symSize: 0x44 }
  - { offsetInCU: 0x543B4, offset: 0x543B4, size: 0x8, addend: 0x0, symName: __ZNSt3__114__split_bufferIdRNS_9allocatorIdEEE18__construct_at_endEmRKd, symObjAddr: 0x10DE0, symBinAddr: 0x100014FFC, symSize: 0xBC }
  - { offsetInCU: 0x54407, offset: 0x54407, size: 0x8, addend: 0x0, symName: __ZNSt3__114__split_bufferIdRNS_9allocatorIdEEED1Ev, symObjAddr: 0x10FAC, symBinAddr: 0x1000151C8, symSize: 0x2C }
  - { offsetInCU: 0x54433, offset: 0x54433, size: 0x8, addend: 0x0, symName: __ZNSt3__117__compressed_pairIPdNS_9allocatorIdEEE5firstB8ue170006Ev, symObjAddr: 0x10FD8, symBinAddr: 0x1000151F4, symSize: 0x24 }
  - { offsetInCU: 0x54459, offset: 0x54459, size: 0x8, addend: 0x0, symName: __ZNSt3__122__compressed_pair_elemIPdLi0ELb0EE5__getB8ue170006Ev, symObjAddr: 0x10FFC, symBinAddr: 0x100015218, symSize: 0x14 }
  - { offsetInCU: 0x54498, offset: 0x54498, size: 0x8, addend: 0x0, symName: __ZNSt3__16vectorIdNS_9allocatorIdEEE21_ConstructTransactionC1B8ue170006ERS3_m, symObjAddr: 0x11010, symBinAddr: 0x10001522C, symSize: 0x3C }
  - { offsetInCU: 0x544E0, offset: 0x544E0, size: 0x8, addend: 0x0, symName: __ZNSt3__116allocator_traitsINS_9allocatorIdEEE9constructB8ue170006IdJRKdEvEEvRS2_PT_DpOT0_, symObjAddr: 0x1104C, symBinAddr: 0x100015268, symSize: 0x34 }
  - { offsetInCU: 0x54537, offset: 0x54537, size: 0x8, addend: 0x0, symName: __ZNSt3__16vectorIdNS_9allocatorIdEEE21_ConstructTransactionD1B8ue170006Ev, symObjAddr: 0x11080, symBinAddr: 0x10001529C, symSize: 0x2C }
  - { offsetInCU: 0x54561, offset: 0x54561, size: 0x8, addend: 0x0, symName: __ZNSt3__16vectorIdNS_9allocatorIdEEE21_ConstructTransactionC2B8ue170006ERS3_m, symObjAddr: 0x110AC, symBinAddr: 0x1000152C8, symSize: 0x44 }
  - { offsetInCU: 0x545A9, offset: 0x545A9, size: 0x8, addend: 0x0, symName: __ZNSt3__19allocatorIdE9constructB8ue170006IdJRKdEEEvPT_DpOT0_, symObjAddr: 0x110F0, symBinAddr: 0x10001530C, symSize: 0x28 }
  - { offsetInCU: 0x545FF, offset: 0x545FF, size: 0x8, addend: 0x0, symName: __ZNSt3__16vectorIdNS_9allocatorIdEEE21_ConstructTransactionD2B8ue170006Ev, symObjAddr: 0x11118, symBinAddr: 0x100015334, symSize: 0x20 }
  - { offsetInCU: 0x54629, offset: 0x54629, size: 0x8, addend: 0x0, symName: __ZNKSt3__16vectorIdNS_9allocatorIdEEE8max_sizeEv, symObjAddr: 0x11138, symBinAddr: 0x100015354, symSize: 0x60 }
  - { offsetInCU: 0x54651, offset: 0x54651, size: 0x8, addend: 0x0, symName: __ZNKSt3__16vectorIdNS_9allocatorIdEEE20__throw_length_errorB8ue170006Ev, symObjAddr: 0x11198, symBinAddr: 0x1000153B4, symSize: 0x1C }
  - { offsetInCU: 0x54681, offset: 0x54681, size: 0x8, addend: 0x0, symName: __ZNSt3__116allocator_traitsINS_9allocatorIdEEE8max_sizeB8ue170006IS2_vEEmRKS2_, symObjAddr: 0x111B4, symBinAddr: 0x1000153D0, symSize: 0x24 }
  - { offsetInCU: 0x546AF, offset: 0x546AF, size: 0x8, addend: 0x0, symName: __ZNKSt3__16vectorIdNS_9allocatorIdEEE7__allocB8ue170006Ev, symObjAddr: 0x111D8, symBinAddr: 0x1000153F4, symSize: 0x28 }
  - { offsetInCU: 0x546D5, offset: 0x546D5, size: 0x8, addend: 0x0, symName: __ZNKSt3__19allocatorIdE8max_sizeB8ue170006Ev, symObjAddr: 0x11200, symBinAddr: 0x10001541C, symSize: 0x14 }
  - { offsetInCU: 0x546FB, offset: 0x546FB, size: 0x8, addend: 0x0, symName: __ZNKSt3__117__compressed_pairIPdNS_9allocatorIdEEE6secondB8ue170006Ev, symObjAddr: 0x11214, symBinAddr: 0x100015430, symSize: 0x24 }
  - { offsetInCU: 0x54721, offset: 0x54721, size: 0x8, addend: 0x0, symName: __ZNKSt3__122__compressed_pair_elemINS_9allocatorIdEELi1ELb1EE5__getB8ue170006Ev, symObjAddr: 0x11238, symBinAddr: 0x100015454, symSize: 0x14 }
  - { offsetInCU: 0x54747, offset: 0x54747, size: 0x8, addend: 0x0, symName: __ZNSt3__114__split_bufferIdRNS_9allocatorIdEEEC2EmmS3_, symObjAddr: 0x1124C, symBinAddr: 0x100015468, symSize: 0xD4 }
  - { offsetInCU: 0x547BA, offset: 0x547BA, size: 0x8, addend: 0x0, symName: __ZNSt3__117__compressed_pairIPdRNS_9allocatorIdEEEC1B8ue170006IDnS4_EEOT_OT0_, symObjAddr: 0x11320, symBinAddr: 0x10001553C, symSize: 0x3C }
  - { offsetInCU: 0x54812, offset: 0x54812, size: 0x8, addend: 0x0, symName: __ZNSt3__114__split_bufferIdRNS_9allocatorIdEEE7__allocB8ue170006Ev, symObjAddr: 0x1139C, symBinAddr: 0x1000155B8, symSize: 0x28 }
  - { offsetInCU: 0x54838, offset: 0x54838, size: 0x8, addend: 0x0, symName: __ZNSt3__114__split_bufferIdRNS_9allocatorIdEEE9__end_capB8ue170006Ev, symObjAddr: 0x113C4, symBinAddr: 0x1000155E0, symSize: 0x28 }
  - { offsetInCU: 0x5485E, offset: 0x5485E, size: 0x8, addend: 0x0, symName: __ZNSt3__117__compressed_pairIPdRNS_9allocatorIdEEEC2B8ue170006IDnS4_EEOT_OT0_, symObjAddr: 0x113EC, symBinAddr: 0x100015608, symSize: 0x48 }
  - { offsetInCU: 0x548B6, offset: 0x548B6, size: 0x8, addend: 0x0, symName: __ZNSt3__122__compressed_pair_elemIRNS_9allocatorIdEELi1ELb0EEC2B8ue170006IS3_vEEOT_, symObjAddr: 0x11434, symBinAddr: 0x100015650, symSize: 0x20 }
  - { offsetInCU: 0x548F8, offset: 0x548F8, size: 0x8, addend: 0x0, symName: __ZNSt3__19allocatorIdE8allocateB8ue170006Em, symObjAddr: 0x11454, symBinAddr: 0x100015670, symSize: 0x58 }
  - { offsetInCU: 0x5492C, offset: 0x5492C, size: 0x8, addend: 0x0, symName: __ZNSt3__117__compressed_pairIPdRNS_9allocatorIdEEE6secondB8ue170006Ev, symObjAddr: 0x114AC, symBinAddr: 0x1000156C8, symSize: 0x28 }
  - { offsetInCU: 0x54952, offset: 0x54952, size: 0x8, addend: 0x0, symName: __ZNSt3__122__compressed_pair_elemIRNS_9allocatorIdEELi1ELb0EE5__getB8ue170006Ev, symObjAddr: 0x114D4, symBinAddr: 0x1000156F0, symSize: 0x18 }
  - { offsetInCU: 0x54978, offset: 0x54978, size: 0x8, addend: 0x0, symName: __ZNSt3__117__compressed_pairIPdRNS_9allocatorIdEEE5firstB8ue170006Ev, symObjAddr: 0x114EC, symBinAddr: 0x100015708, symSize: 0x24 }
  - { offsetInCU: 0x549A8, offset: 0x549A8, size: 0x8, addend: 0x0, symName: __ZNSt3__114__split_bufferIdRNS_9allocatorIdEEE21_ConstructTransactionC1B8ue170006EPPdm, symObjAddr: 0x11510, symBinAddr: 0x10001572C, symSize: 0x3C }
  - { offsetInCU: 0x549EE, offset: 0x549EE, size: 0x8, addend: 0x0, symName: __ZNSt3__114__split_bufferIdRNS_9allocatorIdEEE21_ConstructTransactionD1B8ue170006Ev, symObjAddr: 0x1154C, symBinAddr: 0x100015768, symSize: 0x2C }
  - { offsetInCU: 0x54A18, offset: 0x54A18, size: 0x8, addend: 0x0, symName: __ZNSt3__114__split_bufferIdRNS_9allocatorIdEEE21_ConstructTransactionC2B8ue170006EPPdm, symObjAddr: 0x11578, symBinAddr: 0x100015794, symSize: 0x44 }
  - { offsetInCU: 0x54A5E, offset: 0x54A5E, size: 0x8, addend: 0x0, symName: __ZNSt3__114__split_bufferIdRNS_9allocatorIdEEE21_ConstructTransactionD2B8ue170006Ev, symObjAddr: 0x115BC, symBinAddr: 0x1000157D8, symSize: 0x20 }
  - { offsetInCU: 0x54A88, offset: 0x54A88, size: 0x8, addend: 0x0, symName: __ZNSt3__116reverse_iteratorIPdEC1B8ue170006ES1_, symObjAddr: 0x11654, symBinAddr: 0x100015870, symSize: 0x34 }
  - { offsetInCU: 0x54AC0, offset: 0x54AC0, size: 0x8, addend: 0x0, symName: __ZNKSt3__116reverse_iteratorIPdE4baseB8ue170006Ev, symObjAddr: 0x11688, symBinAddr: 0x1000158A4, symSize: 0x18 }
  - { offsetInCU: 0x54AE6, offset: 0x54AE6, size: 0x8, addend: 0x0, symName: __ZNKSt3__16vectorIdNS_9allocatorIdEEE14__annotate_newB8ue170006Em, symObjAddr: 0x116DC, symBinAddr: 0x1000158F8, symSize: 0xAC }
  - { offsetInCU: 0x54B35, offset: 0x54B35, size: 0x8, addend: 0x0, symName: __ZNKSt3__111__move_loopINS_17_ClassicAlgPolicyEEclB8ue170006INS_16reverse_iteratorIPdEES6_S6_EENS_4pairIT_T1_EES8_T0_S9_, symObjAddr: 0x11A78, symBinAddr: 0x100015C94, symSize: 0xA0 }
  - { offsetInCU: 0x54BA6, offset: 0x54BA6, size: 0x8, addend: 0x0, symName: __ZNSt3__18_IterOpsINS_17_ClassicAlgPolicyEE11__iter_moveB8ue170006IRNS_16reverse_iteratorIPdEEEENS_9enable_ifIXsr12is_referenceIDTdeclsr3stdE7declvalIRT_EEEEE5valueEDTclsr3stdE4movedeclsr3stdE7declvalISA_EEEEE4typeEOS9_, symObjAddr: 0x11CAC, symBinAddr: 0x100015EC8, symSize: 0x28 }
  - { offsetInCU: 0x54BD2, offset: 0x54BD2, size: 0x8, addend: 0x0, symName: __ZNKSt3__116reverse_iteratorIPdEdeB8ue170006Ev, symObjAddr: 0x11CD4, symBinAddr: 0x100015EF0, symSize: 0x28 }
  - { offsetInCU: 0x54C06, offset: 0x54C06, size: 0x8, addend: 0x0, symName: __ZNSt3__116reverse_iteratorIPdEppB8ue170006Ev, symObjAddr: 0x11CFC, symBinAddr: 0x100015F18, symSize: 0x20 }
  - { offsetInCU: 0x54C2C, offset: 0x54C2C, size: 0x8, addend: 0x0, symName: __ZNSt3__18_IterOpsINS_17_ClassicAlgPolicyEE25__validate_iter_referenceB8ue170006IRNS_16reverse_iteratorIPdEEEEvv, symObjAddr: 0x11D1C, symBinAddr: 0x100015F38, symSize: 0x4 }
  - { offsetInCU: 0x54C4A, offset: 0x54C4A, size: 0x8, addend: 0x0, symName: __ZNSt3__118__unwrap_iter_implINS_16reverse_iteratorIPdEELb0EE8__unwrapB8ue170006ES3_, symObjAddr: 0x11D20, symBinAddr: 0x100015F3C, symSize: 0x24 }
  - { offsetInCU: 0x54C73, offset: 0x54C73, size: 0x8, addend: 0x0, symName: __ZNSt3__14pairINS_16reverse_iteratorIPdEES3_EC1B8ue170006IS3_S3_LPv0EEEOT_OT0_, symObjAddr: 0x11D44, symBinAddr: 0x100015F60, symSize: 0x3C }
  - { offsetInCU: 0x54CD1, offset: 0x54CD1, size: 0x8, addend: 0x0, symName: __ZNSt3__14pairINS_16reverse_iteratorIPdEES3_EC2B8ue170006IS3_S3_LPv0EEEOT_OT0_, symObjAddr: 0x11D80, symBinAddr: 0x100015F9C, symSize: 0x34 }
  - { offsetInCU: 0x54D2F, offset: 0x54D2F, size: 0x8, addend: 0x0, symName: __ZNSt3__118__unwrap_iter_implINS_16reverse_iteratorIPdEELb0EE8__rewrapB8ue170006ES3_S3_, symObjAddr: 0x11DB4, symBinAddr: 0x100015FD0, symSize: 0x2C }
  - { offsetInCU: 0x54D5D, offset: 0x54D5D, size: 0x8, addend: 0x0, symName: __ZNSt3__116reverse_iteratorIPdEC2B8ue170006ES1_, symObjAddr: 0x11DE0, symBinAddr: 0x100015FFC, symSize: 0x28 }
  - { offsetInCU: 0x54D95, offset: 0x54D95, size: 0x8, addend: 0x0, symName: __ZNSt3__114__split_bufferIdRNS_9allocatorIdEEED2Ev, symObjAddr: 0x11E08, symBinAddr: 0x100016024, symSize: 0x8C }
  - { offsetInCU: 0x54DC1, offset: 0x54DC1, size: 0x8, addend: 0x0, symName: __ZNSt3__114__split_bufferIdRNS_9allocatorIdEEE5clearB8ue170006Ev, symObjAddr: 0x11E94, symBinAddr: 0x1000160B0, symSize: 0x28 }
  - { offsetInCU: 0x54DE7, offset: 0x54DE7, size: 0x8, addend: 0x0, symName: __ZNKSt3__114__split_bufferIdRNS_9allocatorIdEEE8capacityB8ue170006Ev, symObjAddr: 0x11EBC, symBinAddr: 0x1000160D8, symSize: 0x40 }
  - { offsetInCU: 0x54E0D, offset: 0x54E0D, size: 0x8, addend: 0x0, symName: __ZNSt3__114__split_bufferIdRNS_9allocatorIdEEE17__destruct_at_endB8ue170006EPd, symObjAddr: 0x11EFC, symBinAddr: 0x100016118, symSize: 0x2C }
  - { offsetInCU: 0x54E41, offset: 0x54E41, size: 0x8, addend: 0x0, symName: __ZNSt3__114__split_bufferIdRNS_9allocatorIdEEE17__destruct_at_endB8ue170006EPdNS_17integral_constantIbLb0EEE, symObjAddr: 0x11F28, symBinAddr: 0x100016144, symSize: 0x80 }
  - { offsetInCU: 0x54E82, offset: 0x54E82, size: 0x8, addend: 0x0, symName: __ZNKSt3__114__split_bufferIdRNS_9allocatorIdEEE9__end_capB8ue170006Ev, symObjAddr: 0x11FA8, symBinAddr: 0x1000161C4, symSize: 0x28 }
  - { offsetInCU: 0x54EA8, offset: 0x54EA8, size: 0x8, addend: 0x0, symName: __ZNKSt3__117__compressed_pairIPdRNS_9allocatorIdEEE5firstB8ue170006Ev, symObjAddr: 0x11FD0, symBinAddr: 0x1000161EC, symSize: 0x24 }
  - { offsetInCU: 0x54ECE, offset: 0x54ECE, size: 0x8, addend: 0x0, symName: __ZNKSt3__16vectorIdNS_9allocatorIdEEE17__annotate_shrinkB8ue170006Em, symObjAddr: 0x11FF4, symBinAddr: 0x100016210, symSize: 0xB4 }
  - { offsetInCU: 0x54F03, offset: 0x54F03, size: 0x8, addend: 0x0, symName: __ZN5Eigen9DenseBaseINS_6MatrixIdLi3ELi1ELi0ELi3ELi1EEEE8ConstantERKd, symObjAddr: 0x120A8, symBinAddr: 0x1000162C4, symSize: 0x48 }
  - { offsetInCU: 0x54F29, offset: 0x54F29, size: 0x8, addend: 0x0, symName: __ZN5Eigen9DenseBaseINS_6MatrixIdLi3ELi1ELi0ELi3ELi1EEEE11NullaryExprINS_8internal18scalar_constant_opIdEEEEKNS_14CwiseNullaryOpIT_S2_EEllRKS9_, symObjAddr: 0x120F0, symBinAddr: 0x10001630C, symSize: 0x48 }
  - { offsetInCU: 0x54F76, offset: 0x54F76, size: 0x8, addend: 0x0, symName: __ZN5Eigen8internal18scalar_constant_opIdEC1ERKd, symObjAddr: 0x12138, symBinAddr: 0x100016354, symSize: 0x34 }
  - { offsetInCU: 0x54FAE, offset: 0x54FAE, size: 0x8, addend: 0x0, symName: __ZN5Eigen14CwiseNullaryOpINS_8internal18scalar_constant_opIdEENS_6MatrixIdLi3ELi1ELi0ELi3ELi1EEEEC1EllRKS3_, symObjAddr: 0x1216C, symBinAddr: 0x100016388, symSize: 0x44 }
  - { offsetInCU: 0x55002, offset: 0x55002, size: 0x8, addend: 0x0, symName: __ZN5Eigen14CwiseNullaryOpINS_8internal18scalar_constant_opIdEENS_6MatrixIdLi3ELi1ELi0ELi3ELi1EEEEC2EllRKS3_, symObjAddr: 0x121B0, symBinAddr: 0x1000163CC, symSize: 0x108 }
  - { offsetInCU: 0x55056, offset: 0x55056, size: 0x8, addend: 0x0, symName: __ZN5Eigen10MatrixBaseINS_14CwiseNullaryOpINS_8internal18scalar_constant_opIdEENS_6MatrixIdLi3ELi1ELi0ELi3ELi1EEEEEEC2Ev, symObjAddr: 0x122B8, symBinAddr: 0x1000164D4, symSize: 0x2C }
  - { offsetInCU: 0x55080, offset: 0x55080, size: 0x8, addend: 0x0, symName: __ZN5Eigen8internal19variable_if_dynamicIlLi3EEC1El, symObjAddr: 0x122E4, symBinAddr: 0x100016500, symSize: 0x34 }
  - { offsetInCU: 0x550B8, offset: 0x550B8, size: 0x8, addend: 0x0, symName: __ZN5Eigen8internal19variable_if_dynamicIlLi1EEC1El, symObjAddr: 0x12318, symBinAddr: 0x100016534, symSize: 0x34 }
  - { offsetInCU: 0x550F0, offset: 0x550F0, size: 0x8, addend: 0x0, symName: __ZN5Eigen8internal18scalar_constant_opIdEC1ERKS2_, symObjAddr: 0x1234C, symBinAddr: 0x100016568, symSize: 0x34 }
  - { offsetInCU: 0x55128, offset: 0x55128, size: 0x8, addend: 0x0, symName: __ZN5Eigen9DenseBaseINS_14CwiseNullaryOpINS_8internal18scalar_constant_opIdEENS_6MatrixIdLi3ELi1ELi0ELi3ELi1EEEEEEC2Ev, symObjAddr: 0x12380, symBinAddr: 0x10001659C, symSize: 0x14 }
  - { offsetInCU: 0x55152, offset: 0x55152, size: 0x8, addend: 0x0, symName: __ZN5Eigen8internal19variable_if_dynamicIlLi3EEC2El, symObjAddr: 0x12394, symBinAddr: 0x1000165B0, symSize: 0x64 }
  - { offsetInCU: 0x5518A, offset: 0x5518A, size: 0x8, addend: 0x0, symName: __ZN5Eigen8internal19variable_if_dynamicIlLi1EEC2El, symObjAddr: 0x123F8, symBinAddr: 0x100016614, symSize: 0x64 }
  - { offsetInCU: 0x551C2, offset: 0x551C2, size: 0x8, addend: 0x0, symName: __ZN5Eigen8internal18scalar_constant_opIdEC2ERKS2_, symObjAddr: 0x1245C, symBinAddr: 0x100016678, symSize: 0x24 }
  - { offsetInCU: 0x551FA, offset: 0x551FA, size: 0x8, addend: 0x0, symName: __ZN5Eigen8internal18scalar_constant_opIdEC2ERKd, symObjAddr: 0x12480, symBinAddr: 0x10001669C, symSize: 0x24 }
  - { offsetInCU: 0x55232, offset: 0x55232, size: 0x8, addend: 0x0, symName: __ZNSt3__16vectorIN5Eigen6MatrixIdLi3ELi1ELi0ELi3ELi1EEENS_9allocatorIS3_EEE8__appendEmRKS3_, symObjAddr: 0x124A4, symBinAddr: 0x1000166C0, symSize: 0x114 }
  - { offsetInCU: 0x5529C, offset: 0x5529C, size: 0x8, addend: 0x0, symName: __ZNSt3__16vectorIN5Eigen6MatrixIdLi3ELi1ELi0ELi3ELi1EEENS_9allocatorIS3_EEE17__destruct_at_endB8ue170006EPS3_, symObjAddr: 0x125B8, symBinAddr: 0x1000167D4, symSize: 0x4C }
  - { offsetInCU: 0x552E0, offset: 0x552E0, size: 0x8, addend: 0x0, symName: __ZNSt3__16vectorIN5Eigen6MatrixIdLi3ELi1ELi0ELi3ELi1EEENS_9allocatorIS3_EEE9__end_capB8ue170006Ev, symObjAddr: 0x12604, symBinAddr: 0x100016820, symSize: 0x28 }
  - { offsetInCU: 0x55306, offset: 0x55306, size: 0x8, addend: 0x0, symName: __ZNSt3__16vectorIN5Eigen6MatrixIdLi3ELi1ELi0ELi3ELi1EEENS_9allocatorIS3_EEE18__construct_at_endEmRKS3_, symObjAddr: 0x1262C, symBinAddr: 0x100016848, symSize: 0xD0 }
  - { offsetInCU: 0x55387, offset: 0x55387, size: 0x8, addend: 0x0, symName: __ZNKSt3__16vectorIN5Eigen6MatrixIdLi3ELi1ELi0ELi3ELi1EEENS_9allocatorIS3_EEE11__recommendB8ue170006Em, symObjAddr: 0x126FC, symBinAddr: 0x100016918, symSize: 0xB4 }
  - { offsetInCU: 0x553DC, offset: 0x553DC, size: 0x8, addend: 0x0, symName: __ZNSt3__114__split_bufferIN5Eigen6MatrixIdLi3ELi1ELi0ELi3ELi1EEERNS_9allocatorIS3_EEEC1EmmS6_, symObjAddr: 0x127B0, symBinAddr: 0x1000169CC, symSize: 0x44 }
  - { offsetInCU: 0x55432, offset: 0x55432, size: 0x8, addend: 0x0, symName: __ZNSt3__114__split_bufferIN5Eigen6MatrixIdLi3ELi1ELi0ELi3ELi1EEERNS_9allocatorIS3_EEE18__construct_at_endEmRKS3_, symObjAddr: 0x127F4, symBinAddr: 0x100016A10, symSize: 0xBC }
  - { offsetInCU: 0x55485, offset: 0x55485, size: 0x8, addend: 0x0, symName: __ZNSt3__114__split_bufferIN5Eigen6MatrixIdLi3ELi1ELi0ELi3ELi1EEERNS_9allocatorIS3_EEED1Ev, symObjAddr: 0x129C0, symBinAddr: 0x100016BDC, symSize: 0x2C }
  - { offsetInCU: 0x554B1, offset: 0x554B1, size: 0x8, addend: 0x0, symName: __ZNSt3__117__compressed_pairIPN5Eigen6MatrixIdLi3ELi1ELi0ELi3ELi1EEENS_9allocatorIS3_EEE5firstB8ue170006Ev, symObjAddr: 0x129EC, symBinAddr: 0x100016C08, symSize: 0x24 }
  - { offsetInCU: 0x554D7, offset: 0x554D7, size: 0x8, addend: 0x0, symName: __ZNSt3__122__compressed_pair_elemIPN5Eigen6MatrixIdLi3ELi1ELi0ELi3ELi1EEELi0ELb0EE5__getB8ue170006Ev, symObjAddr: 0x12A10, symBinAddr: 0x100016C2C, symSize: 0x14 }
  - { offsetInCU: 0x55516, offset: 0x55516, size: 0x8, addend: 0x0, symName: __ZNSt3__16vectorIN5Eigen6MatrixIdLi3ELi1ELi0ELi3ELi1EEENS_9allocatorIS3_EEE21_ConstructTransactionC1B8ue170006ERS6_m, symObjAddr: 0x12A24, symBinAddr: 0x100016C40, symSize: 0x3C }
  - { offsetInCU: 0x5555E, offset: 0x5555E, size: 0x8, addend: 0x0, symName: __ZNSt3__116allocator_traitsINS_9allocatorIN5Eigen6MatrixIdLi3ELi1ELi0ELi3ELi1EEEEEE9constructB8ue170006IS4_JRKS4_EvEEvRS5_PT_DpOT0_, symObjAddr: 0x12A60, symBinAddr: 0x100016C7C, symSize: 0x34 }
  - { offsetInCU: 0x555B5, offset: 0x555B5, size: 0x8, addend: 0x0, symName: __ZNSt3__16vectorIN5Eigen6MatrixIdLi3ELi1ELi0ELi3ELi1EEENS_9allocatorIS3_EEE21_ConstructTransactionD1B8ue170006Ev, symObjAddr: 0x12A94, symBinAddr: 0x100016CB0, symSize: 0x2C }
  - { offsetInCU: 0x555DF, offset: 0x555DF, size: 0x8, addend: 0x0, symName: __ZNSt3__16vectorIN5Eigen6MatrixIdLi3ELi1ELi0ELi3ELi1EEENS_9allocatorIS3_EEE21_ConstructTransactionC2B8ue170006ERS6_m, symObjAddr: 0x12AC0, symBinAddr: 0x100016CDC, symSize: 0x4C }
  - { offsetInCU: 0x55627, offset: 0x55627, size: 0x8, addend: 0x0, symName: __ZNSt3__19allocatorIN5Eigen6MatrixIdLi3ELi1ELi0ELi3ELi1EEEE9constructB8ue170006IS3_JRKS3_EEEvPT_DpOT0_, symObjAddr: 0x12B0C, symBinAddr: 0x100016D28, symSize: 0x30 }
  - { offsetInCU: 0x5567D, offset: 0x5567D, size: 0x8, addend: 0x0, symName: __ZNSt3__16vectorIN5Eigen6MatrixIdLi3ELi1ELi0ELi3ELi1EEENS_9allocatorIS3_EEE21_ConstructTransactionD2B8ue170006Ev, symObjAddr: 0x12B3C, symBinAddr: 0x100016D58, symSize: 0x20 }
  - { offsetInCU: 0x556A7, offset: 0x556A7, size: 0x8, addend: 0x0, symName: __ZNKSt3__16vectorIN5Eigen6MatrixIdLi3ELi1ELi0ELi3ELi1EEENS_9allocatorIS3_EEE8max_sizeEv, symObjAddr: 0x12B5C, symBinAddr: 0x100016D78, symSize: 0x60 }
  - { offsetInCU: 0x556CF, offset: 0x556CF, size: 0x8, addend: 0x0, symName: __ZNKSt3__16vectorIN5Eigen6MatrixIdLi3ELi1ELi0ELi3ELi1EEENS_9allocatorIS3_EEE20__throw_length_errorB8ue170006Ev, symObjAddr: 0x12BBC, symBinAddr: 0x100016DD8, symSize: 0x1C }
  - { offsetInCU: 0x556FF, offset: 0x556FF, size: 0x8, addend: 0x0, symName: __ZNSt3__116allocator_traitsINS_9allocatorIN5Eigen6MatrixIdLi3ELi1ELi0ELi3ELi1EEEEEE8max_sizeB8ue170006IS5_vEEmRKS5_, symObjAddr: 0x12BD8, symBinAddr: 0x100016DF4, symSize: 0x24 }
  - { offsetInCU: 0x5572D, offset: 0x5572D, size: 0x8, addend: 0x0, symName: __ZNKSt3__16vectorIN5Eigen6MatrixIdLi3ELi1ELi0ELi3ELi1EEENS_9allocatorIS3_EEE7__allocB8ue170006Ev, symObjAddr: 0x12BFC, symBinAddr: 0x100016E18, symSize: 0x28 }
  - { offsetInCU: 0x55753, offset: 0x55753, size: 0x8, addend: 0x0, symName: __ZNKSt3__19allocatorIN5Eigen6MatrixIdLi3ELi1ELi0ELi3ELi1EEEE8max_sizeB8ue170006Ev, symObjAddr: 0x12C24, symBinAddr: 0x100016E40, symSize: 0x18 }
  - { offsetInCU: 0x55779, offset: 0x55779, size: 0x8, addend: 0x0, symName: __ZNKSt3__117__compressed_pairIPN5Eigen6MatrixIdLi3ELi1ELi0ELi3ELi1EEENS_9allocatorIS3_EEE6secondB8ue170006Ev, symObjAddr: 0x12C3C, symBinAddr: 0x100016E58, symSize: 0x24 }
  - { offsetInCU: 0x5579F, offset: 0x5579F, size: 0x8, addend: 0x0, symName: __ZNKSt3__122__compressed_pair_elemINS_9allocatorIN5Eigen6MatrixIdLi3ELi1ELi0ELi3ELi1EEEEELi1ELb1EE5__getB8ue170006Ev, symObjAddr: 0x12C60, symBinAddr: 0x100016E7C, symSize: 0x14 }
  - { offsetInCU: 0x557C5, offset: 0x557C5, size: 0x8, addend: 0x0, symName: __ZNSt3__114__split_bufferIN5Eigen6MatrixIdLi3ELi1ELi0ELi3ELi1EEERNS_9allocatorIS3_EEEC2EmmS6_, symObjAddr: 0x12C74, symBinAddr: 0x100016E90, symSize: 0xE0 }
  - { offsetInCU: 0x55838, offset: 0x55838, size: 0x8, addend: 0x0, symName: __ZNSt3__117__compressed_pairIPN5Eigen6MatrixIdLi3ELi1ELi0ELi3ELi1EEERNS_9allocatorIS3_EEEC1B8ue170006IDnS7_EEOT_OT0_, symObjAddr: 0x12D54, symBinAddr: 0x100016F70, symSize: 0x3C }
  - { offsetInCU: 0x55890, offset: 0x55890, size: 0x8, addend: 0x0, symName: __ZNSt3__114__split_bufferIN5Eigen6MatrixIdLi3ELi1ELi0ELi3ELi1EEERNS_9allocatorIS3_EEE7__allocB8ue170006Ev, symObjAddr: 0x12DD0, symBinAddr: 0x100016FEC, symSize: 0x28 }
  - { offsetInCU: 0x558B6, offset: 0x558B6, size: 0x8, addend: 0x0, symName: __ZNSt3__114__split_bufferIN5Eigen6MatrixIdLi3ELi1ELi0ELi3ELi1EEERNS_9allocatorIS3_EEE9__end_capB8ue170006Ev, symObjAddr: 0x12DF8, symBinAddr: 0x100017014, symSize: 0x28 }
  - { offsetInCU: 0x558DC, offset: 0x558DC, size: 0x8, addend: 0x0, symName: __ZNSt3__117__compressed_pairIPN5Eigen6MatrixIdLi3ELi1ELi0ELi3ELi1EEERNS_9allocatorIS3_EEEC2B8ue170006IDnS7_EEOT_OT0_, symObjAddr: 0x12E20, symBinAddr: 0x10001703C, symSize: 0x48 }
  - { offsetInCU: 0x55934, offset: 0x55934, size: 0x8, addend: 0x0, symName: __ZNSt3__122__compressed_pair_elemIRNS_9allocatorIN5Eigen6MatrixIdLi3ELi1ELi0ELi3ELi1EEEEELi1ELb0EEC2B8ue170006IS6_vEEOT_, symObjAddr: 0x12E68, symBinAddr: 0x100017084, symSize: 0x20 }
  - { offsetInCU: 0x55976, offset: 0x55976, size: 0x8, addend: 0x0, symName: __ZNSt3__19allocatorIN5Eigen6MatrixIdLi3ELi1ELi0ELi3ELi1EEEE8allocateB8ue170006Em, symObjAddr: 0x12E88, symBinAddr: 0x1000170A4, symSize: 0x5C }
  - { offsetInCU: 0x559AA, offset: 0x559AA, size: 0x8, addend: 0x0, symName: __ZNSt3__117__compressed_pairIPN5Eigen6MatrixIdLi3ELi1ELi0ELi3ELi1EEERNS_9allocatorIS3_EEE6secondB8ue170006Ev, symObjAddr: 0x12EE4, symBinAddr: 0x100017100, symSize: 0x28 }
  - { offsetInCU: 0x559D0, offset: 0x559D0, size: 0x8, addend: 0x0, symName: __ZNSt3__122__compressed_pair_elemIRNS_9allocatorIN5Eigen6MatrixIdLi3ELi1ELi0ELi3ELi1EEEEELi1ELb0EE5__getB8ue170006Ev, symObjAddr: 0x12F0C, symBinAddr: 0x100017128, symSize: 0x18 }
  - { offsetInCU: 0x559F6, offset: 0x559F6, size: 0x8, addend: 0x0, symName: __ZNSt3__117__compressed_pairIPN5Eigen6MatrixIdLi3ELi1ELi0ELi3ELi1EEERNS_9allocatorIS3_EEE5firstB8ue170006Ev, symObjAddr: 0x12F24, symBinAddr: 0x100017140, symSize: 0x24 }
  - { offsetInCU: 0x55A26, offset: 0x55A26, size: 0x8, addend: 0x0, symName: __ZNSt3__114__split_bufferIN5Eigen6MatrixIdLi3ELi1ELi0ELi3ELi1EEERNS_9allocatorIS3_EEE21_ConstructTransactionC1B8ue170006EPPS3_m, symObjAddr: 0x12F48, symBinAddr: 0x100017164, symSize: 0x3C }
  - { offsetInCU: 0x55A6C, offset: 0x55A6C, size: 0x8, addend: 0x0, symName: __ZNSt3__114__split_bufferIN5Eigen6MatrixIdLi3ELi1ELi0ELi3ELi1EEERNS_9allocatorIS3_EEE21_ConstructTransactionD1B8ue170006Ev, symObjAddr: 0x12F84, symBinAddr: 0x1000171A0, symSize: 0x2C }
  - { offsetInCU: 0x55A96, offset: 0x55A96, size: 0x8, addend: 0x0, symName: __ZNSt3__114__split_bufferIN5Eigen6MatrixIdLi3ELi1ELi0ELi3ELi1EEERNS_9allocatorIS3_EEE21_ConstructTransactionC2B8ue170006EPPS3_m, symObjAddr: 0x12FB0, symBinAddr: 0x1000171CC, symSize: 0x4C }
  - { offsetInCU: 0x55ADC, offset: 0x55ADC, size: 0x8, addend: 0x0, symName: __ZNSt3__114__split_bufferIN5Eigen6MatrixIdLi3ELi1ELi0ELi3ELi1EEERNS_9allocatorIS3_EEE21_ConstructTransactionD2B8ue170006Ev, symObjAddr: 0x12FFC, symBinAddr: 0x100017218, symSize: 0x20 }
  - { offsetInCU: 0x55B06, offset: 0x55B06, size: 0x8, addend: 0x0, symName: __ZNSt3__116reverse_iteratorIPN5Eigen6MatrixIdLi3ELi1ELi0ELi3ELi1EEEEC1B8ue170006ES4_, symObjAddr: 0x13148, symBinAddr: 0x100017364, symSize: 0x34 }
  - { offsetInCU: 0x55B3E, offset: 0x55B3E, size: 0x8, addend: 0x0, symName: __ZNKSt3__116reverse_iteratorIPN5Eigen6MatrixIdLi3ELi1ELi0ELi3ELi1EEEE4baseB8ue170006Ev, symObjAddr: 0x1317C, symBinAddr: 0x100017398, symSize: 0x18 }
  - { offsetInCU: 0x55B64, offset: 0x55B64, size: 0x8, addend: 0x0, symName: __ZNKSt3__16vectorIN5Eigen6MatrixIdLi3ELi1ELi0ELi3ELi1EEENS_9allocatorIS3_EEE14__annotate_newB8ue170006Em, symObjAddr: 0x131D0, symBinAddr: 0x1000173EC, symSize: 0xC8 }
  - { offsetInCU: 0x55B99, offset: 0x55B99, size: 0x8, addend: 0x0, symName: __ZNSt3__129_AllocatorDestroyRangeReverseINS_9allocatorIN5Eigen6MatrixIdLi3ELi1ELi0ELi3ELi1EEEEENS_16reverse_iteratorIPS4_EEEC1B8ue170006ERS5_RS8_SB_, symObjAddr: 0x132E4, symBinAddr: 0x100017500, symSize: 0x44 }
  - { offsetInCU: 0x55BF0, offset: 0x55BF0, size: 0x8, addend: 0x0, symName: __ZNSt3__116allocator_traitsINS_9allocatorIN5Eigen6MatrixIdLi3ELi1ELi0ELi3ELi1EEEEEE9constructB8ue170006IS4_JS4_EvEEvRS5_PT_DpOT0_, symObjAddr: 0x13370, symBinAddr: 0x10001758C, symSize: 0x34 }
  - { offsetInCU: 0x55C47, offset: 0x55C47, size: 0x8, addend: 0x0, symName: __ZNKSt3__116reverse_iteratorIPN5Eigen6MatrixIdLi3ELi1ELi0ELi3ELi1EEEEdeB8ue170006Ev, symObjAddr: 0x133C8, symBinAddr: 0x1000175E4, symSize: 0x28 }
  - { offsetInCU: 0x55C7B, offset: 0x55C7B, size: 0x8, addend: 0x0, symName: __ZNSt3__116reverse_iteratorIPN5Eigen6MatrixIdLi3ELi1ELi0ELi3ELi1EEEEppB8ue170006Ev, symObjAddr: 0x133F0, symBinAddr: 0x10001760C, symSize: 0x20 }
  - { offsetInCU: 0x55CA1, offset: 0x55CA1, size: 0x8, addend: 0x0, symName: __ZNSt3__128__exception_guard_exceptionsINS_29_AllocatorDestroyRangeReverseINS_9allocatorIN5Eigen6MatrixIdLi3ELi1ELi0ELi3ELi1EEEEENS_16reverse_iteratorIPS5_EEEEE10__completeB8ue170006Ev, symObjAddr: 0x13410, symBinAddr: 0x10001762C, symSize: 0x1C }
  - { offsetInCU: 0x55CC7, offset: 0x55CC7, size: 0x8, addend: 0x0, symName: __ZNSt3__128__exception_guard_exceptionsINS_29_AllocatorDestroyRangeReverseINS_9allocatorIN5Eigen6MatrixIdLi3ELi1ELi0ELi3ELi1EEEEENS_16reverse_iteratorIPS5_EEEEED1B8ue170006Ev, symObjAddr: 0x1342C, symBinAddr: 0x100017648, symSize: 0x2C }
  - { offsetInCU: 0x55CF1, offset: 0x55CF1, size: 0x8, addend: 0x0, symName: __ZNSt3__128__exception_guard_exceptionsINS_29_AllocatorDestroyRangeReverseINS_9allocatorIN5Eigen6MatrixIdLi3ELi1ELi0ELi3ELi1EEEEENS_16reverse_iteratorIPS5_EEEEEC1B8ue170006ESA_, symObjAddr: 0x13458, symBinAddr: 0x100017674, symSize: 0x34 }
  - { offsetInCU: 0x55D2A, offset: 0x55D2A, size: 0x8, addend: 0x0, symName: __ZNSt3__128__exception_guard_exceptionsINS_29_AllocatorDestroyRangeReverseINS_9allocatorIN5Eigen6MatrixIdLi3ELi1ELi0ELi3ELi1EEEEENS_16reverse_iteratorIPS5_EEEEEC2B8ue170006ESA_, symObjAddr: 0x1348C, symBinAddr: 0x1000176A8, symSize: 0x30 }
  - { offsetInCU: 0x55D63, offset: 0x55D63, size: 0x8, addend: 0x0, symName: __ZNSt3__129_AllocatorDestroyRangeReverseINS_9allocatorIN5Eigen6MatrixIdLi3ELi1ELi0ELi3ELi1EEEEENS_16reverse_iteratorIPS4_EEEC2B8ue170006ERS5_RS8_SB_, symObjAddr: 0x134BC, symBinAddr: 0x1000176D8, symSize: 0x38 }
  - { offsetInCU: 0x55DBA, offset: 0x55DBA, size: 0x8, addend: 0x0, symName: __ZNSt3__19allocatorIN5Eigen6MatrixIdLi3ELi1ELi0ELi3ELi1EEEE9constructB8ue170006IS3_JS3_EEEvPT_DpOT0_, symObjAddr: 0x134F4, symBinAddr: 0x100017710, symSize: 0x30 }
  - { offsetInCU: 0x55E10, offset: 0x55E10, size: 0x8, addend: 0x0, symName: __ZN5Eigen6MatrixIdLi3ELi1ELi0ELi3ELi1EEC1EOS1_, symObjAddr: 0x13524, symBinAddr: 0x100017740, symSize: 0x34 }
  - { offsetInCU: 0x55E49, offset: 0x55E49, size: 0x8, addend: 0x0, symName: __ZN5Eigen6MatrixIdLi3ELi1ELi0ELi3ELi1EEC2EOS1_, symObjAddr: 0x13558, symBinAddr: 0x100017774, symSize: 0x40 }
  - { offsetInCU: 0x55E82, offset: 0x55E82, size: 0x8, addend: 0x0, symName: __ZN5Eigen15PlainObjectBaseINS_6MatrixIdLi3ELi1ELi0ELi3ELi1EEEEC2EOS3_, symObjAddr: 0x13598, symBinAddr: 0x1000177B4, symSize: 0x4C }
  - { offsetInCU: 0x55EBB, offset: 0x55EBB, size: 0x8, addend: 0x0, symName: __ZN5Eigen15PlainObjectBaseINS_6MatrixIdLi3ELi1ELi0ELi3ELi1EEEE22_check_template_paramsEv, symObjAddr: 0x135E4, symBinAddr: 0x100017800, symSize: 0x4 }
  - { offsetInCU: 0x55ECF, offset: 0x55ECF, size: 0x8, addend: 0x0, symName: __ZN5Eigen10MatrixBaseINS_6MatrixIdLi3ELi1ELi0ELi3ELi1EEEEC2Ev, symObjAddr: 0x135E8, symBinAddr: 0x100017804, symSize: 0x2C }
  - { offsetInCU: 0x55EF9, offset: 0x55EF9, size: 0x8, addend: 0x0, symName: __ZN5Eigen9DenseBaseINS_6MatrixIdLi3ELi1ELi0ELi3ELi1EEEEC2Ev, symObjAddr: 0x13614, symBinAddr: 0x100017830, symSize: 0x14 }
  - { offsetInCU: 0x55F28, offset: 0x55F28, size: 0x8, addend: 0x0, symName: __ZNSt3__119__to_address_helperINS_16reverse_iteratorIPN5Eigen6MatrixIdLi3ELi1ELi0ELi3ELi1EEEEEvE6__callB8ue170006ERKS6_, symObjAddr: 0x13628, symBinAddr: 0x100017844, symSize: 0x38 }
  - { offsetInCU: 0x55F4B, offset: 0x55F4B, size: 0x8, addend: 0x0, symName: __ZNKSt3__116reverse_iteratorIPN5Eigen6MatrixIdLi3ELi1ELi0ELi3ELi1EEEEptB8ue170006Ev, symObjAddr: 0x13660, symBinAddr: 0x10001787C, symSize: 0x24 }
  - { offsetInCU: 0x55F71, offset: 0x55F71, size: 0x8, addend: 0x0, symName: __ZNSt3__128__exception_guard_exceptionsINS_29_AllocatorDestroyRangeReverseINS_9allocatorIN5Eigen6MatrixIdLi3ELi1ELi0ELi3ELi1EEEEENS_16reverse_iteratorIPS5_EEEEED2B8ue170006Ev, symObjAddr: 0x13684, symBinAddr: 0x1000178A0, symSize: 0x50 }
  - { offsetInCU: 0x55F9B, offset: 0x55F9B, size: 0x8, addend: 0x0, symName: __ZNKSt3__129_AllocatorDestroyRangeReverseINS_9allocatorIN5Eigen6MatrixIdLi3ELi1ELi0ELi3ELi1EEEEENS_16reverse_iteratorIPS4_EEEclB8ue170006Ev, symObjAddr: 0x136D4, symBinAddr: 0x1000178F0, symSize: 0xB4 }
  - { offsetInCU: 0x55FC2, offset: 0x55FC2, size: 0x8, addend: 0x0, symName: __ZNSt3__116reverse_iteratorINS0_IPN5Eigen6MatrixIdLi3ELi1ELi0ELi3ELi1EEEEEEC1B8ue170006ES5_, symObjAddr: 0x137F8, symBinAddr: 0x100017A14, symSize: 0x3C }
  - { offsetInCU: 0x55FFA, offset: 0x55FFA, size: 0x8, addend: 0x0, symName: __ZNSt3__116reverse_iteratorINS0_IPN5Eigen6MatrixIdLi3ELi1ELi0ELi3ELi1EEEEEEppB8ue170006Ev, symObjAddr: 0x138B8, symBinAddr: 0x100017AD4, symSize: 0x30 }
  - { offsetInCU: 0x56020, offset: 0x56020, size: 0x8, addend: 0x0, symName: __ZNKSt3__116reverse_iteratorINS0_IPN5Eigen6MatrixIdLi3ELi1ELi0ELi3ELi1EEEEEE4baseB8ue170006Ev, symObjAddr: 0x138E8, symBinAddr: 0x100017B04, symSize: 0x24 }
  - { offsetInCU: 0x5604B, offset: 0x5604B, size: 0x8, addend: 0x0, symName: __ZNSt3__119__to_address_helperINS_16reverse_iteratorINS1_IPN5Eigen6MatrixIdLi3ELi1ELi0ELi3ELi1EEEEEEEvE6__callB8ue170006ERKS7_, symObjAddr: 0x1390C, symBinAddr: 0x100017B28, symSize: 0x38 }
  - { offsetInCU: 0x5606E, offset: 0x5606E, size: 0x8, addend: 0x0, symName: __ZNKSt3__116reverse_iteratorINS0_IPN5Eigen6MatrixIdLi3ELi1ELi0ELi3ELi1EEEEEEptB8ue170006Ev, symObjAddr: 0x13944, symBinAddr: 0x100017B60, symSize: 0x24 }
  - { offsetInCU: 0x56094, offset: 0x56094, size: 0x8, addend: 0x0, symName: __ZNKSt3__116reverse_iteratorINS0_IPN5Eigen6MatrixIdLi3ELi1ELi0ELi3ELi1EEEEEEdeB8ue170006Ev, symObjAddr: 0x13968, symBinAddr: 0x100017B84, symSize: 0x34 }
  - { offsetInCU: 0x560C8, offset: 0x560C8, size: 0x8, addend: 0x0, symName: __ZNSt3__116reverse_iteratorIPN5Eigen6MatrixIdLi3ELi1ELi0ELi3ELi1EEEEmmB8ue170006Ev, symObjAddr: 0x1399C, symBinAddr: 0x100017BB8, symSize: 0x20 }
  - { offsetInCU: 0x560EE, offset: 0x560EE, size: 0x8, addend: 0x0, symName: __ZNSt3__116reverse_iteratorINS0_IPN5Eigen6MatrixIdLi3ELi1ELi0ELi3ELi1EEEEEEC2B8ue170006ES5_, symObjAddr: 0x139BC, symBinAddr: 0x100017BD8, symSize: 0x2C }
  - { offsetInCU: 0x56126, offset: 0x56126, size: 0x8, addend: 0x0, symName: __ZNSt3__116reverse_iteratorIPN5Eigen6MatrixIdLi3ELi1ELi0ELi3ELi1EEEEC2B8ue170006ES4_, symObjAddr: 0x139E8, symBinAddr: 0x100017C04, symSize: 0x28 }
  - { offsetInCU: 0x5615E, offset: 0x5615E, size: 0x8, addend: 0x0, symName: __ZNSt3__114__split_bufferIN5Eigen6MatrixIdLi3ELi1ELi0ELi3ELi1EEERNS_9allocatorIS3_EEED2Ev, symObjAddr: 0x13A10, symBinAddr: 0x100017C2C, symSize: 0x8C }
  - { offsetInCU: 0x5618A, offset: 0x5618A, size: 0x8, addend: 0x0, symName: __ZNSt3__114__split_bufferIN5Eigen6MatrixIdLi3ELi1ELi0ELi3ELi1EEERNS_9allocatorIS3_EEE5clearB8ue170006Ev, symObjAddr: 0x13A9C, symBinAddr: 0x100017CB8, symSize: 0x28 }
  - { offsetInCU: 0x561B0, offset: 0x561B0, size: 0x8, addend: 0x0, symName: __ZNKSt3__114__split_bufferIN5Eigen6MatrixIdLi3ELi1ELi0ELi3ELi1EEERNS_9allocatorIS3_EEE8capacityB8ue170006Ev, symObjAddr: 0x13AC4, symBinAddr: 0x100017CE0, symSize: 0x40 }
  - { offsetInCU: 0x561D6, offset: 0x561D6, size: 0x8, addend: 0x0, symName: __ZNSt3__114__split_bufferIN5Eigen6MatrixIdLi3ELi1ELi0ELi3ELi1EEERNS_9allocatorIS3_EEE17__destruct_at_endB8ue170006EPS3_, symObjAddr: 0x13B04, symBinAddr: 0x100017D20, symSize: 0x2C }
  - { offsetInCU: 0x5620A, offset: 0x5620A, size: 0x8, addend: 0x0, symName: __ZNSt3__114__split_bufferIN5Eigen6MatrixIdLi3ELi1ELi0ELi3ELi1EEERNS_9allocatorIS3_EEE17__destruct_at_endB8ue170006EPS3_NS_17integral_constantIbLb0EEE, symObjAddr: 0x13B30, symBinAddr: 0x100017D4C, symSize: 0x80 }
  - { offsetInCU: 0x5624B, offset: 0x5624B, size: 0x8, addend: 0x0, symName: __ZNKSt3__114__split_bufferIN5Eigen6MatrixIdLi3ELi1ELi0ELi3ELi1EEERNS_9allocatorIS3_EEE9__end_capB8ue170006Ev, symObjAddr: 0x13BB0, symBinAddr: 0x100017DCC, symSize: 0x28 }
  - { offsetInCU: 0x56271, offset: 0x56271, size: 0x8, addend: 0x0, symName: __ZNKSt3__117__compressed_pairIPN5Eigen6MatrixIdLi3ELi1ELi0ELi3ELi1EEERNS_9allocatorIS3_EEE5firstB8ue170006Ev, symObjAddr: 0x13BD8, symBinAddr: 0x100017DF4, symSize: 0x24 }
  - { offsetInCU: 0x56297, offset: 0x56297, size: 0x8, addend: 0x0, symName: __ZNKSt3__16vectorIN5Eigen6MatrixIdLi3ELi1ELi0ELi3ELi1EEENS_9allocatorIS3_EEE17__annotate_shrinkB8ue170006Em, symObjAddr: 0x13BFC, symBinAddr: 0x100017E18, symSize: 0xD0 }
  - { offsetInCU: 0x562CC, offset: 0x562CC, size: 0x8, addend: 0x0, symName: __ZN5Eigen6MatrixIdLi3ELi1ELi0ELi3ELi1EEC2INS_14CwiseNullaryOpINS_8internal18scalar_constant_opIdEES1_EEEERKNS_9EigenBaseIT_EE, symObjAddr: 0x13CCC, symBinAddr: 0x100017EE8, symSize: 0x40 }
  - { offsetInCU: 0x5630E, offset: 0x5630E, size: 0x8, addend: 0x0, symName: __ZNK5Eigen9EigenBaseINS_14CwiseNullaryOpINS_8internal18scalar_constant_opIdEENS_6MatrixIdLi3ELi1ELi0ELi3ELi1EEEEEE7derivedEv, symObjAddr: 0x13D0C, symBinAddr: 0x100017F28, symSize: 0x14 }
  - { offsetInCU: 0x56334, offset: 0x56334, size: 0x8, addend: 0x0, symName: __ZN5Eigen15PlainObjectBaseINS_6MatrixIdLi3ELi1ELi0ELi3ELi1EEEEC2INS_14CwiseNullaryOpINS_8internal18scalar_constant_opIdEES2_EEEERKNS_9DenseBaseIT_EE, symObjAddr: 0x13D20, symBinAddr: 0x100017F3C, symSize: 0x54 }
  - { offsetInCU: 0x56376, offset: 0x56376, size: 0x8, addend: 0x0, symName: __ZN5Eigen12DenseStorageIdLi3ELi3ELi1ELi0EEC1Ev, symObjAddr: 0x13D74, symBinAddr: 0x100017F90, symSize: 0x2C }
  - { offsetInCU: 0x563A0, offset: 0x563A0, size: 0x8, addend: 0x0, symName: __ZN5Eigen15PlainObjectBaseINS_6MatrixIdLi3ELi1ELi0ELi3ELi1EEEE10resizeLikeINS_14CwiseNullaryOpINS_8internal18scalar_constant_opIdEES2_EEEEvRKNS_9EigenBaseIT_EE, symObjAddr: 0x13DA0, symBinAddr: 0x100017FBC, symSize: 0xF0 }
  - { offsetInCU: 0x563FC, offset: 0x563FC, size: 0x8, addend: 0x0, symName: __ZN5Eigen15PlainObjectBaseINS_6MatrixIdLi3ELi1ELi0ELi3ELi1EEEE12_set_noaliasINS_14CwiseNullaryOpINS_8internal18scalar_constant_opIdEES2_EEEERS2_RKNS_9DenseBaseIT_EE, symObjAddr: 0x13E90, symBinAddr: 0x1000180AC, symSize: 0x60 }
  - { offsetInCU: 0x5643A, offset: 0x5643A, size: 0x8, addend: 0x0, symName: __ZN5Eigen12DenseStorageIdLi3ELi3ELi1ELi0EEC2Ev, symObjAddr: 0x13EF0, symBinAddr: 0x10001810C, symSize: 0x2C }
  - { offsetInCU: 0x56464, offset: 0x56464, size: 0x8, addend: 0x0, symName: __ZN5Eigen8internal11plain_arrayIdLi3ELi0ELi0EEC1Ev, symObjAddr: 0x13F1C, symBinAddr: 0x100018138, symSize: 0x2C }
  - { offsetInCU: 0x5648E, offset: 0x5648E, size: 0x8, addend: 0x0, symName: __ZN5Eigen8internal11plain_arrayIdLi3ELi0ELi0EEC2Ev, symObjAddr: 0x13F48, symBinAddr: 0x100018164, symSize: 0x2C }
  - { offsetInCU: 0x564B8, offset: 0x564B8, size: 0x8, addend: 0x0, symName: __ZNK5Eigen14CwiseNullaryOpINS_8internal18scalar_constant_opIdEENS_6MatrixIdLi3ELi1ELi0ELi3ELi1EEEE4rowsEv, symObjAddr: 0x13F78, symBinAddr: 0x100018194, symSize: 0x20 }
  - { offsetInCU: 0x564DE, offset: 0x564DE, size: 0x8, addend: 0x0, symName: __ZNK5Eigen14CwiseNullaryOpINS_8internal18scalar_constant_opIdEENS_6MatrixIdLi3ELi1ELi0ELi3ELi1EEEE4colsEv, symObjAddr: 0x13F98, symBinAddr: 0x1000181B4, symSize: 0x20 }
  - { offsetInCU: 0x56504, offset: 0x56504, size: 0x8, addend: 0x0, symName: __ZN5Eigen15PlainObjectBaseINS_6MatrixIdLi3ELi1ELi0ELi3ELi1EEEE6resizeEll, symObjAddr: 0x13FB8, symBinAddr: 0x1000181D4, symSize: 0x104 }
  - { offsetInCU: 0x56548, offset: 0x56548, size: 0x8, addend: 0x0, symName: __ZN5Eigen8internal19variable_if_dynamicIlLi3EE5valueEv, symObjAddr: 0x140BC, symBinAddr: 0x1000182D8, symSize: 0x8 }
  - { offsetInCU: 0x5655C, offset: 0x5655C, size: 0x8, addend: 0x0, symName: __ZN5Eigen8internal19variable_if_dynamicIlLi1EE5valueEv, symObjAddr: 0x140C4, symBinAddr: 0x1000182E0, symSize: 0x8 }
  - { offsetInCU: 0x56570, offset: 0x56570, size: 0x8, addend: 0x0, symName: __ZN5Eigen12DenseStorageIdLi3ELi3ELi1ELi0EE6resizeElll, symObjAddr: 0x140CC, symBinAddr: 0x1000182E8, symSize: 0x1C }
  - { offsetInCU: 0x565B7, offset: 0x565B7, size: 0x8, addend: 0x0, symName: __ZN5Eigen9EigenBaseINS_6MatrixIdLi3ELi1ELi0ELi3ELi1EEEE7derivedEv, symObjAddr: 0x14124, symBinAddr: 0x100018340, symSize: 0x14 }
  - { offsetInCU: 0x565DD, offset: 0x565DD, size: 0x8, addend: 0x0, symName: __ZN5Eigen8internal9assign_opIddEC1Ev, symObjAddr: 0x14138, symBinAddr: 0x100018354, symSize: 0x2C }
  - { offsetInCU: 0x56607, offset: 0x56607, size: 0x8, addend: 0x0, symName: __ZN5Eigen8internal10AssignmentINS_6MatrixIdLi3ELi1ELi0ELi3ELi1EEENS_14CwiseNullaryOpINS0_18scalar_constant_opIdEES3_EENS0_9assign_opIddEENS0_11Dense2DenseEvE3runERS3_RKS7_RKS9_, symObjAddr: 0x14164, symBinAddr: 0x100018380, symSize: 0x40 }
  - { offsetInCU: 0x56649, offset: 0x56649, size: 0x8, addend: 0x0, symName: __ZN5Eigen15PlainObjectBaseINS_6MatrixIdLi3ELi1ELi0ELi3ELi1EEEE4dataEv, symObjAddr: 0x14360, symBinAddr: 0x10001857C, symSize: 0x24 }
  - { offsetInCU: 0x5666F, offset: 0x5666F, size: 0x8, addend: 0x0, symName: __ZNK5Eigen9EigenBaseINS_6MatrixIdLi3ELi1ELi0ELi3ELi1EEEE4sizeEv, symObjAddr: 0x14384, symBinAddr: 0x1000185A0, symSize: 0x44 }
  - { offsetInCU: 0x56695, offset: 0x56695, size: 0x8, addend: 0x0, symName: __ZNK5Eigen14CwiseNullaryOpINS_8internal18scalar_constant_opIdEENS_6MatrixIdLi3ELi1ELi0ELi3ELi1EEEE7functorEv, symObjAddr: 0x143C8, symBinAddr: 0x1000185E4, symSize: 0x18 }
  - { offsetInCU: 0x566BB, offset: 0x566BB, size: 0x8, addend: 0x0, symName: __ZNK5Eigen8internal18scalar_constant_opIdEclEv, symObjAddr: 0x143E0, symBinAddr: 0x1000185FC, symSize: 0x18 }
  - { offsetInCU: 0x566E1, offset: 0x566E1, size: 0x8, addend: 0x0, symName: __ZNK5Eigen15PlainObjectBaseINS_6MatrixIdLi3ELi1ELi0ELi3ELi1EEEE4rowsEv, symObjAddr: 0x143F8, symBinAddr: 0x100018614, symSize: 0x20 }
  - { offsetInCU: 0x56707, offset: 0x56707, size: 0x8, addend: 0x0, symName: __ZNK5Eigen15PlainObjectBaseINS_6MatrixIdLi3ELi1ELi0ELi3ELi1EEEE4colsEv, symObjAddr: 0x14418, symBinAddr: 0x100018634, symSize: 0x20 }
  - { offsetInCU: 0x5672D, offset: 0x5672D, size: 0x8, addend: 0x0, symName: __ZN5Eigen12DenseStorageIdLi3ELi3ELi1ELi0EE4rowsEv, symObjAddr: 0x14438, symBinAddr: 0x100018654, symSize: 0x8 }
  - { offsetInCU: 0x56741, offset: 0x56741, size: 0x8, addend: 0x0, symName: __ZN5Eigen12DenseStorageIdLi3ELi3ELi1ELi0EE4colsEv, symObjAddr: 0x14440, symBinAddr: 0x10001865C, symSize: 0x8 }
  - { offsetInCU: 0x56755, offset: 0x56755, size: 0x8, addend: 0x0, symName: __ZN5Eigen12DenseStorageIdLi3ELi3ELi1ELi0EE4dataEv, symObjAddr: 0x144AC, symBinAddr: 0x1000186C8, symSize: 0x14 }
  - { offsetInCU: 0x5677B, offset: 0x5677B, size: 0x8, addend: 0x0, symName: __ZNK5Eigen9EigenBaseINS_6MatrixIdLi3ELi1ELi0ELi3ELi1EEEE4rowsEv, symObjAddr: 0x144C0, symBinAddr: 0x1000186DC, symSize: 0x38 }
  - { offsetInCU: 0x567A1, offset: 0x567A1, size: 0x8, addend: 0x0, symName: __ZNK5Eigen9EigenBaseINS_6MatrixIdLi3ELi1ELi0ELi3ELi1EEEE4colsEv, symObjAddr: 0x144F8, symBinAddr: 0x100018714, symSize: 0x28 }
  - { offsetInCU: 0x567C7, offset: 0x567C7, size: 0x8, addend: 0x0, symName: __ZNK5Eigen9EigenBaseINS_6MatrixIdLi3ELi1ELi0ELi3ELi1EEEE7derivedEv, symObjAddr: 0x14520, symBinAddr: 0x10001873C, symSize: 0x14 }
  - { offsetInCU: 0x567ED, offset: 0x567ED, size: 0x8, addend: 0x0, symName: __ZN5Eigen8internal9assign_opIddEC2Ev, symObjAddr: 0x14534, symBinAddr: 0x100018750, symSize: 0x14 }
  - { offsetInCU: 0x56817, offset: 0x56817, size: 0x8, addend: 0x0, symName: __ZNSt3__16vectorINS_5arrayIiLm4EEENS_9allocatorIS2_EEE8__appendEm, symObjAddr: 0x14548, symBinAddr: 0x100018764, symSize: 0x108 }
  - { offsetInCU: 0x56872, offset: 0x56872, size: 0x8, addend: 0x0, symName: __ZNSt3__16vectorINS_5arrayIiLm4EEENS_9allocatorIS2_EEE17__destruct_at_endB8ue170006EPS2_, symObjAddr: 0x14650, symBinAddr: 0x10001886C, symSize: 0x4C }
  - { offsetInCU: 0x568B6, offset: 0x568B6, size: 0x8, addend: 0x0, symName: __ZNSt3__16vectorINS_5arrayIiLm4EEENS_9allocatorIS2_EEE9__end_capB8ue170006Ev, symObjAddr: 0x1469C, symBinAddr: 0x1000188B8, symSize: 0x28 }
  - { offsetInCU: 0x568DC, offset: 0x568DC, size: 0x8, addend: 0x0, symName: __ZNSt3__16vectorINS_5arrayIiLm4EEENS_9allocatorIS2_EEE18__construct_at_endEm, symObjAddr: 0x146C4, symBinAddr: 0x1000188E0, symSize: 0xC8 }
  - { offsetInCU: 0x5694E, offset: 0x5694E, size: 0x8, addend: 0x0, symName: __ZNKSt3__16vectorINS_5arrayIiLm4EEENS_9allocatorIS2_EEE11__recommendB8ue170006Em, symObjAddr: 0x1478C, symBinAddr: 0x1000189A8, symSize: 0xB4 }
  - { offsetInCU: 0x569A3, offset: 0x569A3, size: 0x8, addend: 0x0, symName: __ZNSt3__114__split_bufferINS_5arrayIiLm4EEERNS_9allocatorIS2_EEEC1EmmS5_, symObjAddr: 0x14840, symBinAddr: 0x100018A5C, symSize: 0x44 }
  - { offsetInCU: 0x569F9, offset: 0x569F9, size: 0x8, addend: 0x0, symName: __ZNSt3__114__split_bufferINS_5arrayIiLm4EEERNS_9allocatorIS2_EEE18__construct_at_endEm, symObjAddr: 0x14884, symBinAddr: 0x100018AA0, symSize: 0xB4 }
  - { offsetInCU: 0x56A3E, offset: 0x56A3E, size: 0x8, addend: 0x0, symName: __ZNSt3__114__split_bufferINS_5arrayIiLm4EEERNS_9allocatorIS2_EEED1Ev, symObjAddr: 0x14A48, symBinAddr: 0x100018C64, symSize: 0x2C }
  - { offsetInCU: 0x56A6A, offset: 0x56A6A, size: 0x8, addend: 0x0, symName: __ZNSt3__117__compressed_pairIPNS_5arrayIiLm4EEENS_9allocatorIS2_EEE5firstB8ue170006Ev, symObjAddr: 0x14A74, symBinAddr: 0x100018C90, symSize: 0x24 }
  - { offsetInCU: 0x56A90, offset: 0x56A90, size: 0x8, addend: 0x0, symName: __ZNSt3__122__compressed_pair_elemIPNS_5arrayIiLm4EEELi0ELb0EE5__getB8ue170006Ev, symObjAddr: 0x14A98, symBinAddr: 0x100018CB4, symSize: 0x14 }
  - { offsetInCU: 0x56ACF, offset: 0x56ACF, size: 0x8, addend: 0x0, symName: __ZNSt3__16vectorINS_5arrayIiLm4EEENS_9allocatorIS2_EEE21_ConstructTransactionC1B8ue170006ERS5_m, symObjAddr: 0x14AAC, symBinAddr: 0x100018CC8, symSize: 0x3C }
  - { offsetInCU: 0x56B17, offset: 0x56B17, size: 0x8, addend: 0x0, symName: __ZNSt3__116allocator_traitsINS_9allocatorINS_5arrayIiLm4EEEEEE9constructB8ue170006IS3_JEvEEvRS4_PT_DpOT0_, symObjAddr: 0x14AE8, symBinAddr: 0x100018D04, symSize: 0x2C }
  - { offsetInCU: 0x56B59, offset: 0x56B59, size: 0x8, addend: 0x0, symName: __ZNSt3__16vectorINS_5arrayIiLm4EEENS_9allocatorIS2_EEE21_ConstructTransactionD1B8ue170006Ev, symObjAddr: 0x14B14, symBinAddr: 0x100018D30, symSize: 0x2C }
  - { offsetInCU: 0x56B83, offset: 0x56B83, size: 0x8, addend: 0x0, symName: __ZNSt3__16vectorINS_5arrayIiLm4EEENS_9allocatorIS2_EEE21_ConstructTransactionC2B8ue170006ERS5_m, symObjAddr: 0x14B40, symBinAddr: 0x100018D5C, symSize: 0x44 }
  - { offsetInCU: 0x56BCB, offset: 0x56BCB, size: 0x8, addend: 0x0, symName: __ZNSt3__19allocatorINS_5arrayIiLm4EEEE9constructB8ue170006IS2_JEEEvPT_DpOT0_, symObjAddr: 0x14B84, symBinAddr: 0x100018DA0, symSize: 0x20 }
  - { offsetInCU: 0x56C0D, offset: 0x56C0D, size: 0x8, addend: 0x0, symName: __ZNSt3__16vectorINS_5arrayIiLm4EEENS_9allocatorIS2_EEE21_ConstructTransactionD2B8ue170006Ev, symObjAddr: 0x14BA4, symBinAddr: 0x100018DC0, symSize: 0x20 }
  - { offsetInCU: 0x56C37, offset: 0x56C37, size: 0x8, addend: 0x0, symName: __ZNKSt3__16vectorINS_5arrayIiLm4EEENS_9allocatorIS2_EEE8max_sizeEv, symObjAddr: 0x14BC4, symBinAddr: 0x100018DE0, symSize: 0x60 }
  - { offsetInCU: 0x56C5F, offset: 0x56C5F, size: 0x8, addend: 0x0, symName: __ZNKSt3__16vectorINS_5arrayIiLm4EEENS_9allocatorIS2_EEE20__throw_length_errorB8ue170006Ev, symObjAddr: 0x14C24, symBinAddr: 0x100018E40, symSize: 0x1C }
  - { offsetInCU: 0x56C8F, offset: 0x56C8F, size: 0x8, addend: 0x0, symName: __ZNSt3__116allocator_traitsINS_9allocatorINS_5arrayIiLm4EEEEEE8max_sizeB8ue170006IS4_vEEmRKS4_, symObjAddr: 0x14C40, symBinAddr: 0x100018E5C, symSize: 0x24 }
  - { offsetInCU: 0x56CBD, offset: 0x56CBD, size: 0x8, addend: 0x0, symName: __ZNKSt3__16vectorINS_5arrayIiLm4EEENS_9allocatorIS2_EEE7__allocB8ue170006Ev, symObjAddr: 0x14C64, symBinAddr: 0x100018E80, symSize: 0x28 }
  - { offsetInCU: 0x56CE3, offset: 0x56CE3, size: 0x8, addend: 0x0, symName: __ZNKSt3__19allocatorINS_5arrayIiLm4EEEE8max_sizeB8ue170006Ev, symObjAddr: 0x14C8C, symBinAddr: 0x100018EA8, symSize: 0x14 }
  - { offsetInCU: 0x56D09, offset: 0x56D09, size: 0x8, addend: 0x0, symName: __ZNKSt3__117__compressed_pairIPNS_5arrayIiLm4EEENS_9allocatorIS2_EEE6secondB8ue170006Ev, symObjAddr: 0x14CA0, symBinAddr: 0x100018EBC, symSize: 0x24 }
  - { offsetInCU: 0x56D2F, offset: 0x56D2F, size: 0x8, addend: 0x0, symName: __ZNKSt3__122__compressed_pair_elemINS_9allocatorINS_5arrayIiLm4EEEEELi1ELb1EE5__getB8ue170006Ev, symObjAddr: 0x14CC4, symBinAddr: 0x100018EE0, symSize: 0x14 }
  - { offsetInCU: 0x56D55, offset: 0x56D55, size: 0x8, addend: 0x0, symName: __ZNSt3__114__split_bufferINS_5arrayIiLm4EEERNS_9allocatorIS2_EEEC2EmmS5_, symObjAddr: 0x14CD8, symBinAddr: 0x100018EF4, symSize: 0xD4 }
  - { offsetInCU: 0x56DC8, offset: 0x56DC8, size: 0x8, addend: 0x0, symName: __ZNSt3__117__compressed_pairIPNS_5arrayIiLm4EEERNS_9allocatorIS2_EEEC1B8ue170006IDnS6_EEOT_OT0_, symObjAddr: 0x14DAC, symBinAddr: 0x100018FC8, symSize: 0x3C }
  - { offsetInCU: 0x56E20, offset: 0x56E20, size: 0x8, addend: 0x0, symName: __ZNSt3__114__split_bufferINS_5arrayIiLm4EEERNS_9allocatorIS2_EEE7__allocB8ue170006Ev, symObjAddr: 0x14E28, symBinAddr: 0x100019044, symSize: 0x28 }
  - { offsetInCU: 0x56E46, offset: 0x56E46, size: 0x8, addend: 0x0, symName: __ZNSt3__114__split_bufferINS_5arrayIiLm4EEERNS_9allocatorIS2_EEE9__end_capB8ue170006Ev, symObjAddr: 0x14E50, symBinAddr: 0x10001906C, symSize: 0x28 }
  - { offsetInCU: 0x56E6C, offset: 0x56E6C, size: 0x8, addend: 0x0, symName: __ZNSt3__117__compressed_pairIPNS_5arrayIiLm4EEERNS_9allocatorIS2_EEEC2B8ue170006IDnS6_EEOT_OT0_, symObjAddr: 0x14E78, symBinAddr: 0x100019094, symSize: 0x48 }
  - { offsetInCU: 0x56EC4, offset: 0x56EC4, size: 0x8, addend: 0x0, symName: __ZNSt3__122__compressed_pair_elemIRNS_9allocatorINS_5arrayIiLm4EEEEELi1ELb0EEC2B8ue170006IS5_vEEOT_, symObjAddr: 0x14EC0, symBinAddr: 0x1000190DC, symSize: 0x20 }
  - { offsetInCU: 0x56F06, offset: 0x56F06, size: 0x8, addend: 0x0, symName: __ZNSt3__19allocatorINS_5arrayIiLm4EEEE8allocateB8ue170006Em, symObjAddr: 0x14EE0, symBinAddr: 0x1000190FC, symSize: 0x58 }
  - { offsetInCU: 0x56F3A, offset: 0x56F3A, size: 0x8, addend: 0x0, symName: __ZNSt3__117__compressed_pairIPNS_5arrayIiLm4EEERNS_9allocatorIS2_EEE6secondB8ue170006Ev, symObjAddr: 0x14F38, symBinAddr: 0x100019154, symSize: 0x28 }
  - { offsetInCU: 0x56F60, offset: 0x56F60, size: 0x8, addend: 0x0, symName: __ZNSt3__122__compressed_pair_elemIRNS_9allocatorINS_5arrayIiLm4EEEEELi1ELb0EE5__getB8ue170006Ev, symObjAddr: 0x14F60, symBinAddr: 0x10001917C, symSize: 0x18 }
  - { offsetInCU: 0x56F86, offset: 0x56F86, size: 0x8, addend: 0x0, symName: __ZNSt3__117__compressed_pairIPNS_5arrayIiLm4EEERNS_9allocatorIS2_EEE5firstB8ue170006Ev, symObjAddr: 0x14F78, symBinAddr: 0x100019194, symSize: 0x24 }
  - { offsetInCU: 0x56FB6, offset: 0x56FB6, size: 0x8, addend: 0x0, symName: __ZNSt3__114__split_bufferINS_5arrayIiLm4EEERNS_9allocatorIS2_EEE21_ConstructTransactionC1B8ue170006EPPS2_m, symObjAddr: 0x14F9C, symBinAddr: 0x1000191B8, symSize: 0x3C }
  - { offsetInCU: 0x56FFC, offset: 0x56FFC, size: 0x8, addend: 0x0, symName: __ZNSt3__114__split_bufferINS_5arrayIiLm4EEERNS_9allocatorIS2_EEE21_ConstructTransactionD1B8ue170006Ev, symObjAddr: 0x14FD8, symBinAddr: 0x1000191F4, symSize: 0x2C }
  - { offsetInCU: 0x57026, offset: 0x57026, size: 0x8, addend: 0x0, symName: __ZNSt3__114__split_bufferINS_5arrayIiLm4EEERNS_9allocatorIS2_EEE21_ConstructTransactionC2B8ue170006EPPS2_m, symObjAddr: 0x15004, symBinAddr: 0x100019220, symSize: 0x44 }
  - { offsetInCU: 0x5706C, offset: 0x5706C, size: 0x8, addend: 0x0, symName: __ZNSt3__114__split_bufferINS_5arrayIiLm4EEERNS_9allocatorIS2_EEE21_ConstructTransactionD2B8ue170006Ev, symObjAddr: 0x15048, symBinAddr: 0x100019264, symSize: 0x20 }
  - { offsetInCU: 0x57096, offset: 0x57096, size: 0x8, addend: 0x0, symName: __ZNSt3__116reverse_iteratorIPNS_5arrayIiLm4EEEEC1B8ue170006ES3_, symObjAddr: 0x150E0, symBinAddr: 0x1000192FC, symSize: 0x34 }
  - { offsetInCU: 0x570CE, offset: 0x570CE, size: 0x8, addend: 0x0, symName: __ZNKSt3__116reverse_iteratorIPNS_5arrayIiLm4EEEE4baseB8ue170006Ev, symObjAddr: 0x15114, symBinAddr: 0x100019330, symSize: 0x18 }
  - { offsetInCU: 0x570F4, offset: 0x570F4, size: 0x8, addend: 0x0, symName: __ZNKSt3__16vectorINS_5arrayIiLm4EEENS_9allocatorIS2_EEE14__annotate_newB8ue170006Em, symObjAddr: 0x15168, symBinAddr: 0x100019384, symSize: 0xAC }
  - { offsetInCU: 0x57143, offset: 0x57143, size: 0x8, addend: 0x0, symName: __ZNKSt3__111__move_loopINS_17_ClassicAlgPolicyEEclB8ue170006INS_16reverse_iteratorIPNS_5arrayIiLm4EEEEES8_S8_EENS_4pairIT_T1_EESA_T0_SB_, symObjAddr: 0x15504, symBinAddr: 0x100019720, symSize: 0xA0 }
  - { offsetInCU: 0x571B4, offset: 0x571B4, size: 0x8, addend: 0x0, symName: __ZNSt3__18_IterOpsINS_17_ClassicAlgPolicyEE11__iter_moveB8ue170006IRNS_16reverse_iteratorIPNS_5arrayIiLm4EEEEEEENS_9enable_ifIXsr12is_referenceIDTdeclsr3stdE7declvalIRT_EEEEE5valueEDTclsr3stdE4movedeclsr3stdE7declvalISC_EEEEE4typeEOSB_, symObjAddr: 0x15738, symBinAddr: 0x100019954, symSize: 0x28 }
  - { offsetInCU: 0x571E0, offset: 0x571E0, size: 0x8, addend: 0x0, symName: __ZNKSt3__116reverse_iteratorIPNS_5arrayIiLm4EEEEdeB8ue170006Ev, symObjAddr: 0x15760, symBinAddr: 0x10001997C, symSize: 0x28 }
  - { offsetInCU: 0x57214, offset: 0x57214, size: 0x8, addend: 0x0, symName: __ZNSt3__116reverse_iteratorIPNS_5arrayIiLm4EEEEppB8ue170006Ev, symObjAddr: 0x15788, symBinAddr: 0x1000199A4, symSize: 0x20 }
  - { offsetInCU: 0x5723A, offset: 0x5723A, size: 0x8, addend: 0x0, symName: __ZNSt3__18_IterOpsINS_17_ClassicAlgPolicyEE25__validate_iter_referenceB8ue170006IRNS_16reverse_iteratorIPNS_5arrayIiLm4EEEEEEEvv, symObjAddr: 0x157A8, symBinAddr: 0x1000199C4, symSize: 0x4 }
  - { offsetInCU: 0x57258, offset: 0x57258, size: 0x8, addend: 0x0, symName: __ZNSt3__118__unwrap_iter_implINS_16reverse_iteratorIPNS_5arrayIiLm4EEEEELb0EE8__unwrapB8ue170006ES5_, symObjAddr: 0x157AC, symBinAddr: 0x1000199C8, symSize: 0x24 }
  - { offsetInCU: 0x57281, offset: 0x57281, size: 0x8, addend: 0x0, symName: __ZNSt3__14pairINS_16reverse_iteratorIPNS_5arrayIiLm4EEEEES5_EC1B8ue170006IS5_S5_LPv0EEEOT_OT0_, symObjAddr: 0x157D0, symBinAddr: 0x1000199EC, symSize: 0x3C }
  - { offsetInCU: 0x572DF, offset: 0x572DF, size: 0x8, addend: 0x0, symName: __ZNSt3__14pairINS_16reverse_iteratorIPNS_5arrayIiLm4EEEEES5_EC2B8ue170006IS5_S5_LPv0EEEOT_OT0_, symObjAddr: 0x1580C, symBinAddr: 0x100019A28, symSize: 0x34 }
  - { offsetInCU: 0x5733D, offset: 0x5733D, size: 0x8, addend: 0x0, symName: __ZNSt3__118__unwrap_iter_implINS_16reverse_iteratorIPNS_5arrayIiLm4EEEEELb0EE8__rewrapB8ue170006ES5_S5_, symObjAddr: 0x15840, symBinAddr: 0x100019A5C, symSize: 0x2C }
  - { offsetInCU: 0x5736B, offset: 0x5736B, size: 0x8, addend: 0x0, symName: __ZNSt3__116reverse_iteratorIPNS_5arrayIiLm4EEEEC2B8ue170006ES3_, symObjAddr: 0x1586C, symBinAddr: 0x100019A88, symSize: 0x28 }
  - { offsetInCU: 0x573A3, offset: 0x573A3, size: 0x8, addend: 0x0, symName: __ZNSt3__114__split_bufferINS_5arrayIiLm4EEERNS_9allocatorIS2_EEED2Ev, symObjAddr: 0x15894, symBinAddr: 0x100019AB0, symSize: 0x8C }
  - { offsetInCU: 0x573CF, offset: 0x573CF, size: 0x8, addend: 0x0, symName: __ZNSt3__114__split_bufferINS_5arrayIiLm4EEERNS_9allocatorIS2_EEE5clearB8ue170006Ev, symObjAddr: 0x15920, symBinAddr: 0x100019B3C, symSize: 0x28 }
  - { offsetInCU: 0x573F5, offset: 0x573F5, size: 0x8, addend: 0x0, symName: __ZNKSt3__114__split_bufferINS_5arrayIiLm4EEERNS_9allocatorIS2_EEE8capacityB8ue170006Ev, symObjAddr: 0x15948, symBinAddr: 0x100019B64, symSize: 0x40 }
  - { offsetInCU: 0x5741B, offset: 0x5741B, size: 0x8, addend: 0x0, symName: __ZNSt3__114__split_bufferINS_5arrayIiLm4EEERNS_9allocatorIS2_EEE17__destruct_at_endB8ue170006EPS2_, symObjAddr: 0x15988, symBinAddr: 0x100019BA4, symSize: 0x2C }
  - { offsetInCU: 0x5744F, offset: 0x5744F, size: 0x8, addend: 0x0, symName: __ZNSt3__114__split_bufferINS_5arrayIiLm4EEERNS_9allocatorIS2_EEE17__destruct_at_endB8ue170006EPS2_NS_17integral_constantIbLb0EEE, symObjAddr: 0x159B4, symBinAddr: 0x100019BD0, symSize: 0x80 }
  - { offsetInCU: 0x57490, offset: 0x57490, size: 0x8, addend: 0x0, symName: __ZNKSt3__114__split_bufferINS_5arrayIiLm4EEERNS_9allocatorIS2_EEE9__end_capB8ue170006Ev, symObjAddr: 0x15A34, symBinAddr: 0x100019C50, symSize: 0x28 }
  - { offsetInCU: 0x574B6, offset: 0x574B6, size: 0x8, addend: 0x0, symName: __ZNKSt3__117__compressed_pairIPNS_5arrayIiLm4EEERNS_9allocatorIS2_EEE5firstB8ue170006Ev, symObjAddr: 0x15A5C, symBinAddr: 0x100019C78, symSize: 0x24 }
  - { offsetInCU: 0x574DC, offset: 0x574DC, size: 0x8, addend: 0x0, symName: __ZNKSt3__16vectorINS_5arrayIiLm4EEENS_9allocatorIS2_EEE17__annotate_shrinkB8ue170006Em, symObjAddr: 0x15A80, symBinAddr: 0x100019C9C, symSize: 0xB4 }
  - { offsetInCU: 0x57511, offset: 0x57511, size: 0x8, addend: 0x0, symName: __ZN5Eigen6MatrixIdLi3ELi1ELi0ELi3ELi1EEC2ERKS1_, symObjAddr: 0x15B34, symBinAddr: 0x100019D50, symSize: 0x34 }
  - { offsetInCU: 0x5754A, offset: 0x5754A, size: 0x8, addend: 0x0, symName: __ZN5Eigen15PlainObjectBaseINS_6MatrixIdLi3ELi1ELi0ELi3ELi1EEEEC2ERKS3_, symObjAddr: 0x15B68, symBinAddr: 0x100019D84, symSize: 0x44 }
  - { offsetInCU: 0x57583, offset: 0x57583, size: 0x8, addend: 0x0, symName: __ZN5Eigen8internal20scalar_difference_opIddEC1Ev, symObjAddr: 0x15BAC, symBinAddr: 0x100019DC8, symSize: 0x2C }
  - { offsetInCU: 0x575AD, offset: 0x575AD, size: 0x8, addend: 0x0, symName: __ZN5Eigen13CwiseBinaryOpINS_8internal20scalar_difference_opIddEEKNS_6MatrixIdLi3ELi1ELi0ELi3ELi1EEES6_EC1ERS6_S8_RKS3_, symObjAddr: 0x15BD8, symBinAddr: 0x100019DF4, symSize: 0x44 }
  - { offsetInCU: 0x57601, offset: 0x57601, size: 0x8, addend: 0x0, symName: __ZN5Eigen8internal20scalar_difference_opIddEC2Ev, symObjAddr: 0x15C1C, symBinAddr: 0x100019E38, symSize: 0x14 }
  - { offsetInCU: 0x5762B, offset: 0x5762B, size: 0x8, addend: 0x0, symName: __ZN5Eigen13CwiseBinaryOpINS_8internal20scalar_difference_opIddEEKNS_6MatrixIdLi3ELi1ELi0ELi3ELi1EEES6_EC2ERS6_S8_RKS3_, symObjAddr: 0x15C30, symBinAddr: 0x100019E4C, symSize: 0xF0 }
  - { offsetInCU: 0x57684, offset: 0x57684, size: 0x8, addend: 0x0, symName: __ZN5Eigen17CwiseBinaryOpImplINS_8internal20scalar_difference_opIddEEKNS_6MatrixIdLi3ELi1ELi0ELi3ELi1EEES6_NS_5DenseEEC2Ev, symObjAddr: 0x15D20, symBinAddr: 0x100019F3C, symSize: 0x2C }
  - { offsetInCU: 0x576B0, offset: 0x576B0, size: 0x8, addend: 0x0, symName: __ZN5Eigen8internal20scalar_difference_opIddEC1ERKS2_, symObjAddr: 0x15D4C, symBinAddr: 0x100019F68, symSize: 0x34 }
  - { offsetInCU: 0x576E5, offset: 0x576E5, size: 0x8, addend: 0x0, symName: __ZN5Eigen10MatrixBaseINS_13CwiseBinaryOpINS_8internal20scalar_difference_opIddEEKNS_6MatrixIdLi3ELi1ELi0ELi3ELi1EEES7_EEEC2Ev, symObjAddr: 0x15D80, symBinAddr: 0x100019F9C, symSize: 0x2C }
  - { offsetInCU: 0x5770F, offset: 0x5770F, size: 0x8, addend: 0x0, symName: __ZN5Eigen9DenseBaseINS_13CwiseBinaryOpINS_8internal20scalar_difference_opIddEEKNS_6MatrixIdLi3ELi1ELi0ELi3ELi1EEES7_EEEC2Ev, symObjAddr: 0x15DAC, symBinAddr: 0x100019FC8, symSize: 0x14 }
  - { offsetInCU: 0x57739, offset: 0x57739, size: 0x8, addend: 0x0, symName: __ZN5Eigen8internal20scalar_difference_opIddEC2ERKS2_, symObjAddr: 0x15DC0, symBinAddr: 0x100019FDC, symSize: 0x18 }
  - { offsetInCU: 0x5776E, offset: 0x5776E, size: 0x8, addend: 0x0, symName: __ZNK5Eigen9EigenBaseINS_13CwiseBinaryOpINS_8internal20scalar_difference_opIddEEKNS_6MatrixIdLi3ELi1ELi0ELi3ELi1EEES7_EEE7derivedEv, symObjAddr: 0x15DD8, symBinAddr: 0x100019FF4, symSize: 0x14 }
  - { offsetInCU: 0x57794, offset: 0x57794, size: 0x8, addend: 0x0, symName: __ZN5Eigen13CwiseBinaryOpINS_8internal20scalar_difference_opIddEEKNS_6MatrixIdLi3ELi1ELi0ELi3ELi1EEES6_EC1ERKS7_, symObjAddr: 0x15DEC, symBinAddr: 0x10001A008, symSize: 0x34 }
  - { offsetInCU: 0x577C9, offset: 0x577C9, size: 0x8, addend: 0x0, symName: __ZNK5Eigen15DenseCoeffsBaseINS_13CwiseBinaryOpINS_8internal20scalar_difference_opIddEEKNS_6MatrixIdLi3ELi1ELi0ELi3ELi1EEES7_EELi0EE5coeffEl, symObjAddr: 0x15E44, symBinAddr: 0x10001A060, symSize: 0x78 }
  - { offsetInCU: 0x577FD, offset: 0x577FD, size: 0x8, addend: 0x0, symName: __ZN5Eigen13CwiseBinaryOpINS_8internal20scalar_difference_opIddEEKNS_6MatrixIdLi3ELi1ELi0ELi3ELi1EEES6_EC2ERKS7_, symObjAddr: 0x15EBC, symBinAddr: 0x10001A0D8, symSize: 0x48 }
  - { offsetInCU: 0x57832, offset: 0x57832, size: 0x8, addend: 0x0, symName: __ZN5Eigen8internal17conj_default_implIdLb0EE3runERKd, symObjAddr: 0x15F04, symBinAddr: 0x10001A120, symSize: 0x18 }
  - { offsetInCU: 0x57855, offset: 0x57855, size: 0x8, addend: 0x0, symName: __ZN5Eigen8internal9evaluatorINS_13CwiseBinaryOpINS0_20scalar_difference_opIddEEKNS_6MatrixIdLi3ELi1ELi0ELi3ELi1EEES7_EEEC1ERKS8_, symObjAddr: 0x15F1C, symBinAddr: 0x10001A138, symSize: 0x34 }
  - { offsetInCU: 0x5788E, offset: 0x5788E, size: 0x8, addend: 0x0, symName: __ZNK5Eigen8internal16binary_evaluatorINS_13CwiseBinaryOpINS0_20scalar_difference_opIddEEKNS_6MatrixIdLi3ELi1ELi0ELi3ELi1EEES7_EENS0_10IndexBasedES9_ddE5coeffEl, symObjAddr: 0x15F50, symBinAddr: 0x10001A16C, symSize: 0x64 }
  - { offsetInCU: 0x578C3, offset: 0x578C3, size: 0x8, addend: 0x0, symName: __ZN5Eigen8internal9evaluatorINS_13CwiseBinaryOpINS0_20scalar_difference_opIddEEKNS_6MatrixIdLi3ELi1ELi0ELi3ELi1EEES7_EEED1Ev, symObjAddr: 0x15FB4, symBinAddr: 0x10001A1D0, symSize: 0x2C }
  - { offsetInCU: 0x578F0, offset: 0x578F0, size: 0x8, addend: 0x0, symName: __ZN5Eigen8internal9evaluatorINS_13CwiseBinaryOpINS0_20scalar_difference_opIddEEKNS_6MatrixIdLi3ELi1ELi0ELi3ELi1EEES7_EEEC2ERKS8_, symObjAddr: 0x15FE0, symBinAddr: 0x10001A1FC, symSize: 0x34 }
  - { offsetInCU: 0x57929, offset: 0x57929, size: 0x8, addend: 0x0, symName: __ZN5Eigen8internal16binary_evaluatorINS_13CwiseBinaryOpINS0_20scalar_difference_opIddEEKNS_6MatrixIdLi3ELi1ELi0ELi3ELi1EEES7_EENS0_10IndexBasedES9_ddEC2ERKS8_, symObjAddr: 0x16014, symBinAddr: 0x10001A230, symSize: 0x64 }
  - { offsetInCU: 0x57962, offset: 0x57962, size: 0x8, addend: 0x0, symName: __ZN5Eigen8internal14evaluator_baseINS_13CwiseBinaryOpINS0_20scalar_difference_opIddEEKNS_6MatrixIdLi3ELi1ELi0ELi3ELi1EEES7_EEEC2Ev, symObjAddr: 0x16078, symBinAddr: 0x10001A294, symSize: 0x14 }
  - { offsetInCU: 0x5798C, offset: 0x5798C, size: 0x8, addend: 0x0, symName: __ZN5Eigen8internal16binary_evaluatorINS_13CwiseBinaryOpINS0_20scalar_difference_opIddEEKNS_6MatrixIdLi3ELi1ELi0ELi3ELi1EEES7_EENS0_10IndexBasedES9_ddE4DataC1ERKS8_, symObjAddr: 0x1608C, symBinAddr: 0x10001A2A8, symSize: 0x34 }
  - { offsetInCU: 0x579C5, offset: 0x579C5, size: 0x8, addend: 0x0, symName: __ZN5Eigen8internal14evaluator_baseINS_13CwiseBinaryOpINS0_20scalar_difference_opIddEEKNS_6MatrixIdLi3ELi1ELi0ELi3ELi1EEES7_EEED2Ev, symObjAddr: 0x160C0, symBinAddr: 0x10001A2DC, symSize: 0x14 }
  - { offsetInCU: 0x579EF, offset: 0x579EF, size: 0x8, addend: 0x0, symName: __ZN5Eigen8internal16binary_evaluatorINS_13CwiseBinaryOpINS0_20scalar_difference_opIddEEKNS_6MatrixIdLi3ELi1ELi0ELi3ELi1EEES7_EENS0_10IndexBasedES9_ddE4DataC2ERKS8_, symObjAddr: 0x160D4, symBinAddr: 0x10001A2F0, symSize: 0xA8 }
  - { offsetInCU: 0x57A28, offset: 0x57A28, size: 0x8, addend: 0x0, symName: __ZNK5Eigen13CwiseBinaryOpINS_8internal20scalar_difference_opIddEEKNS_6MatrixIdLi3ELi1ELi0ELi3ELi1EEES6_E7functorEv, symObjAddr: 0x1617C, symBinAddr: 0x10001A398, symSize: 0x18 }
  - { offsetInCU: 0x57A4E, offset: 0x57A4E, size: 0x8, addend: 0x0, symName: __ZNK5Eigen13CwiseBinaryOpINS_8internal20scalar_difference_opIddEEKNS_6MatrixIdLi3ELi1ELi0ELi3ELi1EEES6_E3lhsEv, symObjAddr: 0x16194, symBinAddr: 0x10001A3B0, symSize: 0x18 }
  - { offsetInCU: 0x57A74, offset: 0x57A74, size: 0x8, addend: 0x0, symName: __ZN5Eigen8internal9evaluatorIKNS_6MatrixIdLi3ELi1ELi0ELi3ELi1EEEEC1ERS4_, symObjAddr: 0x161AC, symBinAddr: 0x10001A3C8, symSize: 0x34 }
  - { offsetInCU: 0x57AAC, offset: 0x57AAC, size: 0x8, addend: 0x0, symName: __ZNK5Eigen13CwiseBinaryOpINS_8internal20scalar_difference_opIddEEKNS_6MatrixIdLi3ELi1ELi0ELi3ELi1EEES6_E3rhsEv, symObjAddr: 0x161E0, symBinAddr: 0x10001A3FC, symSize: 0x18 }
  - { offsetInCU: 0x57AD2, offset: 0x57AD2, size: 0x8, addend: 0x0, symName: __ZN5Eigen8internal9evaluatorIKNS_6MatrixIdLi3ELi1ELi0ELi3ELi1EEEED1Ev, symObjAddr: 0x161F8, symBinAddr: 0x10001A414, symSize: 0x2C }
  - { offsetInCU: 0x57AFE, offset: 0x57AFE, size: 0x8, addend: 0x0, symName: __ZN5Eigen8internal9evaluatorIKNS_6MatrixIdLi3ELi1ELi0ELi3ELi1EEEEC2ERS4_, symObjAddr: 0x16224, symBinAddr: 0x10001A440, symSize: 0x34 }
  - { offsetInCU: 0x57B36, offset: 0x57B36, size: 0x8, addend: 0x0, symName: __ZN5Eigen8internal9evaluatorINS_6MatrixIdLi3ELi1ELi0ELi3ELi1EEEEC2ERKS3_, symObjAddr: 0x16258, symBinAddr: 0x10001A474, symSize: 0x34 }
  - { offsetInCU: 0x57B6F, offset: 0x57B6F, size: 0x8, addend: 0x0, symName: __ZN5Eigen8internal9evaluatorINS_15PlainObjectBaseINS_6MatrixIdLi3ELi1ELi0ELi3ELi1EEEEEEC2ERKS5_, symObjAddr: 0x1628C, symBinAddr: 0x10001A4A8, symSize: 0x78 }
  - { offsetInCU: 0x57BA7, offset: 0x57BA7, size: 0x8, addend: 0x0, symName: __ZN5Eigen8internal14evaluator_baseINS_6MatrixIdLi3ELi1ELi0ELi3ELi1EEEEC2Ev, symObjAddr: 0x16304, symBinAddr: 0x10001A520, symSize: 0x14 }
  - { offsetInCU: 0x57BD1, offset: 0x57BD1, size: 0x8, addend: 0x0, symName: __ZNK5Eigen15PlainObjectBaseINS_6MatrixIdLi3ELi1ELi0ELi3ELi1EEEE4dataEv, symObjAddr: 0x16318, symBinAddr: 0x10001A534, symSize: 0x24 }
  - { offsetInCU: 0x57BF7, offset: 0x57BF7, size: 0x8, addend: 0x0, symName: __ZN5Eigen8internal30plainobjectbase_evaluator_dataIdLi0EEC1EPKdl, symObjAddr: 0x1633C, symBinAddr: 0x10001A558, symSize: 0x3C }
  - { offsetInCU: 0x57C3D, offset: 0x57C3D, size: 0x8, addend: 0x0, symName: __ZN5Eigen8internal14evaluator_baseINS_6MatrixIdLi3ELi1ELi0ELi3ELi1EEEED2Ev, symObjAddr: 0x16378, symBinAddr: 0x10001A594, symSize: 0x14 }
  - { offsetInCU: 0x57C67, offset: 0x57C67, size: 0x8, addend: 0x0, symName: __ZNK5Eigen12DenseStorageIdLi3ELi3ELi1ELi0EE4dataEv, symObjAddr: 0x1638C, symBinAddr: 0x10001A5A8, symSize: 0x14 }
  - { offsetInCU: 0x57C8D, offset: 0x57C8D, size: 0x8, addend: 0x0, symName: __ZN5Eigen8internal30plainobjectbase_evaluator_dataIdLi0EEC2EPKdl, symObjAddr: 0x163A0, symBinAddr: 0x10001A5BC, symSize: 0x40 }
  - { offsetInCU: 0x57CD3, offset: 0x57CD3, size: 0x8, addend: 0x0, symName: __ZN5Eigen8internal9evaluatorIKNS_6MatrixIdLi3ELi1ELi0ELi3ELi1EEEED2Ev, symObjAddr: 0x163F0, symBinAddr: 0x10001A60C, symSize: 0x2C }
  - { offsetInCU: 0x57CFF, offset: 0x57CFF, size: 0x8, addend: 0x0, symName: __ZN5Eigen8internal9evaluatorINS_6MatrixIdLi3ELi1ELi0ELi3ELi1EEEED2Ev, symObjAddr: 0x1641C, symBinAddr: 0x10001A638, symSize: 0x2C }
  - { offsetInCU: 0x57D2C, offset: 0x57D2C, size: 0x8, addend: 0x0, symName: __ZN5Eigen8internal9evaluatorINS_15PlainObjectBaseINS_6MatrixIdLi3ELi1ELi0ELi3ELi1EEEEEED2Ev, symObjAddr: 0x16448, symBinAddr: 0x10001A664, symSize: 0x2C }
  - { offsetInCU: 0x57D58, offset: 0x57D58, size: 0x8, addend: 0x0, symName: __ZNK5Eigen8internal16binary_evaluatorINS_13CwiseBinaryOpINS0_20scalar_difference_opIddEEKNS_6MatrixIdLi3ELi1ELi0ELi3ELi1EEES7_EENS0_10IndexBasedES9_ddE4Data4funcEv, symObjAddr: 0x16474, symBinAddr: 0x10001A690, symSize: 0x14 }
  - { offsetInCU: 0x57D7E, offset: 0x57D7E, size: 0x8, addend: 0x0, symName: __ZNK5Eigen8internal20scalar_difference_opIddEclERKdS4_, symObjAddr: 0x16488, symBinAddr: 0x10001A6A4, symSize: 0x2C }
  - { offsetInCU: 0x57DC2, offset: 0x57DC2, size: 0x8, addend: 0x0, symName: __ZNK5Eigen8internal9evaluatorINS_15PlainObjectBaseINS_6MatrixIdLi3ELi1ELi0ELi3ELi1EEEEEE5coeffEl, symObjAddr: 0x164B4, symBinAddr: 0x10001A6D0, symSize: 0x24 }
  - { offsetInCU: 0x57DF6, offset: 0x57DF6, size: 0x8, addend: 0x0, symName: __ZN5Eigen8internal9evaluatorINS_13CwiseBinaryOpINS0_20scalar_difference_opIddEEKNS_6MatrixIdLi3ELi1ELi0ELi3ELi1EEES7_EEED2Ev, symObjAddr: 0x164D8, symBinAddr: 0x10001A6F4, symSize: 0x2C }
  - { offsetInCU: 0x57E23, offset: 0x57E23, size: 0x8, addend: 0x0, symName: __ZN5Eigen8internal16binary_evaluatorINS_13CwiseBinaryOpINS0_20scalar_difference_opIddEEKNS_6MatrixIdLi3ELi1ELi0ELi3ELi1EEES7_EENS0_10IndexBasedES9_ddED2Ev, symObjAddr: 0x16504, symBinAddr: 0x10001A720, symSize: 0x34 }
  - { offsetInCU: 0x57E4F, offset: 0x57E4F, size: 0x8, addend: 0x0, symName: __ZN5Eigen8internal16binary_evaluatorINS_13CwiseBinaryOpINS0_20scalar_difference_opIddEEKNS_6MatrixIdLi3ELi1ELi0ELi3ELi1EEES7_EENS0_10IndexBasedES9_ddE4DataD1Ev, symObjAddr: 0x16538, symBinAddr: 0x10001A754, symSize: 0x2C }
  - { offsetInCU: 0x57E7C, offset: 0x57E7C, size: 0x8, addend: 0x0, symName: __ZN5Eigen8internal16binary_evaluatorINS_13CwiseBinaryOpINS0_20scalar_difference_opIddEEKNS_6MatrixIdLi3ELi1ELi0ELi3ELi1EEES7_EENS0_10IndexBasedES9_ddE4DataD2Ev, symObjAddr: 0x16564, symBinAddr: 0x10001A780, symSize: 0x3C }
  - { offsetInCU: 0x57EA9, offset: 0x57EA9, size: 0x8, addend: 0x0, symName: __ZNK5Eigen10MatrixBaseINS_6MatrixIdLi3ELi1ELi0ELi3ELi1EEEE11squaredNormEv, symObjAddr: 0x165A0, symBinAddr: 0x10001A7BC, symSize: 0x40 }
  - { offsetInCU: 0x57ED1, offset: 0x57ED1, size: 0x8, addend: 0x0, symName: __ZNK5Eigen10MatrixBaseINS_6MatrixIdLi3ELi1ELi0ELi3ELi1EEEE9cwiseAbs2Ev, symObjAddr: 0x16604, symBinAddr: 0x10001A820, symSize: 0x4C }
  - { offsetInCU: 0x57EF7, offset: 0x57EF7, size: 0x8, addend: 0x0, symName: __ZNK5Eigen9DenseBaseINS_12CwiseUnaryOpINS_8internal14scalar_abs2_opIdEEKNS_6MatrixIdLi3ELi1ELi0ELi3ELi1EEEEEE3sumEv, symObjAddr: 0x16650, symBinAddr: 0x10001A86C, symSize: 0x40 }
  - { offsetInCU: 0x57F20, offset: 0x57F20, size: 0x8, addend: 0x0, symName: __ZN5Eigen8internal17real_default_implIdLb0EE3runERKd, symObjAddr: 0x16690, symBinAddr: 0x10001A8AC, symSize: 0x18 }
  - { offsetInCU: 0x57F43, offset: 0x57F43, size: 0x8, addend: 0x0, symName: __ZN5Eigen8internal14scalar_abs2_opIdEC1Ev, symObjAddr: 0x166A8, symBinAddr: 0x10001A8C4, symSize: 0x2C }
  - { offsetInCU: 0x57F6D, offset: 0x57F6D, size: 0x8, addend: 0x0, symName: __ZN5Eigen12CwiseUnaryOpINS_8internal14scalar_abs2_opIdEEKNS_6MatrixIdLi3ELi1ELi0ELi3ELi1EEEEC1ERS6_RKS3_, symObjAddr: 0x166D4, symBinAddr: 0x10001A8F0, symSize: 0x3C }
  - { offsetInCU: 0x57FB3, offset: 0x57FB3, size: 0x8, addend: 0x0, symName: __ZN5Eigen8internal14scalar_abs2_opIdEC2Ev, symObjAddr: 0x16710, symBinAddr: 0x10001A92C, symSize: 0x14 }
  - { offsetInCU: 0x57FDD, offset: 0x57FDD, size: 0x8, addend: 0x0, symName: __ZN5Eigen12CwiseUnaryOpINS_8internal14scalar_abs2_opIdEEKNS_6MatrixIdLi3ELi1ELi0ELi3ELi1EEEEC2ERS6_RKS3_, symObjAddr: 0x16724, symBinAddr: 0x10001A940, symSize: 0x4C }
  - { offsetInCU: 0x58028, offset: 0x58028, size: 0x8, addend: 0x0, symName: __ZN5Eigen16CwiseUnaryOpImplINS_8internal14scalar_abs2_opIdEEKNS_6MatrixIdLi3ELi1ELi0ELi3ELi1EEENS_5DenseEEC2Ev, symObjAddr: 0x16770, symBinAddr: 0x10001A98C, symSize: 0x2C }
  - { offsetInCU: 0x58054, offset: 0x58054, size: 0x8, addend: 0x0, symName: __ZN5Eigen8internal14scalar_abs2_opIdEC1ERKS2_, symObjAddr: 0x1679C, symBinAddr: 0x10001A9B8, symSize: 0x34 }
  - { offsetInCU: 0x58089, offset: 0x58089, size: 0x8, addend: 0x0, symName: __ZN5Eigen10MatrixBaseINS_12CwiseUnaryOpINS_8internal14scalar_abs2_opIdEEKNS_6MatrixIdLi3ELi1ELi0ELi3ELi1EEEEEEC2Ev, symObjAddr: 0x167D0, symBinAddr: 0x10001A9EC, symSize: 0x2C }
  - { offsetInCU: 0x580B3, offset: 0x580B3, size: 0x8, addend: 0x0, symName: __ZN5Eigen9DenseBaseINS_12CwiseUnaryOpINS_8internal14scalar_abs2_opIdEEKNS_6MatrixIdLi3ELi1ELi0ELi3ELi1EEEEEEC2Ev, symObjAddr: 0x167FC, symBinAddr: 0x10001AA18, symSize: 0x14 }
  - { offsetInCU: 0x580DD, offset: 0x580DD, size: 0x8, addend: 0x0, symName: __ZN5Eigen8internal14scalar_abs2_opIdEC2ERKS2_, symObjAddr: 0x16810, symBinAddr: 0x10001AA2C, symSize: 0x18 }
  - { offsetInCU: 0x58112, offset: 0x58112, size: 0x8, addend: 0x0, symName: __ZNK5Eigen9EigenBaseINS_12CwiseUnaryOpINS_8internal14scalar_abs2_opIdEEKNS_6MatrixIdLi3ELi1ELi0ELi3ELi1EEEEEE7derivedEv, symObjAddr: 0x16828, symBinAddr: 0x10001AA44, symSize: 0x14 }
  - { offsetInCU: 0x58138, offset: 0x58138, size: 0x8, addend: 0x0, symName: __ZNK5Eigen9DenseBaseINS_12CwiseUnaryOpINS_8internal14scalar_abs2_opIdEEKNS_6MatrixIdLi3ELi1ELi0ELi3ELi1EEEEEE5reduxINS2_13scalar_sum_opIddEEEEdRKT_, symObjAddr: 0x1683C, symBinAddr: 0x10001AA58, symSize: 0x10C }
  - { offsetInCU: 0x58194, offset: 0x58194, size: 0x8, addend: 0x0, symName: __ZN5Eigen8internal13scalar_sum_opIddEC1Ev, symObjAddr: 0x16948, symBinAddr: 0x10001AB64, symSize: 0x2C }
  - { offsetInCU: 0x581BE, offset: 0x581BE, size: 0x8, addend: 0x0, symName: __ZNK5Eigen9EigenBaseINS_12CwiseUnaryOpINS_8internal14scalar_abs2_opIdEEKNS_6MatrixIdLi3ELi1ELi0ELi3ELi1EEEEEE4rowsEv, symObjAddr: 0x16974, symBinAddr: 0x10001AB90, symSize: 0x28 }
  - { offsetInCU: 0x581E4, offset: 0x581E4, size: 0x8, addend: 0x0, symName: __ZNK5Eigen9EigenBaseINS_12CwiseUnaryOpINS_8internal14scalar_abs2_opIdEEKNS_6MatrixIdLi3ELi1ELi0ELi3ELi1EEEEEE4colsEv, symObjAddr: 0x1699C, symBinAddr: 0x10001ABB8, symSize: 0x28 }
  - { offsetInCU: 0x5820A, offset: 0x5820A, size: 0x8, addend: 0x0, symName: __ZN5Eigen8internal15redux_evaluatorINS_12CwiseUnaryOpINS0_14scalar_abs2_opIdEEKNS_6MatrixIdLi3ELi1ELi0ELi3ELi1EEEEEEC1ERKS8_, symObjAddr: 0x169C4, symBinAddr: 0x10001ABE0, symSize: 0x34 }
  - { offsetInCU: 0x58243, offset: 0x58243, size: 0x8, addend: 0x0, symName: __ZN5Eigen8internal10redux_implINS0_13scalar_sum_opIddEENS0_15redux_evaluatorINS_12CwiseUnaryOpINS0_14scalar_abs2_opIdEEKNS_6MatrixIdLi3ELi1ELi0ELi3ELi1EEEEEEELi3ELi2EE3runISB_EEdRKSC_RKS3_RKT_, symObjAddr: 0x169F8, symBinAddr: 0x10001AC14, symSize: 0x100 }
  - { offsetInCU: 0x582AB, offset: 0x582AB, size: 0x8, addend: 0x0, symName: __ZN5Eigen8internal15redux_evaluatorINS_12CwiseUnaryOpINS0_14scalar_abs2_opIdEEKNS_6MatrixIdLi3ELi1ELi0ELi3ELi1EEEEEED1Ev, symObjAddr: 0x16AF8, symBinAddr: 0x10001AD14, symSize: 0x2C }
  - { offsetInCU: 0x582D8, offset: 0x582D8, size: 0x8, addend: 0x0, symName: __ZNK5Eigen12CwiseUnaryOpINS_8internal14scalar_abs2_opIdEEKNS_6MatrixIdLi3ELi1ELi0ELi3ELi1EEEE4rowsEv, symObjAddr: 0x16B24, symBinAddr: 0x10001AD40, symSize: 0x28 }
  - { offsetInCU: 0x582FE, offset: 0x582FE, size: 0x8, addend: 0x0, symName: __ZNK5Eigen12CwiseUnaryOpINS_8internal14scalar_abs2_opIdEEKNS_6MatrixIdLi3ELi1ELi0ELi3ELi1EEEE4colsEv, symObjAddr: 0x16B4C, symBinAddr: 0x10001AD68, symSize: 0x28 }
  - { offsetInCU: 0x58324, offset: 0x58324, size: 0x8, addend: 0x0, symName: __ZN5Eigen8internal15redux_evaluatorINS_12CwiseUnaryOpINS0_14scalar_abs2_opIdEEKNS_6MatrixIdLi3ELi1ELi0ELi3ELi1EEEEEEC2ERKS8_, symObjAddr: 0x16B74, symBinAddr: 0x10001AD90, symSize: 0x34 }
  - { offsetInCU: 0x5835D, offset: 0x5835D, size: 0x8, addend: 0x0, symName: __ZN5Eigen8internal9evaluatorINS_12CwiseUnaryOpINS0_14scalar_abs2_opIdEEKNS_6MatrixIdLi3ELi1ELi0ELi3ELi1EEEEEEC2ERKS8_, symObjAddr: 0x16BA8, symBinAddr: 0x10001ADC4, symSize: 0x34 }
  - { offsetInCU: 0x58395, offset: 0x58395, size: 0x8, addend: 0x0, symName: __ZN5Eigen8internal15unary_evaluatorINS_12CwiseUnaryOpINS0_14scalar_abs2_opIdEEKNS_6MatrixIdLi3ELi1ELi0ELi3ELi1EEEEENS0_10IndexBasedEdEC2ERKS8_, symObjAddr: 0x16BDC, symBinAddr: 0x10001ADF8, symSize: 0x64 }
  - { offsetInCU: 0x583CE, offset: 0x583CE, size: 0x8, addend: 0x0, symName: __ZN5Eigen8internal14evaluator_baseINS_12CwiseUnaryOpINS0_14scalar_abs2_opIdEEKNS_6MatrixIdLi3ELi1ELi0ELi3ELi1EEEEEEC2Ev, symObjAddr: 0x16C40, symBinAddr: 0x10001AE5C, symSize: 0x14 }
  - { offsetInCU: 0x583F8, offset: 0x583F8, size: 0x8, addend: 0x0, symName: __ZN5Eigen8internal15unary_evaluatorINS_12CwiseUnaryOpINS0_14scalar_abs2_opIdEEKNS_6MatrixIdLi3ELi1ELi0ELi3ELi1EEEEENS0_10IndexBasedEdE4DataC1ERKS8_, symObjAddr: 0x16C54, symBinAddr: 0x10001AE70, symSize: 0x34 }
  - { offsetInCU: 0x58431, offset: 0x58431, size: 0x8, addend: 0x0, symName: __ZN5Eigen8internal14evaluator_baseINS_12CwiseUnaryOpINS0_14scalar_abs2_opIdEEKNS_6MatrixIdLi3ELi1ELi0ELi3ELi1EEEEEED2Ev, symObjAddr: 0x16C88, symBinAddr: 0x10001AEA4, symSize: 0x14 }
  - { offsetInCU: 0x5845B, offset: 0x5845B, size: 0x8, addend: 0x0, symName: __ZN5Eigen8internal15unary_evaluatorINS_12CwiseUnaryOpINS0_14scalar_abs2_opIdEEKNS_6MatrixIdLi3ELi1ELi0ELi3ELi1EEEEENS0_10IndexBasedEdE4DataC2ERKS8_, symObjAddr: 0x16C9C, symBinAddr: 0x10001AEB8, symSize: 0x58 }
  - { offsetInCU: 0x58494, offset: 0x58494, size: 0x8, addend: 0x0, symName: __ZNK5Eigen12CwiseUnaryOpINS_8internal14scalar_abs2_opIdEEKNS_6MatrixIdLi3ELi1ELi0ELi3ELi1EEEE7functorEv, symObjAddr: 0x16CF4, symBinAddr: 0x10001AF10, symSize: 0x18 }
  - { offsetInCU: 0x584BA, offset: 0x584BA, size: 0x8, addend: 0x0, symName: __ZNK5Eigen12CwiseUnaryOpINS_8internal14scalar_abs2_opIdEEKNS_6MatrixIdLi3ELi1ELi0ELi3ELi1EEEE16nestedExpressionEv, symObjAddr: 0x16D0C, symBinAddr: 0x10001AF28, symSize: 0x18 }
  - { offsetInCU: 0x584EA, offset: 0x584EA, size: 0x8, addend: 0x0, symName: __ZNK5Eigen8internal13scalar_sum_opIddE6preduxI19__simd128_float64_tEEdRKT_, symObjAddr: 0x16D24, symBinAddr: 0x10001AF40, symSize: 0x28 }
  - { offsetInCU: 0x58527, offset: 0x58527, size: 0x8, addend: 0x0, symName: __ZNK5Eigen8internal13scalar_sum_opIddEclERKdS4_, symObjAddr: 0x16D7C, symBinAddr: 0x10001AF98, symSize: 0x2C }
  - { offsetInCU: 0x58569, offset: 0x58569, size: 0x8, addend: 0x0, symName: __ZN5Eigen8internal20redux_novec_unrollerINS0_13scalar_sum_opIddEENS0_15redux_evaluatorINS_12CwiseUnaryOpINS0_14scalar_abs2_opIdEEKNS_6MatrixIdLi3ELi1ELi0ELi3ELi1EEEEEEELi2ELi1EE3runERKSC_RKS3_, symObjAddr: 0x16DA8, symBinAddr: 0x10001AFC4, symSize: 0x30 }
  - { offsetInCU: 0x58597, offset: 0x58597, size: 0x8, addend: 0x0, symName: __ZNK5Eigen8internal15redux_evaluatorINS_12CwiseUnaryOpINS0_14scalar_abs2_opIdEEKNS_6MatrixIdLi3ELi1ELi0ELi3ELi1EEEEEE18packetByOuterInnerILi0E19__simd128_float64_tEET0_ll, symObjAddr: 0x16E28, symBinAddr: 0x10001B044, symSize: 0x34 }
  - { offsetInCU: 0x585EE, offset: 0x585EE, size: 0x8, addend: 0x0, symName: __ZNK5Eigen8internal15unary_evaluatorINS_12CwiseUnaryOpINS0_14scalar_abs2_opIdEEKNS_6MatrixIdLi3ELi1ELi0ELi3ELi1EEEEENS0_10IndexBasedEdE6packetILi0E19__simd128_float64_tEET0_ll, symObjAddr: 0x16E5C, symBinAddr: 0x10001B078, symSize: 0x58 }
  - { offsetInCU: 0x58645, offset: 0x58645, size: 0x8, addend: 0x0, symName: __ZNK5Eigen8internal15unary_evaluatorINS_12CwiseUnaryOpINS0_14scalar_abs2_opIdEEKNS_6MatrixIdLi3ELi1ELi0ELi3ELi1EEEEENS0_10IndexBasedEdE4Data4funcEv, symObjAddr: 0x16EB4, symBinAddr: 0x10001B0D0, symSize: 0x14 }
  - { offsetInCU: 0x5866B, offset: 0x5866B, size: 0x8, addend: 0x0, symName: __ZNK5Eigen8internal14scalar_abs2_opIdE8packetOpI19__simd128_float64_tEEKT_RS6_, symObjAddr: 0x16EC8, symBinAddr: 0x10001B0E4, symSize: 0x2C }
  - { offsetInCU: 0x586B2, offset: 0x586B2, size: 0x8, addend: 0x0, symName: __ZNK5Eigen8internal9evaluatorINS_15PlainObjectBaseINS_6MatrixIdLi3ELi1ELi0ELi3ELi1EEEEEE6packetILi0E19__simd128_float64_tEET0_ll, symObjAddr: 0x16EF4, symBinAddr: 0x10001B110, symSize: 0x60 }
  - { offsetInCU: 0x58726, offset: 0x58726, size: 0x8, addend: 0x0, symName: __ZNK5Eigen8internal30plainobjectbase_evaluator_dataIdLi0EE11outerStrideEv, symObjAddr: 0x16F94, symBinAddr: 0x10001B1B0, symSize: 0x14 }
  - { offsetInCU: 0x5874C, offset: 0x5874C, size: 0x8, addend: 0x0, symName: __ZNK5Eigen8internal15redux_evaluatorINS_12CwiseUnaryOpINS0_14scalar_abs2_opIdEEKNS_6MatrixIdLi3ELi1ELi0ELi3ELi1EEEEEE17coeffByOuterInnerEll, symObjAddr: 0x16FD0, symBinAddr: 0x10001B1EC, symSize: 0x34 }
  - { offsetInCU: 0x58790, offset: 0x58790, size: 0x8, addend: 0x0, symName: __ZNK5Eigen8internal15unary_evaluatorINS_12CwiseUnaryOpINS0_14scalar_abs2_opIdEEKNS_6MatrixIdLi3ELi1ELi0ELi3ELi1EEEEENS0_10IndexBasedEdE5coeffEll, symObjAddr: 0x17004, symBinAddr: 0x10001B220, symSize: 0x54 }
  - { offsetInCU: 0x587D4, offset: 0x587D4, size: 0x8, addend: 0x0, symName: __ZNK5Eigen8internal14scalar_abs2_opIdEclERKd, symObjAddr: 0x17058, symBinAddr: 0x10001B274, symSize: 0x28 }
  - { offsetInCU: 0x58808, offset: 0x58808, size: 0x8, addend: 0x0, symName: __ZNK5Eigen8internal9evaluatorINS_15PlainObjectBaseINS_6MatrixIdLi3ELi1ELi0ELi3ELi1EEEEEE5coeffEll, symObjAddr: 0x17080, symBinAddr: 0x10001B29C, symSize: 0x5C }
  - { offsetInCU: 0x5884A, offset: 0x5884A, size: 0x8, addend: 0x0, symName: __ZN5Eigen8internal9abs2_implIdE3runERKd, symObjAddr: 0x17100, symBinAddr: 0x10001B31C, symSize: 0x24 }
  - { offsetInCU: 0x5886E, offset: 0x5886E, size: 0x8, addend: 0x0, symName: __ZN5Eigen8internal17abs2_impl_defaultIdLb0EE3runERKd, symObjAddr: 0x17124, symBinAddr: 0x10001B340, symSize: 0x24 }
  - { offsetInCU: 0x58892, offset: 0x58892, size: 0x8, addend: 0x0, symName: __ZN5Eigen8internal15redux_evaluatorINS_12CwiseUnaryOpINS0_14scalar_abs2_opIdEEKNS_6MatrixIdLi3ELi1ELi0ELi3ELi1EEEEEED2Ev, symObjAddr: 0x17148, symBinAddr: 0x10001B364, symSize: 0x2C }
  - { offsetInCU: 0x588BF, offset: 0x588BF, size: 0x8, addend: 0x0, symName: __ZN5Eigen8internal9evaluatorINS_12CwiseUnaryOpINS0_14scalar_abs2_opIdEEKNS_6MatrixIdLi3ELi1ELi0ELi3ELi1EEEEEED2Ev, symObjAddr: 0x17174, symBinAddr: 0x10001B390, symSize: 0x2C }
  - { offsetInCU: 0x588EB, offset: 0x588EB, size: 0x8, addend: 0x0, symName: __ZN5Eigen8internal15unary_evaluatorINS_12CwiseUnaryOpINS0_14scalar_abs2_opIdEEKNS_6MatrixIdLi3ELi1ELi0ELi3ELi1EEEEENS0_10IndexBasedEdED2Ev, symObjAddr: 0x171A0, symBinAddr: 0x10001B3BC, symSize: 0x34 }
  - { offsetInCU: 0x58917, offset: 0x58917, size: 0x8, addend: 0x0, symName: __ZN5Eigen8internal15unary_evaluatorINS_12CwiseUnaryOpINS0_14scalar_abs2_opIdEEKNS_6MatrixIdLi3ELi1ELi0ELi3ELi1EEEEENS0_10IndexBasedEdE4DataD1Ev, symObjAddr: 0x171D4, symBinAddr: 0x10001B3F0, symSize: 0x2C }
  - { offsetInCU: 0x58944, offset: 0x58944, size: 0x8, addend: 0x0, symName: __ZN5Eigen8internal15unary_evaluatorINS_12CwiseUnaryOpINS0_14scalar_abs2_opIdEEKNS_6MatrixIdLi3ELi1ELi0ELi3ELi1EEEEENS0_10IndexBasedEdE4DataD2Ev, symObjAddr: 0x17200, symBinAddr: 0x10001B41C, symSize: 0x30 }
  - { offsetInCU: 0x58971, offset: 0x58971, size: 0x8, addend: 0x0, symName: __ZN5Eigen8internal13scalar_sum_opIddEC2Ev, symObjAddr: 0x17230, symBinAddr: 0x10001B44C, symSize: 0x14 }
  - { offsetInCU: 0x5899B, offset: 0x5899B, size: 0x8, addend: 0x0, symName: __ZN5Eigen14CwiseNullaryOpINS_8internal18scalar_constant_opIdEEKNS_6MatrixIdLi3ELi1ELi0ELi3ELi1EEEEC1EllRKS3_, symObjAddr: 0x17244, symBinAddr: 0x10001B460, symSize: 0x44 }
  - { offsetInCU: 0x589EF, offset: 0x589EF, size: 0x8, addend: 0x0, symName: __ZN5Eigen8internal18scalar_quotient_opIddEC1Ev, symObjAddr: 0x17288, symBinAddr: 0x10001B4A4, symSize: 0x2C }
  - { offsetInCU: 0x58A19, offset: 0x58A19, size: 0x8, addend: 0x0, symName: __ZN5Eigen13CwiseBinaryOpINS_8internal18scalar_quotient_opIddEEKNS_6MatrixIdLi3ELi1ELi0ELi3ELi1EEEKNS_14CwiseNullaryOpINS1_18scalar_constant_opIdEES6_EEEC1ERS6_RSB_RKS3_, symObjAddr: 0x172B4, symBinAddr: 0x10001B4D0, symSize: 0x44 }
  - { offsetInCU: 0x58A6D, offset: 0x58A6D, size: 0x8, addend: 0x0, symName: __ZN5Eigen14CwiseNullaryOpINS_8internal18scalar_constant_opIdEEKNS_6MatrixIdLi3ELi1ELi0ELi3ELi1EEEEC2EllRKS3_, symObjAddr: 0x172F8, symBinAddr: 0x10001B514, symSize: 0x108 }
  - { offsetInCU: 0x58AC1, offset: 0x58AC1, size: 0x8, addend: 0x0, symName: __ZN5Eigen10MatrixBaseINS_14CwiseNullaryOpINS_8internal18scalar_constant_opIdEEKNS_6MatrixIdLi3ELi1ELi0ELi3ELi1EEEEEEC2Ev, symObjAddr: 0x17400, symBinAddr: 0x10001B61C, symSize: 0x2C }
  - { offsetInCU: 0x58AEB, offset: 0x58AEB, size: 0x8, addend: 0x0, symName: __ZN5Eigen9DenseBaseINS_14CwiseNullaryOpINS_8internal18scalar_constant_opIdEEKNS_6MatrixIdLi3ELi1ELi0ELi3ELi1EEEEEEC2Ev, symObjAddr: 0x1742C, symBinAddr: 0x10001B648, symSize: 0x14 }
  - { offsetInCU: 0x58B15, offset: 0x58B15, size: 0x8, addend: 0x0, symName: __ZN5Eigen8internal18scalar_quotient_opIddEC2Ev, symObjAddr: 0x17440, symBinAddr: 0x10001B65C, symSize: 0x14 }
  - { offsetInCU: 0x58B3F, offset: 0x58B3F, size: 0x8, addend: 0x0, symName: __ZN5Eigen13CwiseBinaryOpINS_8internal18scalar_quotient_opIddEEKNS_6MatrixIdLi3ELi1ELi0ELi3ELi1EEEKNS_14CwiseNullaryOpINS1_18scalar_constant_opIdEES6_EEEC2ERS6_RSB_RKS3_, symObjAddr: 0x17454, symBinAddr: 0x10001B670, symSize: 0xF8 }
  - { offsetInCU: 0x58B98, offset: 0x58B98, size: 0x8, addend: 0x0, symName: __ZN5Eigen17CwiseBinaryOpImplINS_8internal18scalar_quotient_opIddEEKNS_6MatrixIdLi3ELi1ELi0ELi3ELi1EEEKNS_14CwiseNullaryOpINS1_18scalar_constant_opIdEES6_EENS_5DenseEEC2Ev, symObjAddr: 0x1754C, symBinAddr: 0x10001B768, symSize: 0x2C }
  - { offsetInCU: 0x58BC4, offset: 0x58BC4, size: 0x8, addend: 0x0, symName: __ZN5Eigen14CwiseNullaryOpINS_8internal18scalar_constant_opIdEEKNS_6MatrixIdLi3ELi1ELi0ELi3ELi1EEEEC1ERKS7_, symObjAddr: 0x17578, symBinAddr: 0x10001B794, symSize: 0x34 }
  - { offsetInCU: 0x58BF9, offset: 0x58BF9, size: 0x8, addend: 0x0, symName: __ZN5Eigen8internal18scalar_quotient_opIddEC1ERKS2_, symObjAddr: 0x175AC, symBinAddr: 0x10001B7C8, symSize: 0x34 }
  - { offsetInCU: 0x58C2E, offset: 0x58C2E, size: 0x8, addend: 0x0, symName: __ZNK5Eigen14CwiseNullaryOpINS_8internal18scalar_constant_opIdEEKNS_6MatrixIdLi3ELi1ELi0ELi3ELi1EEEE4rowsEv, symObjAddr: 0x175E0, symBinAddr: 0x10001B7FC, symSize: 0x20 }
  - { offsetInCU: 0x58C54, offset: 0x58C54, size: 0x8, addend: 0x0, symName: __ZNK5Eigen14CwiseNullaryOpINS_8internal18scalar_constant_opIdEEKNS_6MatrixIdLi3ELi1ELi0ELi3ELi1EEEE4colsEv, symObjAddr: 0x17600, symBinAddr: 0x10001B81C, symSize: 0x20 }
  - { offsetInCU: 0x58C7A, offset: 0x58C7A, size: 0x8, addend: 0x0, symName: __ZN5Eigen10MatrixBaseINS_13CwiseBinaryOpINS_8internal18scalar_quotient_opIddEEKNS_6MatrixIdLi3ELi1ELi0ELi3ELi1EEEKNS_14CwiseNullaryOpINS2_18scalar_constant_opIdEES7_EEEEEC2Ev, symObjAddr: 0x17620, symBinAddr: 0x10001B83C, symSize: 0x2C }
  - { offsetInCU: 0x58CA4, offset: 0x58CA4, size: 0x8, addend: 0x0, symName: __ZN5Eigen9DenseBaseINS_13CwiseBinaryOpINS_8internal18scalar_quotient_opIddEEKNS_6MatrixIdLi3ELi1ELi0ELi3ELi1EEEKNS_14CwiseNullaryOpINS2_18scalar_constant_opIdEES7_EEEEEC2Ev, symObjAddr: 0x1764C, symBinAddr: 0x10001B868, symSize: 0x14 }
  - { offsetInCU: 0x58CCE, offset: 0x58CCE, size: 0x8, addend: 0x0, symName: __ZN5Eigen14CwiseNullaryOpINS_8internal18scalar_constant_opIdEEKNS_6MatrixIdLi3ELi1ELi0ELi3ELi1EEEEC2ERKS7_, symObjAddr: 0x17660, symBinAddr: 0x10001B87C, symSize: 0x48 }
  - { offsetInCU: 0x58D03, offset: 0x58D03, size: 0x8, addend: 0x0, symName: __ZN5Eigen8internal18scalar_quotient_opIddEC2ERKS2_, symObjAddr: 0x176A8, symBinAddr: 0x10001B8C4, symSize: 0x18 }
  - { offsetInCU: 0x58D38, offset: 0x58D38, size: 0x8, addend: 0x0, symName: __ZN5Eigen15PlainObjectBaseINS_6MatrixIdLi3ELi1ELi0ELi3ELi1EEEE4_setINS_13CwiseBinaryOpINS_8internal18scalar_quotient_opIddEEKS2_KNS_14CwiseNullaryOpINS6_18scalar_constant_opIdEES9_EEEEEERS2_RKNS_9DenseBaseIT_EE, symObjAddr: 0x176C0, symBinAddr: 0x10001B8DC, symSize: 0x4C }
  - { offsetInCU: 0x58D76, offset: 0x58D76, size: 0x8, addend: 0x0, symName: __ZNK5Eigen9EigenBaseINS_13CwiseBinaryOpINS_8internal18scalar_quotient_opIddEEKNS_6MatrixIdLi3ELi1ELi0ELi3ELi1EEEKNS_14CwiseNullaryOpINS2_18scalar_constant_opIdEES7_EEEEE7derivedEv, symObjAddr: 0x1775C, symBinAddr: 0x10001B978, symSize: 0x14 }
  - { offsetInCU: 0x58D9C, offset: 0x58D9C, size: 0x8, addend: 0x0, symName: __ZN5Eigen8internal10AssignmentINS_6MatrixIdLi3ELi1ELi0ELi3ELi1EEENS_13CwiseBinaryOpINS0_18scalar_quotient_opIddEEKS3_KNS_14CwiseNullaryOpINS0_18scalar_constant_opIdEES7_EEEENS0_9assign_opIddEENS0_11Dense2DenseEvE3runERS3_RKSD_RKSF_, symObjAddr: 0x177E4, symBinAddr: 0x10001BA00, symSize: 0x40 }
  - { offsetInCU: 0x58DDE, offset: 0x58DDE, size: 0x8, addend: 0x0, symName: __ZN5Eigen8internal9evaluatorINS_13CwiseBinaryOpINS0_18scalar_quotient_opIddEEKNS_6MatrixIdLi3ELi1ELi0ELi3ELi1EEEKNS_14CwiseNullaryOpINS0_18scalar_constant_opIdEES7_EEEEEC1ERKSD_, symObjAddr: 0x17918, symBinAddr: 0x10001BB34, symSize: 0x34 }
  - { offsetInCU: 0x58E17, offset: 0x58E17, size: 0x8, addend: 0x0, symName: __ZN5Eigen8internal9evaluatorINS_6MatrixIdLi3ELi1ELi0ELi3ELi1EEEEC1ERKS3_, symObjAddr: 0x17A44, symBinAddr: 0x10001BC60, symSize: 0x34 }
  - { offsetInCU: 0x58E50, offset: 0x58E50, size: 0x8, addend: 0x0, symName: __ZNK5Eigen9EigenBaseINS_6MatrixIdLi3ELi1ELi0ELi3ELi1EEEE18const_cast_derivedEv, symObjAddr: 0x17A78, symBinAddr: 0x10001BC94, symSize: 0x14 }
  - { offsetInCU: 0x58E76, offset: 0x58E76, size: 0x8, addend: 0x0, symName: __ZN5Eigen8internal31generic_dense_assignment_kernelINS0_9evaluatorINS_6MatrixIdLi3ELi1ELi0ELi3ELi1EEEEENS2_INS_13CwiseBinaryOpINS0_18scalar_quotient_opIddEEKS4_KNS_14CwiseNullaryOpINS0_18scalar_constant_opIdEES9_EEEEEENS0_9assign_opIddEELi0EEC1ERS5_RKSG_RKSI_RS4_, symObjAddr: 0x17A8C, symBinAddr: 0x10001BCA8, symSize: 0x4C }
  - { offsetInCU: 0x58EDC, offset: 0x58EDC, size: 0x8, addend: 0x0, symName: __ZN5Eigen8internal21dense_assignment_loopINS0_31generic_dense_assignment_kernelINS0_9evaluatorINS_6MatrixIdLi3ELi1ELi0ELi3ELi1EEEEENS3_INS_13CwiseBinaryOpINS0_18scalar_quotient_opIddEEKS5_KNS_14CwiseNullaryOpINS0_18scalar_constant_opIdEESA_EEEEEENS0_9assign_opIddEELi0EEELi3ELi2EE3runERSK_, symObjAddr: 0x17AD8, symBinAddr: 0x10001BCF4, symSize: 0x2C }
  - { offsetInCU: 0x58F00, offset: 0x58F00, size: 0x8, addend: 0x0, symName: __ZN5Eigen8internal9evaluatorINS_6MatrixIdLi3ELi1ELi0ELi3ELi1EEEED1Ev, symObjAddr: 0x17B04, symBinAddr: 0x10001BD20, symSize: 0x2C }
  - { offsetInCU: 0x58F2D, offset: 0x58F2D, size: 0x8, addend: 0x0, symName: __ZN5Eigen8internal9evaluatorINS_13CwiseBinaryOpINS0_18scalar_quotient_opIddEEKNS_6MatrixIdLi3ELi1ELi0ELi3ELi1EEEKNS_14CwiseNullaryOpINS0_18scalar_constant_opIdEES7_EEEEED1Ev, symObjAddr: 0x17B30, symBinAddr: 0x10001BD4C, symSize: 0x2C }
  - { offsetInCU: 0x58F5A, offset: 0x58F5A, size: 0x8, addend: 0x0, symName: __ZN5Eigen8internal9evaluatorINS_13CwiseBinaryOpINS0_18scalar_quotient_opIddEEKNS_6MatrixIdLi3ELi1ELi0ELi3ELi1EEEKNS_14CwiseNullaryOpINS0_18scalar_constant_opIdEES7_EEEEEC2ERKSD_, symObjAddr: 0x17B5C, symBinAddr: 0x10001BD78, symSize: 0x34 }
  - { offsetInCU: 0x58F93, offset: 0x58F93, size: 0x8, addend: 0x0, symName: __ZN5Eigen8internal16binary_evaluatorINS_13CwiseBinaryOpINS0_18scalar_quotient_opIddEEKNS_6MatrixIdLi3ELi1ELi0ELi3ELi1EEEKNS_14CwiseNullaryOpINS0_18scalar_constant_opIdEES7_EEEENS0_10IndexBasedESE_ddEC2ERKSD_, symObjAddr: 0x17B90, symBinAddr: 0x10001BDAC, symSize: 0x64 }
  - { offsetInCU: 0x58FCC, offset: 0x58FCC, size: 0x8, addend: 0x0, symName: __ZN5Eigen8internal14evaluator_baseINS_13CwiseBinaryOpINS0_18scalar_quotient_opIddEEKNS_6MatrixIdLi3ELi1ELi0ELi3ELi1EEEKNS_14CwiseNullaryOpINS0_18scalar_constant_opIdEES7_EEEEEC2Ev, symObjAddr: 0x17BF4, symBinAddr: 0x10001BE10, symSize: 0x14 }
  - { offsetInCU: 0x58FF6, offset: 0x58FF6, size: 0x8, addend: 0x0, symName: __ZN5Eigen8internal16binary_evaluatorINS_13CwiseBinaryOpINS0_18scalar_quotient_opIddEEKNS_6MatrixIdLi3ELi1ELi0ELi3ELi1EEEKNS_14CwiseNullaryOpINS0_18scalar_constant_opIdEES7_EEEENS0_10IndexBasedESE_ddE4DataC1ERKSD_, symObjAddr: 0x17C08, symBinAddr: 0x10001BE24, symSize: 0x34 }
  - { offsetInCU: 0x5902F, offset: 0x5902F, size: 0x8, addend: 0x0, symName: __ZN5Eigen8internal14evaluator_baseINS_13CwiseBinaryOpINS0_18scalar_quotient_opIddEEKNS_6MatrixIdLi3ELi1ELi0ELi3ELi1EEEKNS_14CwiseNullaryOpINS0_18scalar_constant_opIdEES7_EEEEED2Ev, symObjAddr: 0x17C3C, symBinAddr: 0x10001BE58, symSize: 0x14 }
  - { offsetInCU: 0x59059, offset: 0x59059, size: 0x8, addend: 0x0, symName: __ZN5Eigen8internal16binary_evaluatorINS_13CwiseBinaryOpINS0_18scalar_quotient_opIddEEKNS_6MatrixIdLi3ELi1ELi0ELi3ELi1EEEKNS_14CwiseNullaryOpINS0_18scalar_constant_opIdEES7_EEEENS0_10IndexBasedESE_ddE4DataC2ERKSD_, symObjAddr: 0x17C50, symBinAddr: 0x10001BE6C, symSize: 0xA8 }
  - { offsetInCU: 0x59092, offset: 0x59092, size: 0x8, addend: 0x0, symName: __ZNK5Eigen13CwiseBinaryOpINS_8internal18scalar_quotient_opIddEEKNS_6MatrixIdLi3ELi1ELi0ELi3ELi1EEEKNS_14CwiseNullaryOpINS1_18scalar_constant_opIdEES6_EEE7functorEv, symObjAddr: 0x17CF8, symBinAddr: 0x10001BF14, symSize: 0x18 }
  - { offsetInCU: 0x590B8, offset: 0x590B8, size: 0x8, addend: 0x0, symName: __ZNK5Eigen13CwiseBinaryOpINS_8internal18scalar_quotient_opIddEEKNS_6MatrixIdLi3ELi1ELi0ELi3ELi1EEEKNS_14CwiseNullaryOpINS1_18scalar_constant_opIdEES6_EEE3lhsEv, symObjAddr: 0x17D10, symBinAddr: 0x10001BF2C, symSize: 0x18 }
  - { offsetInCU: 0x590DE, offset: 0x590DE, size: 0x8, addend: 0x0, symName: __ZNK5Eigen13CwiseBinaryOpINS_8internal18scalar_quotient_opIddEEKNS_6MatrixIdLi3ELi1ELi0ELi3ELi1EEEKNS_14CwiseNullaryOpINS1_18scalar_constant_opIdEES6_EEE3rhsEv, symObjAddr: 0x17D28, symBinAddr: 0x10001BF44, symSize: 0x18 }
  - { offsetInCU: 0x59104, offset: 0x59104, size: 0x8, addend: 0x0, symName: __ZN5Eigen8internal9evaluatorIKNS_14CwiseNullaryOpINS0_18scalar_constant_opIdEEKNS_6MatrixIdLi3ELi1ELi0ELi3ELi1EEEEEEC1ERS9_, symObjAddr: 0x17D40, symBinAddr: 0x10001BF5C, symSize: 0x34 }
  - { offsetInCU: 0x5913C, offset: 0x5913C, size: 0x8, addend: 0x0, symName: __ZN5Eigen8internal9evaluatorIKNS_14CwiseNullaryOpINS0_18scalar_constant_opIdEEKNS_6MatrixIdLi3ELi1ELi0ELi3ELi1EEEEEEC2ERS9_, symObjAddr: 0x17D74, symBinAddr: 0x10001BF90, symSize: 0x34 }
  - { offsetInCU: 0x59174, offset: 0x59174, size: 0x8, addend: 0x0, symName: __ZN5Eigen8internal9evaluatorINS_14CwiseNullaryOpINS0_18scalar_constant_opIdEEKNS_6MatrixIdLi3ELi1ELi0ELi3ELi1EEEEEEC2ERKS8_, symObjAddr: 0x17DA8, symBinAddr: 0x10001BFC4, symSize: 0x74 }
  - { offsetInCU: 0x591AD, offset: 0x591AD, size: 0x8, addend: 0x0, symName: __ZN5Eigen8internal14evaluator_baseINS_14CwiseNullaryOpINS0_18scalar_constant_opIdEEKNS_6MatrixIdLi3ELi1ELi0ELi3ELi1EEEEEEC2Ev, symObjAddr: 0x17E1C, symBinAddr: 0x10001C038, symSize: 0x14 }
  - { offsetInCU: 0x591D7, offset: 0x591D7, size: 0x8, addend: 0x0, symName: __ZNK5Eigen14CwiseNullaryOpINS_8internal18scalar_constant_opIdEEKNS_6MatrixIdLi3ELi1ELi0ELi3ELi1EEEE7functorEv, symObjAddr: 0x17E30, symBinAddr: 0x10001C04C, symSize: 0x18 }
  - { offsetInCU: 0x591FD, offset: 0x591FD, size: 0x8, addend: 0x0, symName: __ZN5Eigen8internal14evaluator_baseINS_14CwiseNullaryOpINS0_18scalar_constant_opIdEEKNS_6MatrixIdLi3ELi1ELi0ELi3ELi1EEEEEED2Ev, symObjAddr: 0x17E48, symBinAddr: 0x10001C064, symSize: 0x14 }
  - { offsetInCU: 0x59227, offset: 0x59227, size: 0x8, addend: 0x0, symName: __ZNK5Eigen13CwiseBinaryOpINS_8internal18scalar_quotient_opIddEEKNS_6MatrixIdLi3ELi1ELi0ELi3ELi1EEEKNS_14CwiseNullaryOpINS1_18scalar_constant_opIdEES6_EEE4rowsEv, symObjAddr: 0x17E5C, symBinAddr: 0x10001C078, symSize: 0x28 }
  - { offsetInCU: 0x5924D, offset: 0x5924D, size: 0x8, addend: 0x0, symName: __ZNK5Eigen13CwiseBinaryOpINS_8internal18scalar_quotient_opIddEEKNS_6MatrixIdLi3ELi1ELi0ELi3ELi1EEEKNS_14CwiseNullaryOpINS1_18scalar_constant_opIdEES6_EEE4colsEv, symObjAddr: 0x17E84, symBinAddr: 0x10001C0A0, symSize: 0x28 }
  - { offsetInCU: 0x59273, offset: 0x59273, size: 0x8, addend: 0x0, symName: __ZN5Eigen8internal31generic_dense_assignment_kernelINS0_9evaluatorINS_6MatrixIdLi3ELi1ELi0ELi3ELi1EEEEENS2_INS_13CwiseBinaryOpINS0_18scalar_quotient_opIddEEKS4_KNS_14CwiseNullaryOpINS0_18scalar_constant_opIdEES9_EEEEEENS0_9assign_opIddEELi0EEC2ERS5_RKSG_RKSI_RS4_, symObjAddr: 0x17EAC, symBinAddr: 0x10001C0C8, symSize: 0x44 }
  - { offsetInCU: 0x592D9, offset: 0x592D9, size: 0x8, addend: 0x0, symName: __ZN5Eigen8internal47copy_using_evaluator_innervec_CompleteUnrollingINS0_31generic_dense_assignment_kernelINS0_9evaluatorINS_6MatrixIdLi3ELi1ELi0ELi3ELi1EEEEENS3_INS_13CwiseBinaryOpINS0_18scalar_quotient_opIddEEKS5_KNS_14CwiseNullaryOpINS0_18scalar_constant_opIdEESA_EEEEEENS0_9assign_opIddEELi0EEELi0ELi2EE3runERSK_, symObjAddr: 0x17EF0, symBinAddr: 0x10001C10C, symSize: 0x34 }
  - { offsetInCU: 0x592FD, offset: 0x592FD, size: 0x8, addend: 0x0, symName: __ZN5Eigen8internal55copy_using_evaluator_DefaultTraversal_CompleteUnrollingINS0_31generic_dense_assignment_kernelINS0_9evaluatorINS_6MatrixIdLi3ELi1ELi0ELi3ELi1EEEEENS3_INS_13CwiseBinaryOpINS0_18scalar_quotient_opIddEEKS5_KNS_14CwiseNullaryOpINS0_18scalar_constant_opIdEESA_EEEEEENS0_9assign_opIddEELi0EEELi2ELi3EE3runERSK_, symObjAddr: 0x17F24, symBinAddr: 0x10001C140, symSize: 0x34 }
  - { offsetInCU: 0x59320, offset: 0x59320, size: 0x8, addend: 0x0, symName: __ZN5Eigen8internal31generic_dense_assignment_kernelINS0_9evaluatorINS_6MatrixIdLi3ELi1ELi0ELi3ELi1EEEEENS2_INS_13CwiseBinaryOpINS0_18scalar_quotient_opIddEEKS4_KNS_14CwiseNullaryOpINS0_18scalar_constant_opIdEES9_EEEEEENS0_9assign_opIddEELi0EE24assignPacketByOuterInnerILi0ELi0E19__simd128_float64_tEEvll, symObjAddr: 0x17F58, symBinAddr: 0x10001C174, symSize: 0x60 }
  - { offsetInCU: 0x5939F, offset: 0x5939F, size: 0x8, addend: 0x0, symName: __ZN5Eigen8internal47copy_using_evaluator_innervec_CompleteUnrollingINS0_31generic_dense_assignment_kernelINS0_9evaluatorINS_6MatrixIdLi3ELi1ELi0ELi3ELi1EEEEENS3_INS_13CwiseBinaryOpINS0_18scalar_quotient_opIddEEKS5_KNS_14CwiseNullaryOpINS0_18scalar_constant_opIdEESA_EEEEEENS0_9assign_opIddEELi0EEELi2ELi2EE3runERSK_, symObjAddr: 0x17FB8, symBinAddr: 0x10001C1D4, symSize: 0x10 }
  - { offsetInCU: 0x593BF, offset: 0x593BF, size: 0x8, addend: 0x0, symName: __ZN5Eigen8internal31generic_dense_assignment_kernelINS0_9evaluatorINS_6MatrixIdLi3ELi1ELi0ELi3ELi1EEEEENS2_INS_13CwiseBinaryOpINS0_18scalar_quotient_opIddEEKS4_KNS_14CwiseNullaryOpINS0_18scalar_constant_opIdEES9_EEEEEENS0_9assign_opIddEELi0EE20rowIndexByOuterInnerEll, symObjAddr: 0x17FC8, symBinAddr: 0x10001C1E4, symSize: 0x18 }
  - { offsetInCU: 0x593F2, offset: 0x593F2, size: 0x8, addend: 0x0, symName: __ZN5Eigen8internal31generic_dense_assignment_kernelINS0_9evaluatorINS_6MatrixIdLi3ELi1ELi0ELi3ELi1EEEEENS2_INS_13CwiseBinaryOpINS0_18scalar_quotient_opIddEEKS4_KNS_14CwiseNullaryOpINS0_18scalar_constant_opIdEES9_EEEEEENS0_9assign_opIddEELi0EE20colIndexByOuterInnerEll, symObjAddr: 0x17FE0, symBinAddr: 0x10001C1FC, symSize: 0x18 }
  - { offsetInCU: 0x59425, offset: 0x59425, size: 0x8, addend: 0x0, symName: __ZN5Eigen8internal31generic_dense_assignment_kernelINS0_9evaluatorINS_6MatrixIdLi3ELi1ELi0ELi3ELi1EEEEENS2_INS_13CwiseBinaryOpINS0_18scalar_quotient_opIddEEKS4_KNS_14CwiseNullaryOpINS0_18scalar_constant_opIdEES9_EEEEEENS0_9assign_opIddEELi0EE12assignPacketILi0ELi0E19__simd128_float64_tEEvll, symObjAddr: 0x17FF8, symBinAddr: 0x10001C214, symSize: 0x70 }
  - { offsetInCU: 0x59486, offset: 0x59486, size: 0x8, addend: 0x0, symName: __ZNK5Eigen8internal9assign_opIddE12assignPacketILi0E19__simd128_float64_tEEvPdRKT0_, symObjAddr: 0x18068, symBinAddr: 0x10001C284, symSize: 0x40 }
  - { offsetInCU: 0x59503, offset: 0x59503, size: 0x8, addend: 0x0, symName: __ZN5Eigen8internal9evaluatorINS_15PlainObjectBaseINS_6MatrixIdLi3ELi1ELi0ELi3ELi1EEEEEE8coeffRefEll, symObjAddr: 0x180A8, symBinAddr: 0x10001C2C4, symSize: 0x5C }
  - { offsetInCU: 0x59545, offset: 0x59545, size: 0x8, addend: 0x0, symName: __ZNK5Eigen8internal16binary_evaluatorINS_13CwiseBinaryOpINS0_18scalar_quotient_opIddEEKNS_6MatrixIdLi3ELi1ELi0ELi3ELi1EEEKNS_14CwiseNullaryOpINS0_18scalar_constant_opIdEES7_EEEENS0_10IndexBasedESE_ddE6packetILi0E19__simd128_float64_tEET0_ll, symObjAddr: 0x18104, symBinAddr: 0x10001C320, symSize: 0x7C }
  - { offsetInCU: 0x5959C, offset: 0x5959C, size: 0x8, addend: 0x0, symName: __ZNK5Eigen8internal16binary_evaluatorINS_13CwiseBinaryOpINS0_18scalar_quotient_opIddEEKNS_6MatrixIdLi3ELi1ELi0ELi3ELi1EEEKNS_14CwiseNullaryOpINS0_18scalar_constant_opIdEES7_EEEENS0_10IndexBasedESE_ddE4Data4funcEv, symObjAddr: 0x181AC, symBinAddr: 0x10001C3C8, symSize: 0x14 }
  - { offsetInCU: 0x595C2, offset: 0x595C2, size: 0x8, addend: 0x0, symName: __ZNK5Eigen8internal18scalar_quotient_opIddE8packetOpI19__simd128_float64_tEEKT_RS6_S7_, symObjAddr: 0x181C0, symBinAddr: 0x10001C3DC, symSize: 0x30 }
  - { offsetInCU: 0x59619, offset: 0x59619, size: 0x8, addend: 0x0, symName: __ZNK5Eigen8internal9evaluatorINS_14CwiseNullaryOpINS0_18scalar_constant_opIdEEKNS_6MatrixIdLi3ELi1ELi0ELi3ELi1EEEEEE6packetILi0E19__simd128_float64_tlEET0_T1_SD_, symObjAddr: 0x181F0, symBinAddr: 0x10001C40C, symSize: 0x3C }
  - { offsetInCU: 0x5967E, offset: 0x5967E, size: 0x8, addend: 0x0, symName: __ZNK5Eigen8internal15nullary_wrapperIdNS0_18scalar_constant_opIdEELb1ELb0ELb0EE8packetOpI19__simd128_float64_tlEET_RKS3_T0_SA_, symObjAddr: 0x1826C, symBinAddr: 0x10001C488, symSize: 0x30 }
  - { offsetInCU: 0x596DB, offset: 0x596DB, size: 0x8, addend: 0x0, symName: __ZNK5Eigen8internal18scalar_constant_opIdE8packetOpI19__simd128_float64_tEEKT_v, symObjAddr: 0x1829C, symBinAddr: 0x10001C4B8, symSize: 0x24 }
  - { offsetInCU: 0x5970A, offset: 0x5970A, size: 0x8, addend: 0x0, symName: __ZN5Eigen8internal31generic_dense_assignment_kernelINS0_9evaluatorINS_6MatrixIdLi3ELi1ELi0ELi3ELi1EEEEENS2_INS_13CwiseBinaryOpINS0_18scalar_quotient_opIddEEKS4_KNS_14CwiseNullaryOpINS0_18scalar_constant_opIdEES9_EEEEEENS0_9assign_opIddEELi0EE23assignCoeffByOuterInnerEll, symObjAddr: 0x18304, symBinAddr: 0x10001C520, symSize: 0x60 }
  - { offsetInCU: 0x5976C, offset: 0x5976C, size: 0x8, addend: 0x0, symName: __ZN5Eigen8internal55copy_using_evaluator_DefaultTraversal_CompleteUnrollingINS0_31generic_dense_assignment_kernelINS0_9evaluatorINS_6MatrixIdLi3ELi1ELi0ELi3ELi1EEEEENS3_INS_13CwiseBinaryOpINS0_18scalar_quotient_opIddEEKS5_KNS_14CwiseNullaryOpINS0_18scalar_constant_opIdEESA_EEEEEENS0_9assign_opIddEELi0EEELi3ELi3EE3runERSK_, symObjAddr: 0x18364, symBinAddr: 0x10001C580, symSize: 0x10 }
  - { offsetInCU: 0x5978C, offset: 0x5978C, size: 0x8, addend: 0x0, symName: __ZN5Eigen8internal31generic_dense_assignment_kernelINS0_9evaluatorINS_6MatrixIdLi3ELi1ELi0ELi3ELi1EEEEENS2_INS_13CwiseBinaryOpINS0_18scalar_quotient_opIddEEKS4_KNS_14CwiseNullaryOpINS0_18scalar_constant_opIdEES9_EEEEEENS0_9assign_opIddEELi0EE11assignCoeffEll, symObjAddr: 0x18374, symBinAddr: 0x10001C590, symSize: 0x70 }
  - { offsetInCU: 0x597D0, offset: 0x597D0, size: 0x8, addend: 0x0, symName: __ZNK5Eigen8internal9assign_opIddE11assignCoeffERdRKd, symObjAddr: 0x183E4, symBinAddr: 0x10001C600, symSize: 0x28 }
  - { offsetInCU: 0x59812, offset: 0x59812, size: 0x8, addend: 0x0, symName: __ZNK5Eigen8internal16binary_evaluatorINS_13CwiseBinaryOpINS0_18scalar_quotient_opIddEEKNS_6MatrixIdLi3ELi1ELi0ELi3ELi1EEEKNS_14CwiseNullaryOpINS0_18scalar_constant_opIdEES7_EEEENS0_10IndexBasedESE_ddE5coeffEll, symObjAddr: 0x1840C, symBinAddr: 0x10001C628, symSize: 0x74 }
  - { offsetInCU: 0x59856, offset: 0x59856, size: 0x8, addend: 0x0, symName: __ZNK5Eigen8internal18scalar_quotient_opIddEclERKdS4_, symObjAddr: 0x18480, symBinAddr: 0x10001C69C, symSize: 0x2C }
  - { offsetInCU: 0x5989A, offset: 0x5989A, size: 0x8, addend: 0x0, symName: __ZNK5Eigen8internal9evaluatorINS_14CwiseNullaryOpINS0_18scalar_constant_opIdEEKNS_6MatrixIdLi3ELi1ELi0ELi3ELi1EEEEEE5coeffIlEEdT_SB_, symObjAddr: 0x184AC, symBinAddr: 0x10001C6C8, symSize: 0x3C }
  - { offsetInCU: 0x598E7, offset: 0x598E7, size: 0x8, addend: 0x0, symName: __ZNK5Eigen8internal15nullary_wrapperIdNS0_18scalar_constant_opIdEELb1ELb0ELb0EEclIlEEdRKS3_T_S8_, symObjAddr: 0x184E8, symBinAddr: 0x10001C704, symSize: 0x30 }
  - { offsetInCU: 0x5993B, offset: 0x5993B, size: 0x8, addend: 0x0, symName: __ZN5Eigen8internal9evaluatorINS_13CwiseBinaryOpINS0_18scalar_quotient_opIddEEKNS_6MatrixIdLi3ELi1ELi0ELi3ELi1EEEKNS_14CwiseNullaryOpINS0_18scalar_constant_opIdEES7_EEEEED2Ev, symObjAddr: 0x18518, symBinAddr: 0x10001C734, symSize: 0x2C }
  - { offsetInCU: 0x59968, offset: 0x59968, size: 0x8, addend: 0x0, symName: __ZN5Eigen8internal16binary_evaluatorINS_13CwiseBinaryOpINS0_18scalar_quotient_opIddEEKNS_6MatrixIdLi3ELi1ELi0ELi3ELi1EEEKNS_14CwiseNullaryOpINS0_18scalar_constant_opIdEES7_EEEENS0_10IndexBasedESE_ddED2Ev, symObjAddr: 0x18544, symBinAddr: 0x10001C760, symSize: 0x34 }
  - { offsetInCU: 0x59994, offset: 0x59994, size: 0x8, addend: 0x0, symName: __ZN5Eigen8internal16binary_evaluatorINS_13CwiseBinaryOpINS0_18scalar_quotient_opIddEEKNS_6MatrixIdLi3ELi1ELi0ELi3ELi1EEEKNS_14CwiseNullaryOpINS0_18scalar_constant_opIdEES7_EEEENS0_10IndexBasedESE_ddE4DataD1Ev, symObjAddr: 0x18578, symBinAddr: 0x10001C794, symSize: 0x2C }
  - { offsetInCU: 0x599C1, offset: 0x599C1, size: 0x8, addend: 0x0, symName: __ZN5Eigen8internal16binary_evaluatorINS_13CwiseBinaryOpINS0_18scalar_quotient_opIddEEKNS_6MatrixIdLi3ELi1ELi0ELi3ELi1EEEKNS_14CwiseNullaryOpINS0_18scalar_constant_opIdEES7_EEEENS0_10IndexBasedESE_ddE4DataD2Ev, symObjAddr: 0x185A4, symBinAddr: 0x10001C7C0, symSize: 0x3C }
  - { offsetInCU: 0x599EE, offset: 0x599EE, size: 0x8, addend: 0x0, symName: __ZN5Eigen8internal9evaluatorIKNS_14CwiseNullaryOpINS0_18scalar_constant_opIdEEKNS_6MatrixIdLi3ELi1ELi0ELi3ELi1EEEEEED1Ev, symObjAddr: 0x185E0, symBinAddr: 0x10001C7FC, symSize: 0x2C }
  - { offsetInCU: 0x59A1A, offset: 0x59A1A, size: 0x8, addend: 0x0, symName: __ZN5Eigen8internal9evaluatorIKNS_14CwiseNullaryOpINS0_18scalar_constant_opIdEEKNS_6MatrixIdLi3ELi1ELi0ELi3ELi1EEEEEED2Ev, symObjAddr: 0x1860C, symBinAddr: 0x10001C828, symSize: 0x2C }
  - { offsetInCU: 0x59A46, offset: 0x59A46, size: 0x8, addend: 0x0, symName: __ZN5Eigen8internal9evaluatorINS_14CwiseNullaryOpINS0_18scalar_constant_opIdEEKNS_6MatrixIdLi3ELi1ELi0ELi3ELi1EEEEEED2Ev, symObjAddr: 0x18638, symBinAddr: 0x10001C854, symSize: 0x2C }
  - { offsetInCU: 0x59A72, offset: 0x59A72, size: 0x8, addend: 0x0, symName: __ZN5Eigen9TransposeINS_6MatrixIdLi3ELi1ELi0ELi3ELi1EEEEC1ERS2_, symObjAddr: 0x18664, symBinAddr: 0x10001C880, symSize: 0x34 }
  - { offsetInCU: 0x59AAA, offset: 0x59AAA, size: 0x8, addend: 0x0, symName: __ZN5Eigen9TransposeINS_6MatrixIdLi3ELi1ELi0ELi3ELi1EEEEC2ERS2_, symObjAddr: 0x18698, symBinAddr: 0x10001C8B4, symSize: 0x38 }
  - { offsetInCU: 0x59AE2, offset: 0x59AE2, size: 0x8, addend: 0x0, symName: __ZN5Eigen13TransposeImplINS_6MatrixIdLi3ELi1ELi0ELi3ELi1EEENS_5DenseEEC2Ev, symObjAddr: 0x186D0, symBinAddr: 0x10001C8EC, symSize: 0x2C }
  - { offsetInCU: 0x59B0C, offset: 0x59B0C, size: 0x8, addend: 0x0, symName: __ZN5Eigen10MatrixBaseINS_9TransposeINS_6MatrixIdLi3ELi1ELi0ELi3ELi1EEEEEEC2Ev, symObjAddr: 0x186FC, symBinAddr: 0x10001C918, symSize: 0x2C }
  - { offsetInCU: 0x59B36, offset: 0x59B36, size: 0x8, addend: 0x0, symName: __ZN5Eigen9DenseBaseINS_9TransposeINS_6MatrixIdLi3ELi1ELi0ELi3ELi1EEEEEEC2Ev, symObjAddr: 0x18728, symBinAddr: 0x10001C944, symSize: 0x14 }
  - { offsetInCU: 0x59B60, offset: 0x59B60, size: 0x8, addend: 0x0, symName: __ZNK5Eigen9DenseBaseINS_9TransposeINS_6MatrixIdLi3ELi1ELi0ELi3ELi1EEEEEE4evalEv, symObjAddr: 0x18CBC, symBinAddr: 0x10001CED8, symSize: 0x38 }
  - { offsetInCU: 0x59B86, offset: 0x59B86, size: 0x8, addend: 0x0, symName: __ZN5Eigen8IOFormatC1EiiRKNSt3__112basic_stringIcNS1_11char_traitsIcEENS1_9allocatorIcEEEES9_S9_S9_S9_S9_c, symObjAddr: 0x18CF4, symBinAddr: 0x10001CF10, symSize: 0x88 }
  - { offsetInCU: 0x59C2E, offset: 0x59C2E, size: 0x8, addend: 0x0, symName: __ZN5Eigen8IOFormatD1Ev, symObjAddr: 0x18D7C, symBinAddr: 0x10001CF98, symSize: 0x2C }
  - { offsetInCU: 0x59C5A, offset: 0x59C5A, size: 0x8, addend: 0x0, symName: __ZNK5Eigen9EigenBaseINS_6MatrixIdLi1ELi3ELi1ELi1ELi3EEEE4sizeEv, symObjAddr: 0x18DA8, symBinAddr: 0x10001CFC4, symSize: 0x44 }
  - { offsetInCU: 0x59C80, offset: 0x59C80, size: 0x8, addend: 0x0, symName: __ZN5Eigen8internal25significant_decimals_implIdE3runEv, symObjAddr: 0x18DEC, symBinAddr: 0x10001D008, symSize: 0x14 }
  - { offsetInCU: 0x59C94, offset: 0x59C94, size: 0x8, addend: 0x0, symName: __ZNSt3__18ios_base9precisionB8ue170006El, symObjAddr: 0x18E00, symBinAddr: 0x10001D01C, symSize: 0x2C }
  - { offsetInCU: 0x59CDA, offset: 0x59CDA, size: 0x8, addend: 0x0, symName: __ZNK5Eigen15PlainObjectBaseINS_6MatrixIdLi1ELi3ELi1ELi1ELi3EEEE4colsEv, symObjAddr: 0x18E2C, symBinAddr: 0x10001D048, symSize: 0x20 }
  - { offsetInCU: 0x59D00, offset: 0x59D00, size: 0x8, addend: 0x0, symName: __ZNK5Eigen15PlainObjectBaseINS_6MatrixIdLi1ELi3ELi1ELi1ELi3EEEE4rowsEv, symObjAddr: 0x18E4C, symBinAddr: 0x10001D068, symSize: 0x20 }
  - { offsetInCU: 0x59D26, offset: 0x59D26, size: 0x8, addend: 0x0, symName: __ZNSt3__118basic_stringstreamIcNS_11char_traitsIcEENS_9allocatorIcEEEC1B8ue170006Ev, symObjAddr: 0x18E6C, symBinAddr: 0x10001D088, symSize: 0x104 }
  - { offsetInCU: 0x59D50, offset: 0x59D50, size: 0x8, addend: 0x0, symName: __ZNK5Eigen15PlainObjectBaseINS_6MatrixIdLi1ELi3ELi1ELi1ELi3EEEE5coeffEll, symObjAddr: 0x18F70, symBinAddr: 0x10001D18C, symSize: 0x60 }
  - { offsetInCU: 0x59D92, offset: 0x59D92, size: 0x8, addend: 0x0, symName: __ZNKSt3__118basic_stringstreamIcNS_11char_traitsIcEENS_9allocatorIcEEE3strB8ue170006Ev, symObjAddr: 0x18FFC, symBinAddr: 0x10001D218, symSize: 0x30 }
  - { offsetInCU: 0x59DB8, offset: 0x59DB8, size: 0x8, addend: 0x0, symName: __ZNKSt3__112basic_stringIcNS_11char_traitsIcEENS_9allocatorIcEEE6lengthB8ue170006Ev, symObjAddr: 0x1902C, symBinAddr: 0x10001D248, symSize: 0x24 }
  - { offsetInCU: 0x59DDE, offset: 0x59DDE, size: 0x8, addend: 0x0, symName: __ZNSt3__19basic_iosIcNS_11char_traitsIcEEE4fillB8ue170006Ec, symObjAddr: 0x19050, symBinAddr: 0x10001D26C, symSize: 0x74 }
  - { offsetInCU: 0x59E24, offset: 0x59E24, size: 0x8, addend: 0x0, symName: __ZNK5Eigen9EigenBaseINS_6MatrixIdLi1ELi3ELi1ELi1ELi3EEEE4rowsEv, symObjAddr: 0x190C4, symBinAddr: 0x10001D2E0, symSize: 0x38 }
  - { offsetInCU: 0x59E4A, offset: 0x59E4A, size: 0x8, addend: 0x0, symName: __ZNK5Eigen9EigenBaseINS_6MatrixIdLi1ELi3ELi1ELi1ELi3EEEE4colsEv, symObjAddr: 0x190FC, symBinAddr: 0x10001D318, symSize: 0x28 }
  - { offsetInCU: 0x59E70, offset: 0x59E70, size: 0x8, addend: 0x0, symName: __ZNK5Eigen9EigenBaseINS_6MatrixIdLi1ELi3ELi1ELi1ELi3EEEE7derivedEv, symObjAddr: 0x19124, symBinAddr: 0x10001D340, symSize: 0x14 }
  - { offsetInCU: 0x59E96, offset: 0x59E96, size: 0x8, addend: 0x0, symName: __ZN5Eigen16GenericNumTraitsIdE8digits10Ev, symObjAddr: 0x19138, symBinAddr: 0x10001D354, symSize: 0x14 }
  - { offsetInCU: 0x59EAA, offset: 0x59EAA, size: 0x8, addend: 0x0, symName: __ZN5Eigen8internal21default_digits10_implIdLb1ELb0EE3runEv, symObjAddr: 0x1914C, symBinAddr: 0x10001D368, symSize: 0x8 }
  - { offsetInCU: 0x59EBE, offset: 0x59EBE, size: 0x8, addend: 0x0, symName: __ZN5Eigen12DenseStorageIdLi3ELi1ELi3ELi1EE4colsEv, symObjAddr: 0x19154, symBinAddr: 0x10001D370, symSize: 0x8 }
  - { offsetInCU: 0x59ED2, offset: 0x59ED2, size: 0x8, addend: 0x0, symName: __ZN5Eigen12DenseStorageIdLi3ELi1ELi3ELi1EE4rowsEv, symObjAddr: 0x1915C, symBinAddr: 0x10001D378, symSize: 0x8 }
  - { offsetInCU: 0x59EE6, offset: 0x59EE6, size: 0x8, addend: 0x0, symName: __ZNSt3__19basic_iosIcNS_11char_traitsIcEEEC2B8ue170006Ev, symObjAddr: 0x19164, symBinAddr: 0x10001D380, symSize: 0x44 }
  - { offsetInCU: 0x59F10, offset: 0x59F10, size: 0x8, addend: 0x0, symName: __ZNSt3__114basic_iostreamIcNS_11char_traitsIcEEEC2B8ue170006EPNS_15basic_streambufIcS2_EE, symObjAddr: 0x191A8, symBinAddr: 0x10001D3C4, symSize: 0xAC }
  - { offsetInCU: 0x59F56, offset: 0x59F56, size: 0x8, addend: 0x0, symName: __ZNSt3__115basic_stringbufIcNS_11char_traitsIcEENS_9allocatorIcEEEC1B8ue170006Ej, symObjAddr: 0x19254, symBinAddr: 0x10001D470, symSize: 0x34 }
  - { offsetInCU: 0x59F8F, offset: 0x59F8F, size: 0x8, addend: 0x0, symName: __ZNSt3__18ios_baseC2B8ue170006Ev, symObjAddr: 0x19288, symBinAddr: 0x10001D4A4, symSize: 0x24 }
  - { offsetInCU: 0x59FB9, offset: 0x59FB9, size: 0x8, addend: 0x0, symName: __ZNSt3__113basic_istreamIcNS_11char_traitsIcEEEC2B8ue170006EPNS_15basic_streambufIcS2_EE, symObjAddr: 0x192AC, symBinAddr: 0x10001D4C8, symSize: 0x64 }
  - { offsetInCU: 0x59FFE, offset: 0x59FFE, size: 0x8, addend: 0x0, symName: __ZNSt3__113basic_ostreamIcNS_11char_traitsIcEEEC2B8ue170006Ev, symObjAddr: 0x19310, symBinAddr: 0x10001D52C, symSize: 0x34 }
  - { offsetInCU: 0x5A035, offset: 0x5A035, size: 0x8, addend: 0x0, symName: __ZNSt3__19basic_iosIcNS_11char_traitsIcEEE4initB8ue170006EPNS_15basic_streambufIcS2_EE, symObjAddr: 0x19344, symBinAddr: 0x10001D560, symSize: 0x44 }
  - { offsetInCU: 0x5A06C, offset: 0x5A06C, size: 0x8, addend: 0x0, symName: __ZNSt3__115basic_stringbufIcNS_11char_traitsIcEENS_9allocatorIcEEEC2B8ue170006Ej, symObjAddr: 0x19388, symBinAddr: 0x10001D5A4, symSize: 0x60 }
  - { offsetInCU: 0x5A0A5, offset: 0x5A0A5, size: 0x8, addend: 0x0, symName: __ZNK5Eigen12DenseStorageIdLi3ELi1ELi3ELi1EE4dataEv, symObjAddr: 0x193E8, symBinAddr: 0x10001D604, symSize: 0x14 }
  - { offsetInCU: 0x5A0D5, offset: 0x5A0D5, size: 0x8, addend: 0x0, symName: __ZNKSt3__16__lessIvvEclB8ue170006IllEEbRKT_RKT0_, symObjAddr: 0x19450, symBinAddr: 0x10001D66C, symSize: 0x34 }
  - { offsetInCU: 0x5A129, offset: 0x5A129, size: 0x8, addend: 0x0, symName: __ZNK5Eigen9EigenBaseINS_9TransposeINS_6MatrixIdLi3ELi1ELi0ELi3ELi1EEEEEE7derivedEv, symObjAddr: 0x19484, symBinAddr: 0x10001D6A0, symSize: 0x14 }
  - { offsetInCU: 0x5A14F, offset: 0x5A14F, size: 0x8, addend: 0x0, symName: __ZN5Eigen6MatrixIdLi1ELi3ELi1ELi1ELi3EEC1INS_9TransposeINS0_IdLi3ELi1ELi0ELi3ELi1EEEEEEERKT_, symObjAddr: 0x19498, symBinAddr: 0x10001D6B4, symSize: 0x34 }
  - { offsetInCU: 0x5A191, offset: 0x5A191, size: 0x8, addend: 0x0, symName: __ZN5Eigen6MatrixIdLi1ELi3ELi1ELi1ELi3EEC2INS_9TransposeINS0_IdLi3ELi1ELi0ELi3ELi1EEEEEEERKT_, symObjAddr: 0x194CC, symBinAddr: 0x10001D6E8, symSize: 0x40 }
  - { offsetInCU: 0x5A1D3, offset: 0x5A1D3, size: 0x8, addend: 0x0, symName: __ZN5Eigen15PlainObjectBaseINS_6MatrixIdLi1ELi3ELi1ELi1ELi3EEEEC2Ev, symObjAddr: 0x1950C, symBinAddr: 0x10001D728, symSize: 0x34 }
  - { offsetInCU: 0x5A1FD, offset: 0x5A1FD, size: 0x8, addend: 0x0, symName: __ZN5Eigen15PlainObjectBaseINS_6MatrixIdLi1ELi3ELi1ELi1ELi3EEEE22_check_template_paramsEv, symObjAddr: 0x19540, symBinAddr: 0x10001D75C, symSize: 0x4 }
  - { offsetInCU: 0x5A211, offset: 0x5A211, size: 0x8, addend: 0x0, symName: __ZN5Eigen15PlainObjectBaseINS_6MatrixIdLi1ELi3ELi1ELi1ELi3EEEE6_init1INS_9TransposeINS1_IdLi3ELi1ELi0ELi3ELi1EEEEES7_EEvRKNS_9DenseBaseIT0_EE, symObjAddr: 0x19544, symBinAddr: 0x10001D760, symSize: 0x2C }
  - { offsetInCU: 0x5A258, offset: 0x5A258, size: 0x8, addend: 0x0, symName: __ZN5Eigen10MatrixBaseINS_6MatrixIdLi1ELi3ELi1ELi1ELi3EEEEC2Ev, symObjAddr: 0x19570, symBinAddr: 0x10001D78C, symSize: 0x2C }
  - { offsetInCU: 0x5A282, offset: 0x5A282, size: 0x8, addend: 0x0, symName: __ZN5Eigen12DenseStorageIdLi3ELi1ELi3ELi1EEC1Ev, symObjAddr: 0x1959C, symBinAddr: 0x10001D7B8, symSize: 0x2C }
  - { offsetInCU: 0x5A2AC, offset: 0x5A2AC, size: 0x8, addend: 0x0, symName: __ZN5Eigen9DenseBaseINS_6MatrixIdLi1ELi3ELi1ELi1ELi3EEEEC2Ev, symObjAddr: 0x195C8, symBinAddr: 0x10001D7E4, symSize: 0x14 }
  - { offsetInCU: 0x5A2D6, offset: 0x5A2D6, size: 0x8, addend: 0x0, symName: __ZN5Eigen12DenseStorageIdLi3ELi1ELi3ELi1EEC2Ev, symObjAddr: 0x195DC, symBinAddr: 0x10001D7F8, symSize: 0x2C }
  - { offsetInCU: 0x5A300, offset: 0x5A300, size: 0x8, addend: 0x0, symName: __ZN5Eigen8internal11plain_arrayIdLi3ELi1ELi0EEC1Ev, symObjAddr: 0x19608, symBinAddr: 0x10001D824, symSize: 0x2C }
  - { offsetInCU: 0x5A32A, offset: 0x5A32A, size: 0x8, addend: 0x0, symName: __ZN5Eigen8internal11plain_arrayIdLi3ELi1ELi0EEC2Ev, symObjAddr: 0x19634, symBinAddr: 0x10001D850, symSize: 0x2C }
  - { offsetInCU: 0x5A354, offset: 0x5A354, size: 0x8, addend: 0x0, symName: __ZN5Eigen15PlainObjectBaseINS_6MatrixIdLi1ELi3ELi1ELi1ELi3EEEE12_set_noaliasINS_9TransposeINS1_IdLi3ELi1ELi0ELi3ELi1EEEEEEERS2_RKNS_9DenseBaseIT_EE, symObjAddr: 0x19660, symBinAddr: 0x10001D87C, symSize: 0x60 }
  - { offsetInCU: 0x5A392, offset: 0x5A392, size: 0x8, addend: 0x0, symName: __ZN5Eigen9EigenBaseINS_6MatrixIdLi1ELi3ELi1ELi1ELi3EEEE7derivedEv, symObjAddr: 0x196FC, symBinAddr: 0x10001D918, symSize: 0x14 }
  - { offsetInCU: 0x5A3B8, offset: 0x5A3B8, size: 0x8, addend: 0x0, symName: __ZN5Eigen8internal10AssignmentINS_6MatrixIdLi1ELi3ELi1ELi1ELi3EEENS_9TransposeINS2_IdLi3ELi1ELi0ELi3ELi1EEEEENS0_9assign_opIddEENS0_11Dense2DenseEvE3runERS3_RKS6_RKS8_, symObjAddr: 0x19710, symBinAddr: 0x10001D92C, symSize: 0x40 }
  - { offsetInCU: 0x5A3FA, offset: 0x5A3FA, size: 0x8, addend: 0x0, symName: __ZN5Eigen8internal9evaluatorINS_9TransposeINS_6MatrixIdLi3ELi1ELi0ELi3ELi1EEEEEEC1ERKS5_, symObjAddr: 0x19844, symBinAddr: 0x10001DA60, symSize: 0x34 }
  - { offsetInCU: 0x5A432, offset: 0x5A432, size: 0x8, addend: 0x0, symName: __ZN5Eigen8internal9evaluatorINS_6MatrixIdLi1ELi3ELi1ELi1ELi3EEEEC1ERKS3_, symObjAddr: 0x19970, symBinAddr: 0x10001DB8C, symSize: 0x34 }
  - { offsetInCU: 0x5A46B, offset: 0x5A46B, size: 0x8, addend: 0x0, symName: __ZNK5Eigen9EigenBaseINS_6MatrixIdLi1ELi3ELi1ELi1ELi3EEEE18const_cast_derivedEv, symObjAddr: 0x199A4, symBinAddr: 0x10001DBC0, symSize: 0x14 }
  - { offsetInCU: 0x5A491, offset: 0x5A491, size: 0x8, addend: 0x0, symName: __ZN5Eigen8internal31generic_dense_assignment_kernelINS0_9evaluatorINS_6MatrixIdLi1ELi3ELi1ELi1ELi3EEEEENS2_INS_9TransposeINS3_IdLi3ELi1ELi0ELi3ELi1EEEEEEENS0_9assign_opIddEELi0EEC1ERS5_RKS9_RKSB_RS4_, symObjAddr: 0x199B8, symBinAddr: 0x10001DBD4, symSize: 0x4C }
  - { offsetInCU: 0x5A4F7, offset: 0x5A4F7, size: 0x8, addend: 0x0, symName: __ZN5Eigen8internal21dense_assignment_loopINS0_31generic_dense_assignment_kernelINS0_9evaluatorINS_6MatrixIdLi1ELi3ELi1ELi1ELi3EEEEENS3_INS_9TransposeINS4_IdLi3ELi1ELi0ELi3ELi1EEEEEEENS0_9assign_opIddEELi0EEELi3ELi2EE3runERSD_, symObjAddr: 0x19A04, symBinAddr: 0x10001DC20, symSize: 0x2C }
  - { offsetInCU: 0x5A51B, offset: 0x5A51B, size: 0x8, addend: 0x0, symName: __ZN5Eigen8internal9evaluatorINS_6MatrixIdLi1ELi3ELi1ELi1ELi3EEEED1Ev, symObjAddr: 0x19A30, symBinAddr: 0x10001DC4C, symSize: 0x2C }
  - { offsetInCU: 0x5A548, offset: 0x5A548, size: 0x8, addend: 0x0, symName: __ZN5Eigen8internal9evaluatorINS_9TransposeINS_6MatrixIdLi3ELi1ELi0ELi3ELi1EEEEEED1Ev, symObjAddr: 0x19A5C, symBinAddr: 0x10001DC78, symSize: 0x2C }
  - { offsetInCU: 0x5A574, offset: 0x5A574, size: 0x8, addend: 0x0, symName: __ZN5Eigen8internal9evaluatorINS_9TransposeINS_6MatrixIdLi3ELi1ELi0ELi3ELi1EEEEEEC2ERKS5_, symObjAddr: 0x19A88, symBinAddr: 0x10001DCA4, symSize: 0x34 }
  - { offsetInCU: 0x5A5AC, offset: 0x5A5AC, size: 0x8, addend: 0x0, symName: __ZN5Eigen8internal15unary_evaluatorINS_9TransposeINS_6MatrixIdLi3ELi1ELi0ELi3ELi1EEEEENS0_10IndexBasedEdEC2ERKS5_, symObjAddr: 0x19ABC, symBinAddr: 0x10001DCD8, symSize: 0x74 }
  - { offsetInCU: 0x5A5E5, offset: 0x5A5E5, size: 0x8, addend: 0x0, symName: __ZN5Eigen8internal14evaluator_baseINS_9TransposeINS_6MatrixIdLi3ELi1ELi0ELi3ELi1EEEEEEC2Ev, symObjAddr: 0x19B30, symBinAddr: 0x10001DD4C, symSize: 0x14 }
  - { offsetInCU: 0x5A60F, offset: 0x5A60F, size: 0x8, addend: 0x0, symName: __ZNK5Eigen9TransposeINS_6MatrixIdLi3ELi1ELi0ELi3ELi1EEEE16nestedExpressionEv, symObjAddr: 0x19B44, symBinAddr: 0x10001DD60, symSize: 0x18 }
  - { offsetInCU: 0x5A635, offset: 0x5A635, size: 0x8, addend: 0x0, symName: __ZN5Eigen8internal14evaluator_baseINS_9TransposeINS_6MatrixIdLi3ELi1ELi0ELi3ELi1EEEEEED2Ev, symObjAddr: 0x19B5C, symBinAddr: 0x10001DD78, symSize: 0x14 }
  - { offsetInCU: 0x5A65F, offset: 0x5A65F, size: 0x8, addend: 0x0, symName: __ZNK5Eigen9TransposeINS_6MatrixIdLi3ELi1ELi0ELi3ELi1EEEE4rowsEv, symObjAddr: 0x19B70, symBinAddr: 0x10001DD8C, symSize: 0x28 }
  - { offsetInCU: 0x5A685, offset: 0x5A685, size: 0x8, addend: 0x0, symName: __ZNK5Eigen9TransposeINS_6MatrixIdLi3ELi1ELi0ELi3ELi1EEEE4colsEv, symObjAddr: 0x19B98, symBinAddr: 0x10001DDB4, symSize: 0x28 }
  - { offsetInCU: 0x5A6AB, offset: 0x5A6AB, size: 0x8, addend: 0x0, symName: __ZN5Eigen15PlainObjectBaseINS_6MatrixIdLi1ELi3ELi1ELi1ELi3EEEE6resizeEll, symObjAddr: 0x19BC0, symBinAddr: 0x10001DDDC, symSize: 0x104 }
  - { offsetInCU: 0x5A6EF, offset: 0x5A6EF, size: 0x8, addend: 0x0, symName: __ZN5Eigen12DenseStorageIdLi3ELi1ELi3ELi1EE6resizeElll, symObjAddr: 0x19CC4, symBinAddr: 0x10001DEE0, symSize: 0x1C }
  - { offsetInCU: 0x5A736, offset: 0x5A736, size: 0x8, addend: 0x0, symName: __ZN5Eigen8internal9evaluatorINS_6MatrixIdLi1ELi3ELi1ELi1ELi3EEEEC2ERKS3_, symObjAddr: 0x19CE0, symBinAddr: 0x10001DEFC, symSize: 0x34 }
  - { offsetInCU: 0x5A76F, offset: 0x5A76F, size: 0x8, addend: 0x0, symName: __ZN5Eigen8internal9evaluatorINS_15PlainObjectBaseINS_6MatrixIdLi1ELi3ELi1ELi1ELi3EEEEEEC2ERKS5_, symObjAddr: 0x19D14, symBinAddr: 0x10001DF30, symSize: 0x78 }
  - { offsetInCU: 0x5A7A7, offset: 0x5A7A7, size: 0x8, addend: 0x0, symName: __ZN5Eigen8internal14evaluator_baseINS_6MatrixIdLi1ELi3ELi1ELi1ELi3EEEEC2Ev, symObjAddr: 0x19D8C, symBinAddr: 0x10001DFA8, symSize: 0x14 }
  - { offsetInCU: 0x5A7D1, offset: 0x5A7D1, size: 0x8, addend: 0x0, symName: __ZNK5Eigen15PlainObjectBaseINS_6MatrixIdLi1ELi3ELi1ELi1ELi3EEEE4dataEv, symObjAddr: 0x19DA0, symBinAddr: 0x10001DFBC, symSize: 0x24 }
  - { offsetInCU: 0x5A7F7, offset: 0x5A7F7, size: 0x8, addend: 0x0, symName: __ZN5Eigen8internal14evaluator_baseINS_6MatrixIdLi1ELi3ELi1ELi1ELi3EEEED2Ev, symObjAddr: 0x19DC4, symBinAddr: 0x10001DFE0, symSize: 0x14 }
  - { offsetInCU: 0x5A821, offset: 0x5A821, size: 0x8, addend: 0x0, symName: __ZN5Eigen8internal31generic_dense_assignment_kernelINS0_9evaluatorINS_6MatrixIdLi1ELi3ELi1ELi1ELi3EEEEENS2_INS_9TransposeINS3_IdLi3ELi1ELi0ELi3ELi1EEEEEEENS0_9assign_opIddEELi0EEC2ERS5_RKS9_RKSB_RS4_, symObjAddr: 0x19DD8, symBinAddr: 0x10001DFF4, symSize: 0x44 }
  - { offsetInCU: 0x5A887, offset: 0x5A887, size: 0x8, addend: 0x0, symName: __ZN5Eigen8internal47copy_using_evaluator_innervec_CompleteUnrollingINS0_31generic_dense_assignment_kernelINS0_9evaluatorINS_6MatrixIdLi1ELi3ELi1ELi1ELi3EEEEENS3_INS_9TransposeINS4_IdLi3ELi1ELi0ELi3ELi1EEEEEEENS0_9assign_opIddEELi0EEELi0ELi2EE3runERSD_, symObjAddr: 0x19E1C, symBinAddr: 0x10001E038, symSize: 0x34 }
  - { offsetInCU: 0x5A8AB, offset: 0x5A8AB, size: 0x8, addend: 0x0, symName: __ZN5Eigen8internal55copy_using_evaluator_DefaultTraversal_CompleteUnrollingINS0_31generic_dense_assignment_kernelINS0_9evaluatorINS_6MatrixIdLi1ELi3ELi1ELi1ELi3EEEEENS3_INS_9TransposeINS4_IdLi3ELi1ELi0ELi3ELi1EEEEEEENS0_9assign_opIddEELi0EEELi2ELi3EE3runERSD_, symObjAddr: 0x19E50, symBinAddr: 0x10001E06C, symSize: 0x34 }
  - { offsetInCU: 0x5A8CE, offset: 0x5A8CE, size: 0x8, addend: 0x0, symName: __ZN5Eigen8internal31generic_dense_assignment_kernelINS0_9evaluatorINS_6MatrixIdLi1ELi3ELi1ELi1ELi3EEEEENS2_INS_9TransposeINS3_IdLi3ELi1ELi0ELi3ELi1EEEEEEENS0_9assign_opIddEELi0EE24assignPacketByOuterInnerILi0ELi0E19__simd128_float64_tEEvll, symObjAddr: 0x19E84, symBinAddr: 0x10001E0A0, symSize: 0x60 }
  - { offsetInCU: 0x5A94D, offset: 0x5A94D, size: 0x8, addend: 0x0, symName: __ZN5Eigen8internal47copy_using_evaluator_innervec_CompleteUnrollingINS0_31generic_dense_assignment_kernelINS0_9evaluatorINS_6MatrixIdLi1ELi3ELi1ELi1ELi3EEEEENS3_INS_9TransposeINS4_IdLi3ELi1ELi0ELi3ELi1EEEEEEENS0_9assign_opIddEELi0EEELi2ELi2EE3runERSD_, symObjAddr: 0x19EE4, symBinAddr: 0x10001E100, symSize: 0x10 }
  - { offsetInCU: 0x5A96D, offset: 0x5A96D, size: 0x8, addend: 0x0, symName: __ZN5Eigen8internal31generic_dense_assignment_kernelINS0_9evaluatorINS_6MatrixIdLi1ELi3ELi1ELi1ELi3EEEEENS2_INS_9TransposeINS3_IdLi3ELi1ELi0ELi3ELi1EEEEEEENS0_9assign_opIddEELi0EE20rowIndexByOuterInnerEll, symObjAddr: 0x19EF4, symBinAddr: 0x10001E110, symSize: 0x18 }
  - { offsetInCU: 0x5A9A0, offset: 0x5A9A0, size: 0x8, addend: 0x0, symName: __ZN5Eigen8internal31generic_dense_assignment_kernelINS0_9evaluatorINS_6MatrixIdLi1ELi3ELi1ELi1ELi3EEEEENS2_INS_9TransposeINS3_IdLi3ELi1ELi0ELi3ELi1EEEEEEENS0_9assign_opIddEELi0EE20colIndexByOuterInnerEll, symObjAddr: 0x19F0C, symBinAddr: 0x10001E128, symSize: 0x18 }
  - { offsetInCU: 0x5A9D3, offset: 0x5A9D3, size: 0x8, addend: 0x0, symName: __ZN5Eigen8internal31generic_dense_assignment_kernelINS0_9evaluatorINS_6MatrixIdLi1ELi3ELi1ELi1ELi3EEEEENS2_INS_9TransposeINS3_IdLi3ELi1ELi0ELi3ELi1EEEEEEENS0_9assign_opIddEELi0EE12assignPacketILi0ELi0E19__simd128_float64_tEEvll, symObjAddr: 0x19F24, symBinAddr: 0x10001E140, symSize: 0x70 }
  - { offsetInCU: 0x5AA34, offset: 0x5AA34, size: 0x8, addend: 0x0, symName: __ZN5Eigen8internal9evaluatorINS_15PlainObjectBaseINS_6MatrixIdLi1ELi3ELi1ELi1ELi3EEEEEE8coeffRefEll, symObjAddr: 0x19F94, symBinAddr: 0x10001E1B0, symSize: 0x54 }
  - { offsetInCU: 0x5AA76, offset: 0x5AA76, size: 0x8, addend: 0x0, symName: __ZNK5Eigen8internal15unary_evaluatorINS_9TransposeINS_6MatrixIdLi3ELi1ELi0ELi3ELi1EEEEENS0_10IndexBasedEdE6packetILi0E19__simd128_float64_tEET0_ll, symObjAddr: 0x19FE8, symBinAddr: 0x10001E204, symSize: 0x34 }
  - { offsetInCU: 0x5AACD, offset: 0x5AACD, size: 0x8, addend: 0x0, symName: __ZN5Eigen8internal31generic_dense_assignment_kernelINS0_9evaluatorINS_6MatrixIdLi1ELi3ELi1ELi1ELi3EEEEENS2_INS_9TransposeINS3_IdLi3ELi1ELi0ELi3ELi1EEEEEEENS0_9assign_opIddEELi0EE23assignCoeffByOuterInnerEll, symObjAddr: 0x1A01C, symBinAddr: 0x10001E238, symSize: 0x60 }
  - { offsetInCU: 0x5AB2F, offset: 0x5AB2F, size: 0x8, addend: 0x0, symName: __ZN5Eigen8internal55copy_using_evaluator_DefaultTraversal_CompleteUnrollingINS0_31generic_dense_assignment_kernelINS0_9evaluatorINS_6MatrixIdLi1ELi3ELi1ELi1ELi3EEEEENS3_INS_9TransposeINS4_IdLi3ELi1ELi0ELi3ELi1EEEEEEENS0_9assign_opIddEELi0EEELi3ELi3EE3runERSD_, symObjAddr: 0x1A07C, symBinAddr: 0x10001E298, symSize: 0x10 }
  - { offsetInCU: 0x5AB4F, offset: 0x5AB4F, size: 0x8, addend: 0x0, symName: __ZN5Eigen8internal31generic_dense_assignment_kernelINS0_9evaluatorINS_6MatrixIdLi1ELi3ELi1ELi1ELi3EEEEENS2_INS_9TransposeINS3_IdLi3ELi1ELi0ELi3ELi1EEEEEEENS0_9assign_opIddEELi0EE11assignCoeffEll, symObjAddr: 0x1A08C, symBinAddr: 0x10001E2A8, symSize: 0x6C }
  - { offsetInCU: 0x5AB93, offset: 0x5AB93, size: 0x8, addend: 0x0, symName: __ZNK5Eigen8internal15unary_evaluatorINS_9TransposeINS_6MatrixIdLi3ELi1ELi0ELi3ELi1EEEEENS0_10IndexBasedEdE5coeffEll, symObjAddr: 0x1A0F8, symBinAddr: 0x10001E314, symSize: 0x34 }
  - { offsetInCU: 0x5ABD7, offset: 0x5ABD7, size: 0x8, addend: 0x0, symName: __ZN5Eigen8internal9evaluatorINS_6MatrixIdLi1ELi3ELi1ELi1ELi3EEEED2Ev, symObjAddr: 0x1A12C, symBinAddr: 0x10001E348, symSize: 0x2C }
  - { offsetInCU: 0x5AC04, offset: 0x5AC04, size: 0x8, addend: 0x0, symName: __ZN5Eigen8internal9evaluatorINS_15PlainObjectBaseINS_6MatrixIdLi1ELi3ELi1ELi1ELi3EEEEEED2Ev, symObjAddr: 0x1A158, symBinAddr: 0x10001E374, symSize: 0x2C }
  - { offsetInCU: 0x5AC30, offset: 0x5AC30, size: 0x8, addend: 0x0, symName: __ZN5Eigen8internal9evaluatorINS_9TransposeINS_6MatrixIdLi3ELi1ELi0ELi3ELi1EEEEEED2Ev, symObjAddr: 0x1A184, symBinAddr: 0x10001E3A0, symSize: 0x2C }
  - { offsetInCU: 0x5AC5C, offset: 0x5AC5C, size: 0x8, addend: 0x0, symName: __ZN5Eigen8internal15unary_evaluatorINS_9TransposeINS_6MatrixIdLi3ELi1ELi0ELi3ELi1EEEEENS0_10IndexBasedEdED2Ev, symObjAddr: 0x1A1B0, symBinAddr: 0x10001E3CC, symSize: 0x34 }
  - { offsetInCU: 0x5AC88, offset: 0x5AC88, size: 0x8, addend: 0x0, symName: __ZN5Eigen8IOFormatC2EiiRKNSt3__112basic_stringIcNS1_11char_traitsIcEENS1_9allocatorIcEEEES9_S9_S9_S9_S9_c, symObjAddr: 0x1A1E4, symBinAddr: 0x10001E400, symSize: 0x284 }
  - { offsetInCU: 0x5AD47, offset: 0x5AD47, size: 0x8, addend: 0x0, symName: __ZNSt3__112basic_stringIcNS_11char_traitsIcEENS_9allocatorIcEEEpLB8ue170006Ec, symObjAddr: 0x1A468, symBinAddr: 0x10001E684, symSize: 0x34 }
  - { offsetInCU: 0x5AD7C, offset: 0x5AD7C, size: 0x8, addend: 0x0, symName: __ZN5Eigen8IOFormatD2Ev, symObjAddr: 0x1A49C, symBinAddr: 0x10001E6B8, symSize: 0x74 }
  - { offsetInCU: 0x5ADA8, offset: 0x5ADA8, size: 0x8, addend: 0x0, symName: __ZNSt3__16vectorINS_5arrayIiLm3EEENS_9allocatorIS2_EEEC2B8ue170006ESt16initializer_listIS2_E, symObjAddr: 0x1A510, symBinAddr: 0x10001E72C, symSize: 0x120 }
  - { offsetInCU: 0x5ADF8, offset: 0x5ADF8, size: 0x8, addend: 0x0, symName: __ZNKSt16initializer_listINSt3__15arrayIiLm3EEEE4sizeB8ue170006Ev, symObjAddr: 0x1A670, symBinAddr: 0x10001E88C, symSize: 0x18 }
  - { offsetInCU: 0x5AE1E, offset: 0x5AE1E, size: 0x8, addend: 0x0, symName: __ZNSt3__16vectorINS_5arrayIiLm3EEENS_9allocatorIS2_EEE11__vallocateB8ue170006Em, symObjAddr: 0x1A688, symBinAddr: 0x10001E8A4, symSize: 0xB4 }
  - { offsetInCU: 0x5AE62, offset: 0x5AE62, size: 0x8, addend: 0x0, symName: __ZNSt3__16vectorINS_5arrayIiLm3EEENS_9allocatorIS2_EEE18__construct_at_endIPKS2_S8_EEvT_T0_m, symObjAddr: 0x1A73C, symBinAddr: 0x10001E958, symSize: 0x8C }
  - { offsetInCU: 0x5AED8, offset: 0x5AED8, size: 0x8, addend: 0x0, symName: __ZNKSt16initializer_listINSt3__15arrayIiLm3EEEE5beginB8ue170006Ev, symObjAddr: 0x1A7C8, symBinAddr: 0x10001E9E4, symSize: 0x18 }
  - { offsetInCU: 0x5AEFE, offset: 0x5AEFE, size: 0x8, addend: 0x0, symName: __ZNKSt16initializer_listINSt3__15arrayIiLm3EEEE3endB8ue170006Ev, symObjAddr: 0x1A7E0, symBinAddr: 0x10001E9FC, symSize: 0x28 }
  - { offsetInCU: 0x5AF24, offset: 0x5AF24, size: 0x8, addend: 0x0, symName: __ZNSt3__128__exception_guard_exceptionsINS_6vectorINS_5arrayIiLm3EEENS_9allocatorIS3_EEE16__destroy_vectorEE10__completeB8ue170006Ev, symObjAddr: 0x1A808, symBinAddr: 0x10001EA24, symSize: 0x1C }
  - { offsetInCU: 0x5AF4A, offset: 0x5AF4A, size: 0x8, addend: 0x0, symName: __ZNSt3__128__exception_guard_exceptionsINS_6vectorINS_5arrayIiLm3EEENS_9allocatorIS3_EEE16__destroy_vectorEED1B8ue170006Ev, symObjAddr: 0x1A824, symBinAddr: 0x10001EA40, symSize: 0x2C }
  - { offsetInCU: 0x5AF74, offset: 0x5AF74, size: 0x8, addend: 0x0, symName: __ZNSt3__128__exception_guard_exceptionsINS_6vectorINS_5arrayIiLm3EEENS_9allocatorIS3_EEE16__destroy_vectorEEC1B8ue170006ES7_, symObjAddr: 0x1A850, symBinAddr: 0x10001EA6C, symSize: 0x34 }
  - { offsetInCU: 0x5AFAC, offset: 0x5AFAC, size: 0x8, addend: 0x0, symName: __ZNSt3__128__exception_guard_exceptionsINS_6vectorINS_5arrayIiLm3EEENS_9allocatorIS3_EEE16__destroy_vectorEEC2B8ue170006ES7_, symObjAddr: 0x1A884, symBinAddr: 0x10001EAA0, symSize: 0x24 }
  - { offsetInCU: 0x5B004, offset: 0x5B004, size: 0x8, addend: 0x0, symName: __ZNSt3__14pairIPKNS_5arrayIiLm3EEES4_EC1B8ue170006IS4_S4_LPv0EEEOT_OT0_, symObjAddr: 0x1AA7C, symBinAddr: 0x10001EC98, symSize: 0x3C }
  - { offsetInCU: 0x5B062, offset: 0x5B062, size: 0x8, addend: 0x0, symName: __ZNSt3__14pairIPKNS_5arrayIiLm3EEES4_EC2B8ue170006IS4_S4_LPv0EEEOT_OT0_, symObjAddr: 0x1AAB8, symBinAddr: 0x10001ECD4, symSize: 0x34 }
  - { offsetInCU: 0x5B0C0, offset: 0x5B0C0, size: 0x8, addend: 0x0, symName: __ZNSt3__118__unwrap_iter_implIPKNS_5arrayIiLm3EEELb1EE8__unwrapB8ue170006ES4_, symObjAddr: 0x1AAEC, symBinAddr: 0x10001ED08, symSize: 0x24 }
  - { offsetInCU: 0x5B0FD, offset: 0x5B0FD, size: 0x8, addend: 0x0, symName: __ZNKSt3__114__copy_trivialclB8ue170006IKNS_5arrayIiLm3EEES3_Li0EEENS_4pairIPT_PT0_EES7_S7_S9_, symObjAddr: 0x1ACA0, symBinAddr: 0x10001EEBC, symSize: 0x48 }
  - { offsetInCU: 0x5B170, offset: 0x5B170, size: 0x8, addend: 0x0, symName: __ZNSt3__14pairIPKNS_5arrayIiLm3EEEPS2_EC1B8ue170006IRS4_S5_LPv0EEEOT_OT0_, symObjAddr: 0x1AE74, symBinAddr: 0x10001F090, symSize: 0x3C }
  - { offsetInCU: 0x5B1CE, offset: 0x5B1CE, size: 0x8, addend: 0x0, symName: __ZNSt3__14pairIPKNS_5arrayIiLm3EEEPS2_EC2B8ue170006IRS4_S5_LPv0EEEOT_OT0_, symObjAddr: 0x1AEB0, symBinAddr: 0x10001F0CC, symSize: 0x34 }
  - { offsetInCU: 0x5B22C, offset: 0x5B22C, size: 0x8, addend: 0x0, symName: __ZNSt3__14pairIPKNS_5arrayIiLm3EEEPS2_EC1B8ue170006IS4_S5_LPv0EEEOT_OT0_, symObjAddr: 0x1AEE4, symBinAddr: 0x10001F100, symSize: 0x3C }
  - { offsetInCU: 0x5B28A, offset: 0x5B28A, size: 0x8, addend: 0x0, symName: __ZNSt3__14pairIPKNS_5arrayIiLm3EEEPS2_EC2B8ue170006IS4_S5_LPv0EEEOT_OT0_, symObjAddr: 0x1AF20, symBinAddr: 0x10001F13C, symSize: 0x34 }
  - { offsetInCU: 0x5B2E8, offset: 0x5B2E8, size: 0x8, addend: 0x0, symName: __ZNSt3__118__unwrap_iter_implIPKNS_5arrayIiLm3EEELb1EE8__rewrapB8ue170006ES4_S4_, symObjAddr: 0x1AF90, symBinAddr: 0x10001F1AC, symSize: 0x58 }
  - { offsetInCU: 0x5B319, offset: 0x5B319, size: 0x8, addend: 0x0, symName: __ZNSt3__118__unwrap_iter_implIPNS_5arrayIiLm3EEELb1EE8__unwrapB8ue170006ES3_, symObjAddr: 0x1AFE8, symBinAddr: 0x10001F204, symSize: 0x24 }
  - { offsetInCU: 0x5B33C, offset: 0x5B33C, size: 0x8, addend: 0x0, symName: __ZNSt3__118__unwrap_iter_implIPNS_5arrayIiLm3EEELb1EE8__rewrapB8ue170006ES3_S3_, symObjAddr: 0x1B00C, symBinAddr: 0x10001F228, symSize: 0x58 }
  - { offsetInCU: 0x5B36D, offset: 0x5B36D, size: 0x8, addend: 0x0, symName: __ZNSt3__128__exception_guard_exceptionsINS_6vectorINS_5arrayIiLm3EEENS_9allocatorIS3_EEE16__destroy_vectorEED2B8ue170006Ev, symObjAddr: 0x1B064, symBinAddr: 0x10001F280, symSize: 0x48 }
  - { offsetInCU: 0x5B397, offset: 0x5B397, size: 0x8, addend: 0x0, symName: __ZNKSt3__15arrayIiLm2EE5beginB8ue170006Ev, symObjAddr: 0x1B0E4, symBinAddr: 0x10001F300, symSize: 0x24 }
  - { offsetInCU: 0x5B3BD, offset: 0x5B3BD, size: 0x8, addend: 0x0, symName: __ZNKSt3__15arrayIiLm2EE3endB8ue170006Ev, symObjAddr: 0x1B108, symBinAddr: 0x10001F324, symSize: 0x28 }
  - { offsetInCU: 0x5B3E3, offset: 0x5B3E3, size: 0x8, addend: 0x0, symName: __ZNSt3__118__unwrap_iter_implIPKiLb1EE8__unwrapB8ue170006ES2_, symObjAddr: 0x1B248, symBinAddr: 0x10001F464, symSize: 0x24 }
  - { offsetInCU: 0x5B406, offset: 0x5B406, size: 0x8, addend: 0x0, symName: __ZNKSt3__15arrayIiLm2EE4dataB8ue170006Ev, symObjAddr: 0x1B280, symBinAddr: 0x10001F49C, symSize: 0x14 }
  - { offsetInCU: 0x5B42C, offset: 0x5B42C, size: 0x8, addend: 0x0, symName: __ZNSt3__16vectorINS_5arrayIiLm2EEENS_9allocatorIS2_EEE8__appendEm, symObjAddr: 0x1B294, symBinAddr: 0x10001F4B0, symSize: 0x108 }
  - { offsetInCU: 0x5B487, offset: 0x5B487, size: 0x8, addend: 0x0, symName: __ZNSt3__16vectorINS_5arrayIiLm2EEENS_9allocatorIS2_EEE18__construct_at_endEm, symObjAddr: 0x1B39C, symBinAddr: 0x10001F5B8, symSize: 0xC8 }
  - { offsetInCU: 0x5B4F9, offset: 0x5B4F9, size: 0x8, addend: 0x0, symName: __ZNSt3__114__split_bufferINS_5arrayIiLm2EEERNS_9allocatorIS2_EEE18__construct_at_endEm, symObjAddr: 0x1B464, symBinAddr: 0x10001F680, symSize: 0xB4 }
  - { offsetInCU: 0x5B53E, offset: 0x5B53E, size: 0x8, addend: 0x0, symName: __ZNSt3__116allocator_traitsINS_9allocatorINS_5arrayIiLm2EEEEEE9constructB8ue170006IS3_JEvEEvRS4_PT_DpOT0_, symObjAddr: 0x1B518, symBinAddr: 0x10001F734, symSize: 0x2C }
  - { offsetInCU: 0x5B580, offset: 0x5B580, size: 0x8, addend: 0x0, symName: __ZNSt3__19allocatorINS_5arrayIiLm2EEEE9constructB8ue170006IS2_JEEEvPT_DpOT0_, symObjAddr: 0x1B544, symBinAddr: 0x10001F760, symSize: 0x1C }
  - { offsetInCU: 0x5B5C2, offset: 0x5B5C2, size: 0x8, addend: 0x0, symName: __ZNSt3__16vectorINS_5arrayIiLm2EEENS_9allocatorIS2_EEE22__construct_one_at_endB8ue170006IJS2_EEEvDpOT_, symObjAddr: 0x1B560, symBinAddr: 0x10001F77C, symSize: 0x90 }
  - { offsetInCU: 0x5B611, offset: 0x5B611, size: 0x8, addend: 0x0, symName: __ZNSt3__16vectorINS_5arrayIiLm2EEENS_9allocatorIS2_EEE21__push_back_slow_pathIS2_EEvOT_, symObjAddr: 0x1B5F0, symBinAddr: 0x10001F80C, symSize: 0xD8 }
  - { offsetInCU: 0x5B66F, offset: 0x5B66F, size: 0x8, addend: 0x0, symName: __ZNSt3__116allocator_traitsINS_9allocatorINS_5arrayIiLm2EEEEEE9constructB8ue170006IS3_JS3_EvEEvRS4_PT_DpOT0_, symObjAddr: 0x1B6C8, symBinAddr: 0x10001F8E4, symSize: 0x34 }
  - { offsetInCU: 0x5B6C6, offset: 0x5B6C6, size: 0x8, addend: 0x0, symName: __ZNSt3__19allocatorINS_5arrayIiLm2EEEE9constructB8ue170006IS2_JS2_EEEvPT_DpOT0_, symObjAddr: 0x1B6FC, symBinAddr: 0x10001F918, symSize: 0x28 }
  - { offsetInCU: 0x5B71C, offset: 0x5B71C, size: 0x8, addend: 0x0, symName: __ZNSt3__118__unwrap_iter_implIPiLb1EE8__rewrapB8ue170006ES1_S1_, symObjAddr: 0x1B80C, symBinAddr: 0x10001FA28, symSize: 0x50 }
  - { offsetInCU: 0x5B757, offset: 0x5B757, size: 0x8, addend: 0x0, symName: __ZNKSt3__110__identityclB8ue170006IRiEEOT_S4_, symObjAddr: 0x1B888, symBinAddr: 0x10001FAA4, symSize: 0x18 }
  - { offsetInCU: 0x5B794, offset: 0x5B794, size: 0x8, addend: 0x0, symName: __ZNSt3__118__unwrap_iter_implIPiLb1EE8__unwrapB8ue170006ES1_, symObjAddr: 0x1B8A0, symBinAddr: 0x10001FABC, symSize: 0x24 }
  - { offsetInCU: 0x5B7B7, offset: 0x5B7B7, size: 0x8, addend: 0x0, symName: __ZNSt3__16vectorIiNS_9allocatorIiEEE22__construct_one_at_endB8ue170006IJRKiEEEvDpOT_, symObjAddr: 0x1B8C4, symBinAddr: 0x10001FAE0, symSize: 0x90 }
  - { offsetInCU: 0x5B806, offset: 0x5B806, size: 0x8, addend: 0x0, symName: __ZNSt3__16vectorIiNS_9allocatorIiEEE21__push_back_slow_pathIRKiEEvOT_, symObjAddr: 0x1B954, symBinAddr: 0x10001FB70, symSize: 0xD8 }
  - { offsetInCU: 0x5B864, offset: 0x5B864, size: 0x8, addend: 0x0, symName: __ZNSt3__16vectorINS_5arrayIiLm2EEENS_9allocatorIS2_EEE11__make_iterB8ue170006EPS2_, symObjAddr: 0x1BA2C, symBinAddr: 0x10001FC48, symSize: 0x30 }
  - { offsetInCU: 0x5B899, offset: 0x5B899, size: 0x8, addend: 0x0, symName: __ZNSt3__111__wrap_iterIPNS_5arrayIiLm2EEEEC1B8ue170006ES3_, symObjAddr: 0x1BA5C, symBinAddr: 0x10001FC78, symSize: 0x34 }
  - { offsetInCU: 0x5B8D1, offset: 0x5B8D1, size: 0x8, addend: 0x0, symName: __ZNSt3__111__wrap_iterIPNS_5arrayIiLm2EEEEC2B8ue170006ES3_, symObjAddr: 0x1BA90, symBinAddr: 0x10001FCAC, symSize: 0x20 }
  - { offsetInCU: 0x5B909, offset: 0x5B909, size: 0x8, addend: 0x0, symName: __ZNSt3__118__unwrap_iter_implINS_11__wrap_iterIPNS_5arrayIiLm2EEEEELb1EE8__rewrapB8ue170006ES5_S4_, symObjAddr: 0x1BBA4, symBinAddr: 0x10001FDC0, symSize: 0x5C }
  - { offsetInCU: 0x5B93F, offset: 0x5B93F, size: 0x8, addend: 0x0, symName: __ZNSt3__119__to_address_helperINS_11__wrap_iterIPNS_5arrayIiLm2EEEEEvE6__callB8ue170006ERKS5_, symObjAddr: 0x1BC24, symBinAddr: 0x10001FE40, symSize: 0x30 }
  - { offsetInCU: 0x5B962, offset: 0x5B962, size: 0x8, addend: 0x0, symName: __ZNSt3__114pointer_traitsINS_11__wrap_iterIPNS_5arrayIiLm2EEEEEE10to_addressB8ue170006ES5_, symObjAddr: 0x1BC54, symBinAddr: 0x10001FE70, symSize: 0x2C }
  - { offsetInCU: 0x5B985, offset: 0x5B985, size: 0x8, addend: 0x0, symName: __ZNKSt3__110__identityclB8ue170006IRNS_5arrayIiLm2EEEEEOT_S6_, symObjAddr: 0x1BCAC, symBinAddr: 0x10001FEC8, symSize: 0x18 }
  - { offsetInCU: 0x5B9C2, offset: 0x5B9C2, size: 0x8, addend: 0x0, symName: __ZNSt3__118__unwrap_iter_implINS_11__wrap_iterIPNS_5arrayIiLm2EEEEELb1EE8__unwrapB8ue170006ES5_, symObjAddr: 0x1BCC4, symBinAddr: 0x10001FEE0, symSize: 0x28 }
  - { offsetInCU: 0x5B9E5, offset: 0x5B9E5, size: 0x8, addend: 0x0, symName: __ZNSt3__16vectorIiNS_9allocatorIiEEE11__make_iterB8ue170006EPi, symObjAddr: 0x1BCEC, symBinAddr: 0x10001FF08, symSize: 0x30 }
  - { offsetInCU: 0x5BA1A, offset: 0x5BA1A, size: 0x8, addend: 0x0, symName: __ZNSt3__111__wrap_iterIPiEC1B8ue170006ES1_, symObjAddr: 0x1BD1C, symBinAddr: 0x10001FF38, symSize: 0x34 }
  - { offsetInCU: 0x5BA52, offset: 0x5BA52, size: 0x8, addend: 0x0, symName: __ZNSt3__111__wrap_iterIPiEC2B8ue170006ES1_, symObjAddr: 0x1BD50, symBinAddr: 0x10001FF6C, symSize: 0x20 }
  - { offsetInCU: 0x5BA8A, offset: 0x5BA8A, size: 0x8, addend: 0x0, symName: __ZNSt3__118__unwrap_iter_implINS_11__wrap_iterIPiEELb1EE8__rewrapB8ue170006ES3_S2_, symObjAddr: 0x1BDE8, symBinAddr: 0x100020004, symSize: 0x5C }
  - { offsetInCU: 0x5BABB, offset: 0x5BABB, size: 0x8, addend: 0x0, symName: __ZNKSt3__111__wrap_iterIPiEplB8ue170006El, symObjAddr: 0x1BE44, symBinAddr: 0x100020060, symSize: 0x3C }
  - { offsetInCU: 0x5BAFD, offset: 0x5BAFD, size: 0x8, addend: 0x0, symName: __ZNSt3__111__wrap_iterIPiEpLB8ue170006El, symObjAddr: 0x1BEA4, symBinAddr: 0x1000200C0, symSize: 0x28 }
  - { offsetInCU: 0x5BB3B, offset: 0x5BB3B, size: 0x8, addend: 0x0, symName: __ZNSt3__119__to_address_helperINS_11__wrap_iterIPiEEvE6__callB8ue170006ERKS3_, symObjAddr: 0x1BECC, symBinAddr: 0x1000200E8, symSize: 0x30 }
  - { offsetInCU: 0x5BB5E, offset: 0x5BB5E, size: 0x8, addend: 0x0, symName: __ZNSt3__114pointer_traitsINS_11__wrap_iterIPiEEE10to_addressB8ue170006ES3_, symObjAddr: 0x1BEFC, symBinAddr: 0x100020118, symSize: 0x2C }
  - { offsetInCU: 0x5BB81, offset: 0x5BB81, size: 0x8, addend: 0x0, symName: __ZNSt3__118__unwrap_iter_implINS_11__wrap_iterIPiEELb1EE8__unwrapB8ue170006ES3_, symObjAddr: 0x1BF28, symBinAddr: 0x100020144, symSize: 0x28 }
  - { offsetInCU: 0x5BBA4, offset: 0x5BBA4, size: 0x8, addend: 0x0, symName: __ZNSt3__16vectorINS_5arrayIiLm2EEENS_9allocatorIS2_EEE22__construct_one_at_endB8ue170006IJRKS2_EEEvDpOT_, symObjAddr: 0x1BF50, symBinAddr: 0x10002016C, symSize: 0x90 }
  - { offsetInCU: 0x5BBF3, offset: 0x5BBF3, size: 0x8, addend: 0x0, symName: __ZNSt3__16vectorINS_5arrayIiLm2EEENS_9allocatorIS2_EEE21__push_back_slow_pathIRKS2_EEvOT_, symObjAddr: 0x1BFE0, symBinAddr: 0x1000201FC, symSize: 0xD8 }
  - { offsetInCU: 0x5BC51, offset: 0x5BC51, size: 0x8, addend: 0x0, symName: __ZNSt3__16vectorINS_5arrayIiLm2EEENS_9allocatorIS2_EEE18__insert_with_sizeB8ue170006INS_11__wrap_iterIPS2_EES9_EES9_NS7_IPKS2_EET_T0_l, symObjAddr: 0x1C0B8, symBinAddr: 0x1000202D4, symSize: 0x310 }
  - { offsetInCU: 0x5BD79, offset: 0x5BD79, size: 0x8, addend: 0x0, symName: __ZNSt3__16vectorINS_5arrayIiLm2EEENS_9allocatorIS2_EEE18__construct_at_endINS_11__wrap_iterIPS2_EES9_EEvT_T0_m, symObjAddr: 0x1C4C0, symBinAddr: 0x1000206DC, symSize: 0x9C }
  - { offsetInCU: 0x5BDEF, offset: 0x5BDEF, size: 0x8, addend: 0x0, symName: __ZNSt3__16vectorINS_5arrayIiLm2EEENS_9allocatorIS2_EEE12__move_rangeEPS2_S6_S6_, symObjAddr: 0x1C55C, symBinAddr: 0x100020778, symSize: 0x12C }
  - { offsetInCU: 0x5BEAB, offset: 0x5BEAB, size: 0x8, addend: 0x0, symName: __ZNSt3__114__split_bufferINS_5arrayIiLm2EEERNS_9allocatorIS2_EEE28__construct_at_end_with_sizeINS_11__wrap_iterIPS2_EEEEvT_m, symObjAddr: 0x1C6D8, symBinAddr: 0x1000208F4, symSize: 0xD0 }
  - { offsetInCU: 0x5BF11, offset: 0x5BF11, size: 0x8, addend: 0x0, symName: __ZNKSt3__123__move_backward_trivialclB8ue170006INS_5arrayIiLm2EEES3_Li0EEENS_4pairIPT_PT0_EES6_S6_S8_, symObjAddr: 0x1CB9C, symBinAddr: 0x100020DB8, symSize: 0x48 }
  - { offsetInCU: 0x5BF79, offset: 0x5BF79, size: 0x8, addend: 0x0, symName: __ZNSt3__14pairIPNS_5arrayIiLm2EEES3_EC1B8ue170006IRS3_S6_LPv0EEEOT_OT0_, symObjAddr: 0x1CCAC, symBinAddr: 0x100020EC8, symSize: 0x3C }
  - { offsetInCU: 0x5BFD7, offset: 0x5BFD7, size: 0x8, addend: 0x0, symName: __ZNSt3__14pairIPNS_5arrayIiLm2EEES3_EC2B8ue170006IRS3_S6_LPv0EEEOT_OT0_, symObjAddr: 0x1CCE8, symBinAddr: 0x100020F04, symSize: 0x34 }
  - { offsetInCU: 0x5C055, offset: 0x5C055, size: 0x8, addend: 0x0, symName: __ZNSt3__14pairINS_11__wrap_iterIPNS_5arrayIiLm2EEEEES4_EC1B8ue170006IS5_S4_LPv0EEEOT_OT0_, symObjAddr: 0x1CF04, symBinAddr: 0x100021120, symSize: 0x3C }
  - { offsetInCU: 0x5C0B3, offset: 0x5C0B3, size: 0x8, addend: 0x0, symName: __ZNSt3__14pairINS_11__wrap_iterIPNS_5arrayIiLm2EEEEES4_EC2B8ue170006IS5_S4_LPv0EEEOT_OT0_, symObjAddr: 0x1CF40, symBinAddr: 0x10002115C, symSize: 0x34 }
  - { offsetInCU: 0x5C111, offset: 0x5C111, size: 0x8, addend: 0x0, symName: __ZNSt3__116allocator_traitsINS_9allocatorINS_5arrayIiLm2EEEEEE9constructB8ue170006IS3_JRS3_EvEEvRS4_PT_DpOT0_, symObjAddr: 0x1CF74, symBinAddr: 0x100021190, symSize: 0x34 }
  - { offsetInCU: 0x5C168, offset: 0x5C168, size: 0x8, addend: 0x0, symName: __ZNSt3__19allocatorINS_5arrayIiLm2EEEE9constructB8ue170006IS2_JRS2_EEEvPT_DpOT0_, symObjAddr: 0x1CFA8, symBinAddr: 0x1000211C4, symSize: 0x28 }
  - { offsetInCU: 0x5C1C8, offset: 0x5C1C8, size: 0x8, addend: 0x0, symName: __ZNKSt3__114__move_trivialclB8ue170006INS_5arrayIiLm2EEES3_Li0EEENS_4pairIPT_PT0_EES6_S6_S8_, symObjAddr: 0x1D184, symBinAddr: 0x1000213A0, symSize: 0x48 }
  - { offsetInCU: 0x5C230, offset: 0x5C230, size: 0x8, addend: 0x0, symName: __ZNSt3__16vectorIZN8Geometry28calculate_bend_twist_springsEiE10SpringPairNS_9allocatorIS2_EEEC2B8ue170006Ev, symObjAddr: 0x1D244, symBinAddr: 0x100021460, symSize: 0x4C }
  - { offsetInCU: 0x5C25A, offset: 0x5C25A, size: 0x8, addend: 0x0, symName: __ZNSt3__117__compressed_pairIPZN8Geometry28calculate_bend_twist_springsEiE10SpringPairNS_9allocatorIS2_EEEC1B8ue170006IDnNS_18__default_init_tagEEEOT_OT0_, symObjAddr: 0x1D290, symBinAddr: 0x1000214AC, symSize: 0x3C }
  - { offsetInCU: 0x5C2B2, offset: 0x5C2B2, size: 0x8, addend: 0x0, symName: __ZNSt3__117__compressed_pairIPZN8Geometry28calculate_bend_twist_springsEiE10SpringPairNS_9allocatorIS2_EEEC2B8ue170006IDnNS_18__default_init_tagEEEOT_OT0_, symObjAddr: 0x1D2CC, symBinAddr: 0x1000214E8, symSize: 0x40 }
  - { offsetInCU: 0x5C30A, offset: 0x5C30A, size: 0x8, addend: 0x0, symName: __ZNSt3__122__compressed_pair_elemIPZN8Geometry28calculate_bend_twist_springsEiE10SpringPairLi0ELb0EEC2B8ue170006IDnvEEOT_, symObjAddr: 0x1D30C, symBinAddr: 0x100021528, symSize: 0x1C }
  - { offsetInCU: 0x5C34C, offset: 0x5C34C, size: 0x8, addend: 0x0, symName: __ZNSt3__122__compressed_pair_elemINS_9allocatorIZN8Geometry28calculate_bend_twist_springsEiE10SpringPairEELi1ELb1EEC2B8ue170006ENS_18__default_init_tagE, symObjAddr: 0x1D328, symBinAddr: 0x100021544, symSize: 0x2C }
  - { offsetInCU: 0x5C381, offset: 0x5C381, size: 0x8, addend: 0x0, symName: __ZNSt3__19allocatorIZN8Geometry28calculate_bend_twist_springsEiE10SpringPairEC2B8ue170006Ev, symObjAddr: 0x1D354, symBinAddr: 0x100021570, symSize: 0x2C }
  - { offsetInCU: 0x5C3AB, offset: 0x5C3AB, size: 0x8, addend: 0x0, symName: __ZNSt3__116__non_trivial_ifILb1ENS_9allocatorIZN8Geometry28calculate_bend_twist_springsEiE10SpringPairEEEC2B8ue170006Ev, symObjAddr: 0x1D380, symBinAddr: 0x10002159C, symSize: 0x14 }
  - { offsetInCU: 0x5C3D5, offset: 0x5C3D5, size: 0x8, addend: 0x0, symName: __ZNSt3__16vectorIZN8Geometry28calculate_bend_twist_springsEiE10SpringPairNS_9allocatorIS2_EEED2B8ue170006Ev, symObjAddr: 0x1D394, symBinAddr: 0x1000215B0, symSize: 0x44 }
  - { offsetInCU: 0x5C3FF, offset: 0x5C3FF, size: 0x8, addend: 0x0, symName: __ZNSt3__16vectorIZN8Geometry28calculate_bend_twist_springsEiE10SpringPairNS_9allocatorIS2_EEE16__destroy_vectorC1B8ue170006ERS5_, symObjAddr: 0x1D3D8, symBinAddr: 0x1000215F4, symSize: 0x34 }
  - { offsetInCU: 0x5C438, offset: 0x5C438, size: 0x8, addend: 0x0, symName: __ZNSt3__16vectorIZN8Geometry28calculate_bend_twist_springsEiE10SpringPairNS_9allocatorIS2_EEE16__destroy_vectorclB8ue170006Ev, symObjAddr: 0x1D40C, symBinAddr: 0x100021628, symSize: 0x90 }
  - { offsetInCU: 0x5C45E, offset: 0x5C45E, size: 0x8, addend: 0x0, symName: __ZNSt3__16vectorIZN8Geometry28calculate_bend_twist_springsEiE10SpringPairNS_9allocatorIS2_EEE16__destroy_vectorC2B8ue170006ERS5_, symObjAddr: 0x1D49C, symBinAddr: 0x1000216B8, symSize: 0x20 }
  - { offsetInCU: 0x5C497, offset: 0x5C497, size: 0x8, addend: 0x0, symName: __ZNSt3__16vectorIZN8Geometry28calculate_bend_twist_springsEiE10SpringPairNS_9allocatorIS2_EEE7__clearB8ue170006Ev, symObjAddr: 0x1D4BC, symBinAddr: 0x1000216D8, symSize: 0x28 }
  - { offsetInCU: 0x5C4BD, offset: 0x5C4BD, size: 0x8, addend: 0x0, symName: __ZNKSt3__16vectorIZN8Geometry28calculate_bend_twist_springsEiE10SpringPairNS_9allocatorIS2_EEE17__annotate_deleteB8ue170006Ev, symObjAddr: 0x1D4E4, symBinAddr: 0x100021700, symSize: 0xD4 }
  - { offsetInCU: 0x5C4E3, offset: 0x5C4E3, size: 0x8, addend: 0x0, symName: __ZNSt3__116allocator_traitsINS_9allocatorIZN8Geometry28calculate_bend_twist_springsEiE10SpringPairEEE10deallocateB8ue170006ERS4_PS3_m, symObjAddr: 0x1D5B8, symBinAddr: 0x1000217D4, symSize: 0x34 }
  - { offsetInCU: 0x5C525, offset: 0x5C525, size: 0x8, addend: 0x0, symName: __ZNSt3__16vectorIZN8Geometry28calculate_bend_twist_springsEiE10SpringPairNS_9allocatorIS2_EEE7__allocB8ue170006Ev, symObjAddr: 0x1D5EC, symBinAddr: 0x100021808, symSize: 0x28 }
  - { offsetInCU: 0x5C54B, offset: 0x5C54B, size: 0x8, addend: 0x0, symName: __ZNKSt3__16vectorIZN8Geometry28calculate_bend_twist_springsEiE10SpringPairNS_9allocatorIS2_EEE8capacityB8ue170006Ev, symObjAddr: 0x1D614, symBinAddr: 0x100021830, symSize: 0x40 }
  - { offsetInCU: 0x5C571, offset: 0x5C571, size: 0x8, addend: 0x0, symName: __ZNSt3__16vectorIZN8Geometry28calculate_bend_twist_springsEiE10SpringPairNS_9allocatorIS2_EEE22__base_destruct_at_endB8ue170006EPS2_, symObjAddr: 0x1D654, symBinAddr: 0x100021870, symSize: 0x8C }
  - { offsetInCU: 0x5C5B5, offset: 0x5C5B5, size: 0x8, addend: 0x0, symName: __ZNSt3__116allocator_traitsINS_9allocatorIZN8Geometry28calculate_bend_twist_springsEiE10SpringPairEEE7destroyB8ue170006IS3_vEEvRS4_PT_, symObjAddr: 0x1D6E0, symBinAddr: 0x1000218FC, symSize: 0x2C }
  - { offsetInCU: 0x5C5F2, offset: 0x5C5F2, size: 0x8, addend: 0x0, symName: __ZNSt3__19allocatorIZN8Geometry28calculate_bend_twist_springsEiE10SpringPairE7destroyB8ue170006EPS2_, symObjAddr: 0x1D720, symBinAddr: 0x10002193C, symSize: 0x28 }
  - { offsetInCU: 0x5C626, offset: 0x5C626, size: 0x8, addend: 0x0, symName: __ZNKSt3__16vectorIZN8Geometry28calculate_bend_twist_springsEiE10SpringPairNS_9allocatorIS2_EEE31__annotate_contiguous_containerB8ue170006EPKvS7_S7_S7_, symObjAddr: 0x1D748, symBinAddr: 0x100021964, symSize: 0x20 }
  - { offsetInCU: 0x5C678, offset: 0x5C678, size: 0x8, addend: 0x0, symName: __ZNKSt3__16vectorIZN8Geometry28calculate_bend_twist_springsEiE10SpringPairNS_9allocatorIS2_EEE4dataB8ue170006Ev, symObjAddr: 0x1D768, symBinAddr: 0x100021984, symSize: 0x28 }
  - { offsetInCU: 0x5C69E, offset: 0x5C69E, size: 0x8, addend: 0x0, symName: __ZNKSt3__16vectorIZN8Geometry28calculate_bend_twist_springsEiE10SpringPairNS_9allocatorIS2_EEE4sizeB8ue170006Ev, symObjAddr: 0x1D790, symBinAddr: 0x1000219AC, symSize: 0x28 }
  - { offsetInCU: 0x5C6C4, offset: 0x5C6C4, size: 0x8, addend: 0x0, symName: __ZNSt3__19allocatorIZN8Geometry28calculate_bend_twist_springsEiE10SpringPairE10deallocateB8ue170006EPS2_m, symObjAddr: 0x1D7B8, symBinAddr: 0x1000219D4, symSize: 0x44 }
  - { offsetInCU: 0x5C706, offset: 0x5C706, size: 0x8, addend: 0x0, symName: __ZNSt3__117__compressed_pairIPZN8Geometry28calculate_bend_twist_springsEiE10SpringPairNS_9allocatorIS2_EEE6secondB8ue170006Ev, symObjAddr: 0x1D7FC, symBinAddr: 0x100021A18, symSize: 0x24 }
  - { offsetInCU: 0x5C72C, offset: 0x5C72C, size: 0x8, addend: 0x0, symName: __ZNSt3__122__compressed_pair_elemINS_9allocatorIZN8Geometry28calculate_bend_twist_springsEiE10SpringPairEELi1ELb1EE5__getB8ue170006Ev, symObjAddr: 0x1D820, symBinAddr: 0x100021A3C, symSize: 0x14 }
  - { offsetInCU: 0x5C752, offset: 0x5C752, size: 0x8, addend: 0x0, symName: __ZNKSt3__16vectorIZN8Geometry28calculate_bend_twist_springsEiE10SpringPairNS_9allocatorIS2_EEE9__end_capB8ue170006Ev, symObjAddr: 0x1D834, symBinAddr: 0x100021A50, symSize: 0x28 }
  - { offsetInCU: 0x5C778, offset: 0x5C778, size: 0x8, addend: 0x0, symName: __ZNKSt3__117__compressed_pairIPZN8Geometry28calculate_bend_twist_springsEiE10SpringPairNS_9allocatorIS2_EEE5firstB8ue170006Ev, symObjAddr: 0x1D85C, symBinAddr: 0x100021A78, symSize: 0x24 }
  - { offsetInCU: 0x5C79E, offset: 0x5C79E, size: 0x8, addend: 0x0, symName: __ZNKSt3__122__compressed_pair_elemIPZN8Geometry28calculate_bend_twist_springsEiE10SpringPairLi0ELb0EE5__getB8ue170006Ev, symObjAddr: 0x1D880, symBinAddr: 0x100021A9C, symSize: 0x14 }
  - { offsetInCU: 0x5C7C4, offset: 0x5C7C4, size: 0x8, addend: 0x0, symName: __ZNSt3__16vectorIZN8Geometry28calculate_bend_twist_springsEiE10SpringPairNS_9allocatorIS2_EEE9__end_capB8ue170006Ev, symObjAddr: 0x1D894, symBinAddr: 0x100021AB0, symSize: 0x28 }
  - { offsetInCU: 0x5C7F0, offset: 0x5C7F0, size: 0x8, addend: 0x0, symName: __ZNSt3__16vectorIZN8Geometry28calculate_bend_twist_springsEiE10SpringPairNS_9allocatorIS2_EEE22__construct_one_at_endB8ue170006IJS2_EEEvDpOT_, symObjAddr: 0x1D8BC, symBinAddr: 0x100021AD8, symSize: 0x90 }
  - { offsetInCU: 0x5C83F, offset: 0x5C83F, size: 0x8, addend: 0x0, symName: __ZNSt3__16vectorIZN8Geometry28calculate_bend_twist_springsEiE10SpringPairNS_9allocatorIS2_EEE21__push_back_slow_pathIS2_EEvOT_, symObjAddr: 0x1D94C, symBinAddr: 0x100021B68, symSize: 0xD8 }
  - { offsetInCU: 0x5C89D, offset: 0x5C89D, size: 0x8, addend: 0x0, symName: __ZNSt3__117__compressed_pairIPZN8Geometry28calculate_bend_twist_springsEiE10SpringPairNS_9allocatorIS2_EEE5firstB8ue170006Ev, symObjAddr: 0x1DA24, symBinAddr: 0x100021C40, symSize: 0x24 }
  - { offsetInCU: 0x5C8C3, offset: 0x5C8C3, size: 0x8, addend: 0x0, symName: __ZNSt3__122__compressed_pair_elemIPZN8Geometry28calculate_bend_twist_springsEiE10SpringPairLi0ELb0EE5__getB8ue170006Ev, symObjAddr: 0x1DA48, symBinAddr: 0x100021C64, symSize: 0x14 }
  - { offsetInCU: 0x5C902, offset: 0x5C902, size: 0x8, addend: 0x0, symName: __ZNSt3__16vectorIZN8Geometry28calculate_bend_twist_springsEiE10SpringPairNS_9allocatorIS2_EEE21_ConstructTransactionC1B8ue170006ERS5_m, symObjAddr: 0x1DA5C, symBinAddr: 0x100021C78, symSize: 0x3C }
  - { offsetInCU: 0x5C94A, offset: 0x5C94A, size: 0x8, addend: 0x0, symName: __ZNSt3__116allocator_traitsINS_9allocatorIZN8Geometry28calculate_bend_twist_springsEiE10SpringPairEEE9constructB8ue170006IS3_JS3_EvEEvRS4_PT_DpOT0_, symObjAddr: 0x1DA98, symBinAddr: 0x100021CB4, symSize: 0x34 }
  - { offsetInCU: 0x5C9A1, offset: 0x5C9A1, size: 0x8, addend: 0x0, symName: __ZNSt3__16vectorIZN8Geometry28calculate_bend_twist_springsEiE10SpringPairNS_9allocatorIS2_EEE21_ConstructTransactionD1B8ue170006Ev, symObjAddr: 0x1DACC, symBinAddr: 0x100021CE8, symSize: 0x2C }
  - { offsetInCU: 0x5C9CB, offset: 0x5C9CB, size: 0x8, addend: 0x0, symName: __ZNSt3__16vectorIZN8Geometry28calculate_bend_twist_springsEiE10SpringPairNS_9allocatorIS2_EEE21_ConstructTransactionC2B8ue170006ERS5_m, symObjAddr: 0x1DAF8, symBinAddr: 0x100021D14, symSize: 0x4C }
  - { offsetInCU: 0x5CA13, offset: 0x5CA13, size: 0x8, addend: 0x0, symName: __ZNSt3__19allocatorIZN8Geometry28calculate_bend_twist_springsEiE10SpringPairE9constructB8ue170006IS2_JS2_EEEvPT_DpOT0_, symObjAddr: 0x1DB44, symBinAddr: 0x100021D60, symSize: 0x30 }
  - { offsetInCU: 0x5CA69, offset: 0x5CA69, size: 0x8, addend: 0x0, symName: __ZZN8Geometry28calculate_bend_twist_springsEiEN10SpringPairC1EOS0_, symObjAddr: 0x1DB74, symBinAddr: 0x100021D90, symSize: 0x34 }
  - { offsetInCU: 0x5CA9E, offset: 0x5CA9E, size: 0x8, addend: 0x0, symName: __ZZN8Geometry28calculate_bend_twist_springsEiEN10SpringPairC2EOS0_, symObjAddr: 0x1DBA8, symBinAddr: 0x100021DC4, symSize: 0x48 }
  - { offsetInCU: 0x5CAD3, offset: 0x5CAD3, size: 0x8, addend: 0x0, symName: __ZNSt3__16vectorINS_5arrayIiLm2EEENS_9allocatorIS2_EEEC1B8ue170006EOS5_, symObjAddr: 0x1DBF0, symBinAddr: 0x100021E0C, symSize: 0x34 }
  - { offsetInCU: 0x5CB0E, offset: 0x5CB0E, size: 0x8, addend: 0x0, symName: __ZNSt3__16vectorINS_5arrayIiLm2EEENS_9allocatorIS2_EEEC2B8ue170006EOS5_, symObjAddr: 0x1DC24, symBinAddr: 0x100021E40, symSize: 0xC4 }
  - { offsetInCU: 0x5CB49, offset: 0x5CB49, size: 0x8, addend: 0x0, symName: __ZNSt3__16vectorIZN8Geometry28calculate_bend_twist_springsEiE10SpringPairNS_9allocatorIS2_EEE21_ConstructTransactionD2B8ue170006Ev, symObjAddr: 0x1DCE8, symBinAddr: 0x100021F04, symSize: 0x20 }
  - { offsetInCU: 0x5CB73, offset: 0x5CB73, size: 0x8, addend: 0x0, symName: __ZNKSt3__16vectorIZN8Geometry28calculate_bend_twist_springsEiE10SpringPairNS_9allocatorIS2_EEE11__recommendB8ue170006Em, symObjAddr: 0x1DD08, symBinAddr: 0x100021F24, symSize: 0xB4 }
  - { offsetInCU: 0x5CBC8, offset: 0x5CBC8, size: 0x8, addend: 0x0, symName: __ZNSt3__114__split_bufferIZN8Geometry28calculate_bend_twist_springsEiE10SpringPairRNS_9allocatorIS2_EEEC1EmmS5_, symObjAddr: 0x1DDBC, symBinAddr: 0x100021FD8, symSize: 0x44 }
  - { offsetInCU: 0x5CC1E, offset: 0x5CC1E, size: 0x8, addend: 0x0, symName: __ZNSt3__114__split_bufferIZN8Geometry28calculate_bend_twist_springsEiE10SpringPairRNS_9allocatorIS2_EEED1Ev, symObjAddr: 0x1DF10, symBinAddr: 0x10002212C, symSize: 0x2C }
  - { offsetInCU: 0x5CC4A, offset: 0x5CC4A, size: 0x8, addend: 0x0, symName: __ZNKSt3__16vectorIZN8Geometry28calculate_bend_twist_springsEiE10SpringPairNS_9allocatorIS2_EEE8max_sizeEv, symObjAddr: 0x1DF3C, symBinAddr: 0x100022158, symSize: 0x60 }
  - { offsetInCU: 0x5CC72, offset: 0x5CC72, size: 0x8, addend: 0x0, symName: __ZNKSt3__16vectorIZN8Geometry28calculate_bend_twist_springsEiE10SpringPairNS_9allocatorIS2_EEE20__throw_length_errorB8ue170006Ev, symObjAddr: 0x1DF9C, symBinAddr: 0x1000221B8, symSize: 0x1C }
  - { offsetInCU: 0x5CCA2, offset: 0x5CCA2, size: 0x8, addend: 0x0, symName: __ZNSt3__116allocator_traitsINS_9allocatorIZN8Geometry28calculate_bend_twist_springsEiE10SpringPairEEE8max_sizeB8ue170006IS4_vEEmRKS4_, symObjAddr: 0x1DFB8, symBinAddr: 0x1000221D4, symSize: 0x24 }
  - { offsetInCU: 0x5CCD0, offset: 0x5CCD0, size: 0x8, addend: 0x0, symName: __ZNKSt3__16vectorIZN8Geometry28calculate_bend_twist_springsEiE10SpringPairNS_9allocatorIS2_EEE7__allocB8ue170006Ev, symObjAddr: 0x1DFDC, symBinAddr: 0x1000221F8, symSize: 0x28 }
  - { offsetInCU: 0x5CCF6, offset: 0x5CCF6, size: 0x8, addend: 0x0, symName: __ZNKSt3__19allocatorIZN8Geometry28calculate_bend_twist_springsEiE10SpringPairE8max_sizeB8ue170006Ev, symObjAddr: 0x1E004, symBinAddr: 0x100022220, symSize: 0x18 }
  - { offsetInCU: 0x5CD1C, offset: 0x5CD1C, size: 0x8, addend: 0x0, symName: __ZNKSt3__117__compressed_pairIPZN8Geometry28calculate_bend_twist_springsEiE10SpringPairNS_9allocatorIS2_EEE6secondB8ue170006Ev, symObjAddr: 0x1E01C, symBinAddr: 0x100022238, symSize: 0x24 }
  - { offsetInCU: 0x5CD42, offset: 0x5CD42, size: 0x8, addend: 0x0, symName: __ZNKSt3__122__compressed_pair_elemINS_9allocatorIZN8Geometry28calculate_bend_twist_springsEiE10SpringPairEELi1ELb1EE5__getB8ue170006Ev, symObjAddr: 0x1E040, symBinAddr: 0x10002225C, symSize: 0x14 }
  - { offsetInCU: 0x5CD68, offset: 0x5CD68, size: 0x8, addend: 0x0, symName: __ZNSt3__114__split_bufferIZN8Geometry28calculate_bend_twist_springsEiE10SpringPairRNS_9allocatorIS2_EEEC2EmmS5_, symObjAddr: 0x1E054, symBinAddr: 0x100022270, symSize: 0xE0 }
  - { offsetInCU: 0x5CDDB, offset: 0x5CDDB, size: 0x8, addend: 0x0, symName: __ZNSt3__117__compressed_pairIPZN8Geometry28calculate_bend_twist_springsEiE10SpringPairRNS_9allocatorIS2_EEEC1B8ue170006IDnS6_EEOT_OT0_, symObjAddr: 0x1E134, symBinAddr: 0x100022350, symSize: 0x3C }
  - { offsetInCU: 0x5CE33, offset: 0x5CE33, size: 0x8, addend: 0x0, symName: __ZNSt3__114__split_bufferIZN8Geometry28calculate_bend_twist_springsEiE10SpringPairRNS_9allocatorIS2_EEE7__allocB8ue170006Ev, symObjAddr: 0x1E1B0, symBinAddr: 0x1000223CC, symSize: 0x28 }
  - { offsetInCU: 0x5CE59, offset: 0x5CE59, size: 0x8, addend: 0x0, symName: __ZNSt3__114__split_bufferIZN8Geometry28calculate_bend_twist_springsEiE10SpringPairRNS_9allocatorIS2_EEE9__end_capB8ue170006Ev, symObjAddr: 0x1E1D8, symBinAddr: 0x1000223F4, symSize: 0x28 }
  - { offsetInCU: 0x5CE7F, offset: 0x5CE7F, size: 0x8, addend: 0x0, symName: __ZNSt3__117__compressed_pairIPZN8Geometry28calculate_bend_twist_springsEiE10SpringPairRNS_9allocatorIS2_EEEC2B8ue170006IDnS6_EEOT_OT0_, symObjAddr: 0x1E200, symBinAddr: 0x10002241C, symSize: 0x48 }
  - { offsetInCU: 0x5CED7, offset: 0x5CED7, size: 0x8, addend: 0x0, symName: __ZNSt3__122__compressed_pair_elemIRNS_9allocatorIZN8Geometry28calculate_bend_twist_springsEiE10SpringPairEELi1ELb0EEC2B8ue170006IS5_vEEOT_, symObjAddr: 0x1E248, symBinAddr: 0x100022464, symSize: 0x20 }
  - { offsetInCU: 0x5CF19, offset: 0x5CF19, size: 0x8, addend: 0x0, symName: __ZNSt3__19allocatorIZN8Geometry28calculate_bend_twist_springsEiE10SpringPairE8allocateB8ue170006Em, symObjAddr: 0x1E268, symBinAddr: 0x100022484, symSize: 0x5C }
  - { offsetInCU: 0x5CF4D, offset: 0x5CF4D, size: 0x8, addend: 0x0, symName: __ZNSt3__117__compressed_pairIPZN8Geometry28calculate_bend_twist_springsEiE10SpringPairRNS_9allocatorIS2_EEE6secondB8ue170006Ev, symObjAddr: 0x1E2C4, symBinAddr: 0x1000224E0, symSize: 0x28 }
  - { offsetInCU: 0x5CF73, offset: 0x5CF73, size: 0x8, addend: 0x0, symName: __ZNSt3__122__compressed_pair_elemIRNS_9allocatorIZN8Geometry28calculate_bend_twist_springsEiE10SpringPairEELi1ELb0EE5__getB8ue170006Ev, symObjAddr: 0x1E2EC, symBinAddr: 0x100022508, symSize: 0x18 }
  - { offsetInCU: 0x5CF99, offset: 0x5CF99, size: 0x8, addend: 0x0, symName: __ZNSt3__117__compressed_pairIPZN8Geometry28calculate_bend_twist_springsEiE10SpringPairRNS_9allocatorIS2_EEE5firstB8ue170006Ev, symObjAddr: 0x1E304, symBinAddr: 0x100022520, symSize: 0x24 }
  - { offsetInCU: 0x5CFBF, offset: 0x5CFBF, size: 0x8, addend: 0x0, symName: __ZNSt3__116reverse_iteratorIPZN8Geometry28calculate_bend_twist_springsEiE10SpringPairEC1B8ue170006ES3_, symObjAddr: 0x1E454, symBinAddr: 0x100022670, symSize: 0x34 }
  - { offsetInCU: 0x5CFF7, offset: 0x5CFF7, size: 0x8, addend: 0x0, symName: __ZNKSt3__116reverse_iteratorIPZN8Geometry28calculate_bend_twist_springsEiE10SpringPairE4baseB8ue170006Ev, symObjAddr: 0x1E488, symBinAddr: 0x1000226A4, symSize: 0x18 }
  - { offsetInCU: 0x5D01D, offset: 0x5D01D, size: 0x8, addend: 0x0, symName: __ZNKSt3__16vectorIZN8Geometry28calculate_bend_twist_springsEiE10SpringPairNS_9allocatorIS2_EEE14__annotate_newB8ue170006Em, symObjAddr: 0x1E4DC, symBinAddr: 0x1000226F8, symSize: 0xC8 }
  - { offsetInCU: 0x5D052, offset: 0x5D052, size: 0x8, addend: 0x0, symName: __ZNSt3__129_AllocatorDestroyRangeReverseINS_9allocatorIZN8Geometry28calculate_bend_twist_springsEiE10SpringPairEENS_16reverse_iteratorIPS3_EEEC1B8ue170006ERS4_RS7_SA_, symObjAddr: 0x1E5F0, symBinAddr: 0x10002280C, symSize: 0x44 }
  - { offsetInCU: 0x5D0A9, offset: 0x5D0A9, size: 0x8, addend: 0x0, symName: __ZNKSt3__116reverse_iteratorIPZN8Geometry28calculate_bend_twist_springsEiE10SpringPairEdeB8ue170006Ev, symObjAddr: 0x1E6A0, symBinAddr: 0x1000228BC, symSize: 0x28 }
  - { offsetInCU: 0x5D0DD, offset: 0x5D0DD, size: 0x8, addend: 0x0, symName: __ZNSt3__116reverse_iteratorIPZN8Geometry28calculate_bend_twist_springsEiE10SpringPairEppB8ue170006Ev, symObjAddr: 0x1E6C8, symBinAddr: 0x1000228E4, symSize: 0x20 }
  - { offsetInCU: 0x5D103, offset: 0x5D103, size: 0x8, addend: 0x0, symName: __ZNSt3__128__exception_guard_exceptionsINS_29_AllocatorDestroyRangeReverseINS_9allocatorIZN8Geometry28calculate_bend_twist_springsEiE10SpringPairEENS_16reverse_iteratorIPS4_EEEEE10__completeB8ue170006Ev, symObjAddr: 0x1E6E8, symBinAddr: 0x100022904, symSize: 0x1C }
  - { offsetInCU: 0x5D129, offset: 0x5D129, size: 0x8, addend: 0x0, symName: __ZNSt3__128__exception_guard_exceptionsINS_29_AllocatorDestroyRangeReverseINS_9allocatorIZN8Geometry28calculate_bend_twist_springsEiE10SpringPairEENS_16reverse_iteratorIPS4_EEEEED1B8ue170006Ev, symObjAddr: 0x1E704, symBinAddr: 0x100022920, symSize: 0x2C }
  - { offsetInCU: 0x5D153, offset: 0x5D153, size: 0x8, addend: 0x0, symName: __ZNSt3__128__exception_guard_exceptionsINS_29_AllocatorDestroyRangeReverseINS_9allocatorIZN8Geometry28calculate_bend_twist_springsEiE10SpringPairEENS_16reverse_iteratorIPS4_EEEEEC1B8ue170006ES9_, symObjAddr: 0x1E730, symBinAddr: 0x10002294C, symSize: 0x34 }
  - { offsetInCU: 0x5D18C, offset: 0x5D18C, size: 0x8, addend: 0x0, symName: __ZNSt3__128__exception_guard_exceptionsINS_29_AllocatorDestroyRangeReverseINS_9allocatorIZN8Geometry28calculate_bend_twist_springsEiE10SpringPairEENS_16reverse_iteratorIPS4_EEEEEC2B8ue170006ES9_, symObjAddr: 0x1E764, symBinAddr: 0x100022980, symSize: 0x30 }
  - { offsetInCU: 0x5D1C5, offset: 0x5D1C5, size: 0x8, addend: 0x0, symName: __ZNSt3__129_AllocatorDestroyRangeReverseINS_9allocatorIZN8Geometry28calculate_bend_twist_springsEiE10SpringPairEENS_16reverse_iteratorIPS3_EEEC2B8ue170006ERS4_RS7_SA_, symObjAddr: 0x1E794, symBinAddr: 0x1000229B0, symSize: 0x38 }
  - { offsetInCU: 0x5D221, offset: 0x5D221, size: 0x8, addend: 0x0, symName: __ZNSt3__119__to_address_helperINS_16reverse_iteratorIPZN8Geometry28calculate_bend_twist_springsEiE10SpringPairEEvE6__callB8ue170006ERKS5_, symObjAddr: 0x1E7CC, symBinAddr: 0x1000229E8, symSize: 0x38 }
  - { offsetInCU: 0x5D244, offset: 0x5D244, size: 0x8, addend: 0x0, symName: __ZNKSt3__116reverse_iteratorIPZN8Geometry28calculate_bend_twist_springsEiE10SpringPairEptB8ue170006Ev, symObjAddr: 0x1E804, symBinAddr: 0x100022A20, symSize: 0x24 }
  - { offsetInCU: 0x5D26A, offset: 0x5D26A, size: 0x8, addend: 0x0, symName: __ZNSt3__128__exception_guard_exceptionsINS_29_AllocatorDestroyRangeReverseINS_9allocatorIZN8Geometry28calculate_bend_twist_springsEiE10SpringPairEENS_16reverse_iteratorIPS4_EEEEED2B8ue170006Ev, symObjAddr: 0x1E828, symBinAddr: 0x100022A44, symSize: 0x50 }
  - { offsetInCU: 0x5D294, offset: 0x5D294, size: 0x8, addend: 0x0, symName: __ZNKSt3__129_AllocatorDestroyRangeReverseINS_9allocatorIZN8Geometry28calculate_bend_twist_springsEiE10SpringPairEENS_16reverse_iteratorIPS3_EEEclB8ue170006Ev, symObjAddr: 0x1E878, symBinAddr: 0x100022A94, symSize: 0xB4 }
  - { offsetInCU: 0x5D2BB, offset: 0x5D2BB, size: 0x8, addend: 0x0, symName: __ZNSt3__116reverse_iteratorINS0_IPZN8Geometry28calculate_bend_twist_springsEiE10SpringPairEEEC1B8ue170006ES4_, symObjAddr: 0x1E99C, symBinAddr: 0x100022BB8, symSize: 0x3C }
  - { offsetInCU: 0x5D2F3, offset: 0x5D2F3, size: 0x8, addend: 0x0, symName: __ZNSt3__116reverse_iteratorINS0_IPZN8Geometry28calculate_bend_twist_springsEiE10SpringPairEEEppB8ue170006Ev, symObjAddr: 0x1EA5C, symBinAddr: 0x100022C78, symSize: 0x30 }
  - { offsetInCU: 0x5D319, offset: 0x5D319, size: 0x8, addend: 0x0, symName: __ZNKSt3__116reverse_iteratorINS0_IPZN8Geometry28calculate_bend_twist_springsEiE10SpringPairEEE4baseB8ue170006Ev, symObjAddr: 0x1EA8C, symBinAddr: 0x100022CA8, symSize: 0x24 }
  - { offsetInCU: 0x5D344, offset: 0x5D344, size: 0x8, addend: 0x0, symName: __ZNSt3__119__to_address_helperINS_16reverse_iteratorINS1_IPZN8Geometry28calculate_bend_twist_springsEiE10SpringPairEEEEvE6__callB8ue170006ERKS6_, symObjAddr: 0x1EAB0, symBinAddr: 0x100022CCC, symSize: 0x38 }
  - { offsetInCU: 0x5D367, offset: 0x5D367, size: 0x8, addend: 0x0, symName: __ZNKSt3__116reverse_iteratorINS0_IPZN8Geometry28calculate_bend_twist_springsEiE10SpringPairEEEptB8ue170006Ev, symObjAddr: 0x1EAE8, symBinAddr: 0x100022D04, symSize: 0x24 }
  - { offsetInCU: 0x5D38D, offset: 0x5D38D, size: 0x8, addend: 0x0, symName: __ZNKSt3__116reverse_iteratorINS0_IPZN8Geometry28calculate_bend_twist_springsEiE10SpringPairEEEdeB8ue170006Ev, symObjAddr: 0x1EB0C, symBinAddr: 0x100022D28, symSize: 0x34 }
  - { offsetInCU: 0x5D3C1, offset: 0x5D3C1, size: 0x8, addend: 0x0, symName: __ZNSt3__116reverse_iteratorIPZN8Geometry28calculate_bend_twist_springsEiE10SpringPairEmmB8ue170006Ev, symObjAddr: 0x1EB40, symBinAddr: 0x100022D5C, symSize: 0x20 }
  - { offsetInCU: 0x5D3E7, offset: 0x5D3E7, size: 0x8, addend: 0x0, symName: __ZNSt3__116reverse_iteratorINS0_IPZN8Geometry28calculate_bend_twist_springsEiE10SpringPairEEEC2B8ue170006ES4_, symObjAddr: 0x1EB60, symBinAddr: 0x100022D7C, symSize: 0x2C }
  - { offsetInCU: 0x5D41F, offset: 0x5D41F, size: 0x8, addend: 0x0, symName: __ZNSt3__116reverse_iteratorIPZN8Geometry28calculate_bend_twist_springsEiE10SpringPairEC2B8ue170006ES3_, symObjAddr: 0x1EB8C, symBinAddr: 0x100022DA8, symSize: 0x28 }
  - { offsetInCU: 0x5D457, offset: 0x5D457, size: 0x8, addend: 0x0, symName: __ZNSt3__114__split_bufferIZN8Geometry28calculate_bend_twist_springsEiE10SpringPairRNS_9allocatorIS2_EEED2Ev, symObjAddr: 0x1EBB4, symBinAddr: 0x100022DD0, symSize: 0x8C }
  - { offsetInCU: 0x5D483, offset: 0x5D483, size: 0x8, addend: 0x0, symName: __ZNSt3__114__split_bufferIZN8Geometry28calculate_bend_twist_springsEiE10SpringPairRNS_9allocatorIS2_EEE5clearB8ue170006Ev, symObjAddr: 0x1EC40, symBinAddr: 0x100022E5C, symSize: 0x28 }
  - { offsetInCU: 0x5D4A9, offset: 0x5D4A9, size: 0x8, addend: 0x0, symName: __ZNKSt3__114__split_bufferIZN8Geometry28calculate_bend_twist_springsEiE10SpringPairRNS_9allocatorIS2_EEE8capacityB8ue170006Ev, symObjAddr: 0x1EC68, symBinAddr: 0x100022E84, symSize: 0x40 }
  - { offsetInCU: 0x5D4CF, offset: 0x5D4CF, size: 0x8, addend: 0x0, symName: __ZNSt3__114__split_bufferIZN8Geometry28calculate_bend_twist_springsEiE10SpringPairRNS_9allocatorIS2_EEE17__destruct_at_endB8ue170006EPS2_, symObjAddr: 0x1ECA8, symBinAddr: 0x100022EC4, symSize: 0x2C }
  - { offsetInCU: 0x5D503, offset: 0x5D503, size: 0x8, addend: 0x0, symName: __ZNSt3__114__split_bufferIZN8Geometry28calculate_bend_twist_springsEiE10SpringPairRNS_9allocatorIS2_EEE17__destruct_at_endB8ue170006EPS2_NS_17integral_constantIbLb0EEE, symObjAddr: 0x1ECD4, symBinAddr: 0x100022EF0, symSize: 0x80 }
  - { offsetInCU: 0x5D544, offset: 0x5D544, size: 0x8, addend: 0x0, symName: __ZNKSt3__114__split_bufferIZN8Geometry28calculate_bend_twist_springsEiE10SpringPairRNS_9allocatorIS2_EEE9__end_capB8ue170006Ev, symObjAddr: 0x1ED54, symBinAddr: 0x100022F70, symSize: 0x28 }
  - { offsetInCU: 0x5D56A, offset: 0x5D56A, size: 0x8, addend: 0x0, symName: __ZNKSt3__117__compressed_pairIPZN8Geometry28calculate_bend_twist_springsEiE10SpringPairRNS_9allocatorIS2_EEE5firstB8ue170006Ev, symObjAddr: 0x1ED7C, symBinAddr: 0x100022F98, symSize: 0x24 }
  - { offsetInCU: 0x5D590, offset: 0x5D590, size: 0x8, addend: 0x0, symName: __ZNSt3__16vectorIZN8Geometry28calculate_bend_twist_springsEiE10SpringPairNS_9allocatorIS2_EEE11__make_iterB8ue170006EPS2_, symObjAddr: 0x1EDA0, symBinAddr: 0x100022FBC, symSize: 0x30 }
  - { offsetInCU: 0x5D5C5, offset: 0x5D5C5, size: 0x8, addend: 0x0, symName: __ZNSt3__111__wrap_iterIPZN8Geometry28calculate_bend_twist_springsEiE10SpringPairEC1B8ue170006ES3_, symObjAddr: 0x1EDD0, symBinAddr: 0x100022FEC, symSize: 0x34 }
  - { offsetInCU: 0x5D5FD, offset: 0x5D5FD, size: 0x8, addend: 0x0, symName: __ZNSt3__111__wrap_iterIPZN8Geometry28calculate_bend_twist_springsEiE10SpringPairEC2B8ue170006ES3_, symObjAddr: 0x1EE04, symBinAddr: 0x100023020, symSize: 0x20 }
  - { offsetInCU: 0x5D635, offset: 0x5D635, size: 0x8, addend: 0x0, symName: __ZNSt3__16vectorINS_5arrayIiLm5EEENS_9allocatorIS2_EEE9__end_capB8ue170006Ev, symObjAddr: 0x1EE24, symBinAddr: 0x100023040, symSize: 0x28 }
  - { offsetInCU: 0x5D661, offset: 0x5D661, size: 0x8, addend: 0x0, symName: __ZNSt3__16vectorINS_5arrayIiLm5EEENS_9allocatorIS2_EEE22__construct_one_at_endB8ue170006IJS2_EEEvDpOT_, symObjAddr: 0x1EE4C, symBinAddr: 0x100023068, symSize: 0x90 }
  - { offsetInCU: 0x5D6B0, offset: 0x5D6B0, size: 0x8, addend: 0x0, symName: __ZNSt3__16vectorINS_5arrayIiLm5EEENS_9allocatorIS2_EEE21__push_back_slow_pathIS2_EEvOT_, symObjAddr: 0x1EEDC, symBinAddr: 0x1000230F8, symSize: 0xD8 }
  - { offsetInCU: 0x5D70E, offset: 0x5D70E, size: 0x8, addend: 0x0, symName: __ZNSt3__117__compressed_pairIPNS_5arrayIiLm5EEENS_9allocatorIS2_EEE5firstB8ue170006Ev, symObjAddr: 0x1EFB4, symBinAddr: 0x1000231D0, symSize: 0x24 }
  - { offsetInCU: 0x5D734, offset: 0x5D734, size: 0x8, addend: 0x0, symName: __ZNSt3__122__compressed_pair_elemIPNS_5arrayIiLm5EEELi0ELb0EE5__getB8ue170006Ev, symObjAddr: 0x1EFD8, symBinAddr: 0x1000231F4, symSize: 0x14 }
  - { offsetInCU: 0x5D773, offset: 0x5D773, size: 0x8, addend: 0x0, symName: __ZNSt3__16vectorINS_5arrayIiLm5EEENS_9allocatorIS2_EEE21_ConstructTransactionC1B8ue170006ERS5_m, symObjAddr: 0x1EFEC, symBinAddr: 0x100023208, symSize: 0x3C }
  - { offsetInCU: 0x5D7BB, offset: 0x5D7BB, size: 0x8, addend: 0x0, symName: __ZNSt3__116allocator_traitsINS_9allocatorINS_5arrayIiLm5EEEEEE9constructB8ue170006IS3_JS3_EvEEvRS4_PT_DpOT0_, symObjAddr: 0x1F028, symBinAddr: 0x100023244, symSize: 0x34 }
  - { offsetInCU: 0x5D812, offset: 0x5D812, size: 0x8, addend: 0x0, symName: __ZNSt3__16vectorINS_5arrayIiLm5EEENS_9allocatorIS2_EEE21_ConstructTransactionD1B8ue170006Ev, symObjAddr: 0x1F05C, symBinAddr: 0x100023278, symSize: 0x2C }
  - { offsetInCU: 0x5D83C, offset: 0x5D83C, size: 0x8, addend: 0x0, symName: __ZNSt3__16vectorINS_5arrayIiLm5EEENS_9allocatorIS2_EEE21_ConstructTransactionC2B8ue170006ERS5_m, symObjAddr: 0x1F088, symBinAddr: 0x1000232A4, symSize: 0x4C }
  - { offsetInCU: 0x5D884, offset: 0x5D884, size: 0x8, addend: 0x0, symName: __ZNSt3__19allocatorINS_5arrayIiLm5EEEE9constructB8ue170006IS2_JS2_EEEvPT_DpOT0_, symObjAddr: 0x1F0D4, symBinAddr: 0x1000232F0, symSize: 0x30 }
  - { offsetInCU: 0x5D8DA, offset: 0x5D8DA, size: 0x8, addend: 0x0, symName: __ZNSt3__16vectorINS_5arrayIiLm5EEENS_9allocatorIS2_EEE21_ConstructTransactionD2B8ue170006Ev, symObjAddr: 0x1F104, symBinAddr: 0x100023320, symSize: 0x20 }
  - { offsetInCU: 0x5D904, offset: 0x5D904, size: 0x8, addend: 0x0, symName: __ZNKSt3__16vectorINS_5arrayIiLm5EEENS_9allocatorIS2_EEE11__recommendB8ue170006Em, symObjAddr: 0x1F124, symBinAddr: 0x100023340, symSize: 0xB4 }
  - { offsetInCU: 0x5D959, offset: 0x5D959, size: 0x8, addend: 0x0, symName: __ZNSt3__114__split_bufferINS_5arrayIiLm5EEERNS_9allocatorIS2_EEEC1EmmS5_, symObjAddr: 0x1F1D8, symBinAddr: 0x1000233F4, symSize: 0x44 }
  - { offsetInCU: 0x5D9AF, offset: 0x5D9AF, size: 0x8, addend: 0x0, symName: __ZNSt3__114__split_bufferINS_5arrayIiLm5EEERNS_9allocatorIS2_EEED1Ev, symObjAddr: 0x1F32C, symBinAddr: 0x100023548, symSize: 0x2C }
  - { offsetInCU: 0x5D9DB, offset: 0x5D9DB, size: 0x8, addend: 0x0, symName: __ZNKSt3__16vectorINS_5arrayIiLm5EEENS_9allocatorIS2_EEE8max_sizeEv, symObjAddr: 0x1F358, symBinAddr: 0x100023574, symSize: 0x60 }
  - { offsetInCU: 0x5DA03, offset: 0x5DA03, size: 0x8, addend: 0x0, symName: __ZNKSt3__16vectorINS_5arrayIiLm5EEENS_9allocatorIS2_EEE20__throw_length_errorB8ue170006Ev, symObjAddr: 0x1F3B8, symBinAddr: 0x1000235D4, symSize: 0x1C }
  - { offsetInCU: 0x5DA33, offset: 0x5DA33, size: 0x8, addend: 0x0, symName: __ZNSt3__116allocator_traitsINS_9allocatorINS_5arrayIiLm5EEEEEE8max_sizeB8ue170006IS4_vEEmRKS4_, symObjAddr: 0x1F3D4, symBinAddr: 0x1000235F0, symSize: 0x24 }
  - { offsetInCU: 0x5DA61, offset: 0x5DA61, size: 0x8, addend: 0x0, symName: __ZNKSt3__16vectorINS_5arrayIiLm5EEENS_9allocatorIS2_EEE7__allocB8ue170006Ev, symObjAddr: 0x1F3F8, symBinAddr: 0x100023614, symSize: 0x28 }
  - { offsetInCU: 0x5DA87, offset: 0x5DA87, size: 0x8, addend: 0x0, symName: __ZNKSt3__19allocatorINS_5arrayIiLm5EEEE8max_sizeB8ue170006Ev, symObjAddr: 0x1F420, symBinAddr: 0x10002363C, symSize: 0x18 }
  - { offsetInCU: 0x5DAAD, offset: 0x5DAAD, size: 0x8, addend: 0x0, symName: __ZNKSt3__117__compressed_pairIPNS_5arrayIiLm5EEENS_9allocatorIS2_EEE6secondB8ue170006Ev, symObjAddr: 0x1F438, symBinAddr: 0x100023654, symSize: 0x24 }
  - { offsetInCU: 0x5DAD3, offset: 0x5DAD3, size: 0x8, addend: 0x0, symName: __ZNKSt3__122__compressed_pair_elemINS_9allocatorINS_5arrayIiLm5EEEEELi1ELb1EE5__getB8ue170006Ev, symObjAddr: 0x1F45C, symBinAddr: 0x100023678, symSize: 0x14 }
  - { offsetInCU: 0x5DAF9, offset: 0x5DAF9, size: 0x8, addend: 0x0, symName: __ZNSt3__114__split_bufferINS_5arrayIiLm5EEERNS_9allocatorIS2_EEEC2EmmS5_, symObjAddr: 0x1F470, symBinAddr: 0x10002368C, symSize: 0xE0 }
  - { offsetInCU: 0x5DB6C, offset: 0x5DB6C, size: 0x8, addend: 0x0, symName: __ZNSt3__117__compressed_pairIPNS_5arrayIiLm5EEERNS_9allocatorIS2_EEEC1B8ue170006IDnS6_EEOT_OT0_, symObjAddr: 0x1F550, symBinAddr: 0x10002376C, symSize: 0x3C }
  - { offsetInCU: 0x5DBC4, offset: 0x5DBC4, size: 0x8, addend: 0x0, symName: __ZNSt3__114__split_bufferINS_5arrayIiLm5EEERNS_9allocatorIS2_EEE7__allocB8ue170006Ev, symObjAddr: 0x1F5CC, symBinAddr: 0x1000237E8, symSize: 0x28 }
  - { offsetInCU: 0x5DBEA, offset: 0x5DBEA, size: 0x8, addend: 0x0, symName: __ZNSt3__114__split_bufferINS_5arrayIiLm5EEERNS_9allocatorIS2_EEE9__end_capB8ue170006Ev, symObjAddr: 0x1F5F4, symBinAddr: 0x100023810, symSize: 0x28 }
  - { offsetInCU: 0x5DC10, offset: 0x5DC10, size: 0x8, addend: 0x0, symName: __ZNSt3__117__compressed_pairIPNS_5arrayIiLm5EEERNS_9allocatorIS2_EEEC2B8ue170006IDnS6_EEOT_OT0_, symObjAddr: 0x1F61C, symBinAddr: 0x100023838, symSize: 0x48 }
  - { offsetInCU: 0x5DC68, offset: 0x5DC68, size: 0x8, addend: 0x0, symName: __ZNSt3__122__compressed_pair_elemIRNS_9allocatorINS_5arrayIiLm5EEEEELi1ELb0EEC2B8ue170006IS5_vEEOT_, symObjAddr: 0x1F664, symBinAddr: 0x100023880, symSize: 0x20 }
  - { offsetInCU: 0x5DCAA, offset: 0x5DCAA, size: 0x8, addend: 0x0, symName: __ZNSt3__19allocatorINS_5arrayIiLm5EEEE8allocateB8ue170006Em, symObjAddr: 0x1F684, symBinAddr: 0x1000238A0, symSize: 0x5C }
  - { offsetInCU: 0x5DCDE, offset: 0x5DCDE, size: 0x8, addend: 0x0, symName: __ZNSt3__117__compressed_pairIPNS_5arrayIiLm5EEERNS_9allocatorIS2_EEE6secondB8ue170006Ev, symObjAddr: 0x1F6E0, symBinAddr: 0x1000238FC, symSize: 0x28 }
  - { offsetInCU: 0x5DD04, offset: 0x5DD04, size: 0x8, addend: 0x0, symName: __ZNSt3__122__compressed_pair_elemIRNS_9allocatorINS_5arrayIiLm5EEEEELi1ELb0EE5__getB8ue170006Ev, symObjAddr: 0x1F708, symBinAddr: 0x100023924, symSize: 0x18 }
  - { offsetInCU: 0x5DD2A, offset: 0x5DD2A, size: 0x8, addend: 0x0, symName: __ZNSt3__117__compressed_pairIPNS_5arrayIiLm5EEERNS_9allocatorIS2_EEE5firstB8ue170006Ev, symObjAddr: 0x1F720, symBinAddr: 0x10002393C, symSize: 0x24 }
  - { offsetInCU: 0x5DD50, offset: 0x5DD50, size: 0x8, addend: 0x0, symName: __ZNSt3__116reverse_iteratorIPNS_5arrayIiLm5EEEEC1B8ue170006ES3_, symObjAddr: 0x1F7BC, symBinAddr: 0x1000239D8, symSize: 0x34 }
  - { offsetInCU: 0x5DD88, offset: 0x5DD88, size: 0x8, addend: 0x0, symName: __ZNKSt3__116reverse_iteratorIPNS_5arrayIiLm5EEEE4baseB8ue170006Ev, symObjAddr: 0x1F7F0, symBinAddr: 0x100023A0C, symSize: 0x18 }
  - { offsetInCU: 0x5DDAE, offset: 0x5DDAE, size: 0x8, addend: 0x0, symName: __ZNKSt3__16vectorINS_5arrayIiLm5EEENS_9allocatorIS2_EEE14__annotate_newB8ue170006Em, symObjAddr: 0x1F844, symBinAddr: 0x100023A60, symSize: 0xC8 }
  - { offsetInCU: 0x5DDFD, offset: 0x5DDFD, size: 0x8, addend: 0x0, symName: __ZNKSt3__111__move_loopINS_17_ClassicAlgPolicyEEclB8ue170006INS_16reverse_iteratorIPNS_5arrayIiLm5EEEEES8_S8_EENS_4pairIT_T1_EESA_T0_SB_, symObjAddr: 0x1FBFC, symBinAddr: 0x100023E18, symSize: 0xA8 }
  - { offsetInCU: 0x5DE68, offset: 0x5DE68, size: 0x8, addend: 0x0, symName: __ZNSt3__18_IterOpsINS_17_ClassicAlgPolicyEE11__iter_moveB8ue170006IRNS_16reverse_iteratorIPNS_5arrayIiLm5EEEEEEENS_9enable_ifIXsr12is_referenceIDTdeclsr3stdE7declvalIRT_EEEEE5valueEDTclsr3stdE4movedeclsr3stdE7declvalISC_EEEEE4typeEOSB_, symObjAddr: 0x1FE38, symBinAddr: 0x100024054, symSize: 0x28 }
  - { offsetInCU: 0x5DE94, offset: 0x5DE94, size: 0x8, addend: 0x0, symName: __ZNKSt3__116reverse_iteratorIPNS_5arrayIiLm5EEEEdeB8ue170006Ev, symObjAddr: 0x1FE60, symBinAddr: 0x10002407C, symSize: 0x28 }
  - { offsetInCU: 0x5DEC8, offset: 0x5DEC8, size: 0x8, addend: 0x0, symName: __ZNSt3__116reverse_iteratorIPNS_5arrayIiLm5EEEEppB8ue170006Ev, symObjAddr: 0x1FE88, symBinAddr: 0x1000240A4, symSize: 0x20 }
  - { offsetInCU: 0x5DEEE, offset: 0x5DEEE, size: 0x8, addend: 0x0, symName: __ZNSt3__18_IterOpsINS_17_ClassicAlgPolicyEE25__validate_iter_referenceB8ue170006IRNS_16reverse_iteratorIPNS_5arrayIiLm5EEEEEEEvv, symObjAddr: 0x1FEA8, symBinAddr: 0x1000240C4, symSize: 0x4 }
  - { offsetInCU: 0x5DF0C, offset: 0x5DF0C, size: 0x8, addend: 0x0, symName: __ZNSt3__118__unwrap_iter_implINS_16reverse_iteratorIPNS_5arrayIiLm5EEEEELb0EE8__unwrapB8ue170006ES5_, symObjAddr: 0x1FEAC, symBinAddr: 0x1000240C8, symSize: 0x24 }
  - { offsetInCU: 0x5DF35, offset: 0x5DF35, size: 0x8, addend: 0x0, symName: __ZNSt3__14pairINS_16reverse_iteratorIPNS_5arrayIiLm5EEEEES5_EC1B8ue170006IS5_S5_LPv0EEEOT_OT0_, symObjAddr: 0x1FED0, symBinAddr: 0x1000240EC, symSize: 0x3C }
  - { offsetInCU: 0x5DF93, offset: 0x5DF93, size: 0x8, addend: 0x0, symName: __ZNSt3__14pairINS_16reverse_iteratorIPNS_5arrayIiLm5EEEEES5_EC2B8ue170006IS5_S5_LPv0EEEOT_OT0_, symObjAddr: 0x1FF0C, symBinAddr: 0x100024128, symSize: 0x34 }
  - { offsetInCU: 0x5DFF1, offset: 0x5DFF1, size: 0x8, addend: 0x0, symName: __ZNSt3__118__unwrap_iter_implINS_16reverse_iteratorIPNS_5arrayIiLm5EEEEELb0EE8__rewrapB8ue170006ES5_S5_, symObjAddr: 0x1FF40, symBinAddr: 0x10002415C, symSize: 0x2C }
  - { offsetInCU: 0x5E01F, offset: 0x5E01F, size: 0x8, addend: 0x0, symName: __ZNSt3__116reverse_iteratorIPNS_5arrayIiLm5EEEEC2B8ue170006ES3_, symObjAddr: 0x1FF6C, symBinAddr: 0x100024188, symSize: 0x28 }
  - { offsetInCU: 0x5E057, offset: 0x5E057, size: 0x8, addend: 0x0, symName: __ZNSt3__114__split_bufferINS_5arrayIiLm5EEERNS_9allocatorIS2_EEED2Ev, symObjAddr: 0x1FF94, symBinAddr: 0x1000241B0, symSize: 0x8C }
  - { offsetInCU: 0x5E083, offset: 0x5E083, size: 0x8, addend: 0x0, symName: __ZNSt3__114__split_bufferINS_5arrayIiLm5EEERNS_9allocatorIS2_EEE5clearB8ue170006Ev, symObjAddr: 0x20020, symBinAddr: 0x10002423C, symSize: 0x28 }
  - { offsetInCU: 0x5E0A9, offset: 0x5E0A9, size: 0x8, addend: 0x0, symName: __ZNKSt3__114__split_bufferINS_5arrayIiLm5EEERNS_9allocatorIS2_EEE8capacityB8ue170006Ev, symObjAddr: 0x20048, symBinAddr: 0x100024264, symSize: 0x40 }
  - { offsetInCU: 0x5E0CF, offset: 0x5E0CF, size: 0x8, addend: 0x0, symName: __ZNSt3__114__split_bufferINS_5arrayIiLm5EEERNS_9allocatorIS2_EEE17__destruct_at_endB8ue170006EPS2_, symObjAddr: 0x20088, symBinAddr: 0x1000242A4, symSize: 0x2C }
  - { offsetInCU: 0x5E103, offset: 0x5E103, size: 0x8, addend: 0x0, symName: __ZNSt3__114__split_bufferINS_5arrayIiLm5EEERNS_9allocatorIS2_EEE17__destruct_at_endB8ue170006EPS2_NS_17integral_constantIbLb0EEE, symObjAddr: 0x200B4, symBinAddr: 0x1000242D0, symSize: 0x80 }
  - { offsetInCU: 0x5E144, offset: 0x5E144, size: 0x8, addend: 0x0, symName: __ZNKSt3__114__split_bufferINS_5arrayIiLm5EEERNS_9allocatorIS2_EEE9__end_capB8ue170006Ev, symObjAddr: 0x20134, symBinAddr: 0x100024350, symSize: 0x28 }
  - { offsetInCU: 0x5E16A, offset: 0x5E16A, size: 0x8, addend: 0x0, symName: __ZNKSt3__117__compressed_pairIPNS_5arrayIiLm5EEERNS_9allocatorIS2_EEE5firstB8ue170006Ev, symObjAddr: 0x2015C, symBinAddr: 0x100024378, symSize: 0x24 }
  - { offsetInCU: 0x5E190, offset: 0x5E190, size: 0x8, addend: 0x0, symName: __ZNKSt3__16vectorIiNS_9allocatorIiEEE11__make_iterB8ue170006EPKi, symObjAddr: 0x20180, symBinAddr: 0x10002439C, symSize: 0x30 }
  - { offsetInCU: 0x5E1C5, offset: 0x5E1C5, size: 0x8, addend: 0x0, symName: __ZNSt3__111__wrap_iterIPKiEC1B8ue170006ES2_, symObjAddr: 0x201B0, symBinAddr: 0x1000243CC, symSize: 0x34 }
  - { offsetInCU: 0x5E1FD, offset: 0x5E1FD, size: 0x8, addend: 0x0, symName: __ZNSt3__111__wrap_iterIPKiEC2B8ue170006ES2_, symObjAddr: 0x201E4, symBinAddr: 0x100024400, symSize: 0x20 }
  - { offsetInCU: 0x5E235, offset: 0x5E235, size: 0x8, addend: 0x0, symName: __ZNSt3__16vectorINS_5arrayIiLm2EEENS_9allocatorIS2_EEEC2B8ue170006ESt16initializer_listIS2_E, symObjAddr: 0x20204, symBinAddr: 0x100024420, symSize: 0x120 }
  - { offsetInCU: 0x5E285, offset: 0x5E285, size: 0x8, addend: 0x0, symName: __ZNKSt16initializer_listINSt3__15arrayIiLm2EEEE4sizeB8ue170006Ev, symObjAddr: 0x20324, symBinAddr: 0x100024540, symSize: 0x18 }
  - { offsetInCU: 0x5E2AB, offset: 0x5E2AB, size: 0x8, addend: 0x0, symName: __ZNSt3__16vectorINS_5arrayIiLm2EEENS_9allocatorIS2_EEE18__construct_at_endIPKS2_S8_EEvT_T0_m, symObjAddr: 0x2033C, symBinAddr: 0x100024558, symSize: 0x8C }
  - { offsetInCU: 0x5E321, offset: 0x5E321, size: 0x8, addend: 0x0, symName: __ZNKSt16initializer_listINSt3__15arrayIiLm2EEEE5beginB8ue170006Ev, symObjAddr: 0x203C8, symBinAddr: 0x1000245E4, symSize: 0x18 }
  - { offsetInCU: 0x5E347, offset: 0x5E347, size: 0x8, addend: 0x0, symName: __ZNKSt16initializer_listINSt3__15arrayIiLm2EEEE3endB8ue170006Ev, symObjAddr: 0x203E0, symBinAddr: 0x1000245FC, symSize: 0x20 }
  - { offsetInCU: 0x5E38D, offset: 0x5E38D, size: 0x8, addend: 0x0, symName: __ZNSt3__14pairIPKNS_5arrayIiLm2EEES4_EC1B8ue170006IS4_S4_LPv0EEEOT_OT0_, symObjAddr: 0x20574, symBinAddr: 0x100024790, symSize: 0x3C }
  - { offsetInCU: 0x5E3EB, offset: 0x5E3EB, size: 0x8, addend: 0x0, symName: __ZNSt3__14pairIPKNS_5arrayIiLm2EEES4_EC2B8ue170006IS4_S4_LPv0EEEOT_OT0_, symObjAddr: 0x205B0, symBinAddr: 0x1000247CC, symSize: 0x34 }
  - { offsetInCU: 0x5E449, offset: 0x5E449, size: 0x8, addend: 0x0, symName: __ZNSt3__118__unwrap_iter_implIPKNS_5arrayIiLm2EEELb1EE8__unwrapB8ue170006ES4_, symObjAddr: 0x205E4, symBinAddr: 0x100024800, symSize: 0x24 }
  - { offsetInCU: 0x5E486, offset: 0x5E486, size: 0x8, addend: 0x0, symName: __ZNKSt3__114__copy_trivialclB8ue170006IKNS_5arrayIiLm2EEES3_Li0EEENS_4pairIPT_PT0_EES7_S7_S9_, symObjAddr: 0x20798, symBinAddr: 0x1000249B4, symSize: 0x48 }
  - { offsetInCU: 0x5E4F3, offset: 0x5E4F3, size: 0x8, addend: 0x0, symName: __ZNSt3__14pairIPKNS_5arrayIiLm2EEEPS2_EC1B8ue170006IRS4_S5_LPv0EEEOT_OT0_, symObjAddr: 0x20960, symBinAddr: 0x100024B7C, symSize: 0x3C }
  - { offsetInCU: 0x5E551, offset: 0x5E551, size: 0x8, addend: 0x0, symName: __ZNSt3__14pairIPKNS_5arrayIiLm2EEEPS2_EC2B8ue170006IRS4_S5_LPv0EEEOT_OT0_, symObjAddr: 0x2099C, symBinAddr: 0x100024BB8, symSize: 0x34 }
  - { offsetInCU: 0x5E5AF, offset: 0x5E5AF, size: 0x8, addend: 0x0, symName: __ZNSt3__14pairIPKNS_5arrayIiLm2EEEPS2_EC1B8ue170006IS4_S5_LPv0EEEOT_OT0_, symObjAddr: 0x209D0, symBinAddr: 0x100024BEC, symSize: 0x3C }
  - { offsetInCU: 0x5E60D, offset: 0x5E60D, size: 0x8, addend: 0x0, symName: __ZNSt3__14pairIPKNS_5arrayIiLm2EEEPS2_EC2B8ue170006IS4_S5_LPv0EEEOT_OT0_, symObjAddr: 0x20A0C, symBinAddr: 0x100024C28, symSize: 0x34 }
  - { offsetInCU: 0x5E66B, offset: 0x5E66B, size: 0x8, addend: 0x0, symName: __ZNSt3__118__unwrap_iter_implIPKNS_5arrayIiLm2EEELb1EE8__rewrapB8ue170006ES4_S4_, symObjAddr: 0x20A7C, symBinAddr: 0x100024C98, symSize: 0x50 }
  - { offsetInCU: 0x5E69C, offset: 0x5E69C, size: 0x8, addend: 0x0, symName: __ZNSt3__14__fs10filesystem4pathC2B8ue170006INS_12basic_stringIcNS_11char_traitsIcEENS_9allocatorIcEEEEvEERKT_NS2_6formatE, symObjAddr: 0x20ACC, symBinAddr: 0x100024CE8, symSize: 0x68 }
  - { offsetInCU: 0x5E6EF, offset: 0x5E6EF, size: 0x8, addend: 0x0, symName: __ZNSt3__14__fs10filesystem8_PathCVTIcE15__append_sourceB8ue170006INS_12basic_stringIcNS_11char_traitsIcEENS_9allocatorIcEEEEEEvRSA_RKT_, symObjAddr: 0x20B34, symBinAddr: 0x100024D50, symSize: 0x4C }
  - { offsetInCU: 0x5E72B, offset: 0x5E72B, size: 0x8, addend: 0x0, symName: __ZNSt3__14__fs10filesystem8_PathCVTIcE14__append_rangeB8ue170006IPKcEENS_9enable_ifIXsr31__has_forward_iterator_categoryIT_EE5valueEvE4typeERNS_12basic_stringIcNS_11char_traitsIcEENS_9allocatorIcEEEES8_S8_, symObjAddr: 0x20B80, symBinAddr: 0x100024D9C, symSize: 0x34 }
  - { offsetInCU: 0x5E780, offset: 0x5E780, size: 0x8, addend: 0x0, symName: __ZNSt3__14__fs10filesystem20__is_pathable_stringINS_12basic_stringIcNS_11char_traitsIcEENS_9allocatorIcEEEEvE13__range_beginB8ue170006ERKS8_, symObjAddr: 0x20BB4, symBinAddr: 0x100024DD0, symSize: 0x24 }
  - { offsetInCU: 0x5E7A3, offset: 0x5E7A3, size: 0x8, addend: 0x0, symName: __ZNSt3__14__fs10filesystem20__is_pathable_stringINS_12basic_stringIcNS_11char_traitsIcEENS_9allocatorIcEEEEvE11__range_endB8ue170006ERKS8_, symObjAddr: 0x20BD8, symBinAddr: 0x100024DF4, symSize: 0x3C }
  - { offsetInCU: 0x5E7C6, offset: 0x5E7C6, size: 0x8, addend: 0x0, symName: __ZNSt3__112basic_stringIcNS_11char_traitsIcEENS_9allocatorIcEEE6appendB8ue170006IPKcLi0EEERS5_T_SA_, symObjAddr: 0x20C14, symBinAddr: 0x100024E30, symSize: 0x1E4 }
  - { offsetInCU: 0x5E87A, offset: 0x5E87A, size: 0x8, addend: 0x0, symName: __ZNKSt3__112basic_stringIcNS_11char_traitsIcEENS_9allocatorIcEEE8capacityB8ue170006Ev, symObjAddr: 0x20DF8, symBinAddr: 0x100025014, symSize: 0x54 }
  - { offsetInCU: 0x5E8A0, offset: 0x5E8A0, size: 0x8, addend: 0x0, symName: __ZNKSt3__112basic_stringIcNS_11char_traitsIcEENS_9allocatorIcEEE15__addr_in_rangeB8ue170006IcEEbRKT_, symObjAddr: 0x20E78, symBinAddr: 0x100025094, symSize: 0x6C }
  - { offsetInCU: 0x5E8DE, offset: 0x5E8DE, size: 0x8, addend: 0x0, symName: __ZNSt3__112basic_stringIcNS_11char_traitsIcEENS_9allocatorIcEEE25__grow_by_without_replaceB8ue170006Emmmmmm, symObjAddr: 0x20EE4, symBinAddr: 0x100025100, symSize: 0x74 }
  - { offsetInCU: 0x5E960, offset: 0x5E960, size: 0x8, addend: 0x0, symName: __ZNSt3__111char_traitsIcE6assignB8ue170006ERcRKc, symObjAddr: 0x20F58, symBinAddr: 0x100025174, symSize: 0x24 }
  - { offsetInCU: 0x5E991, offset: 0x5E991, size: 0x8, addend: 0x0, symName: __ZNSt3__112basic_stringIcNS_11char_traitsIcEENS_9allocatorIcEEE10__set_sizeB8ue170006Em, symObjAddr: 0x20F7C, symBinAddr: 0x100025198, symSize: 0x54 }
  - { offsetInCU: 0x5E9C6, offset: 0x5E9C6, size: 0x8, addend: 0x0, symName: __ZNSt3__112basic_stringIcNS_11char_traitsIcEENS_9allocatorIcEEE7__allocB8ue170006Ev, symObjAddr: 0x20FD0, symBinAddr: 0x1000251EC, symSize: 0x24 }
  - { offsetInCU: 0x5E9EC, offset: 0x5E9EC, size: 0x8, addend: 0x0, symName: __ZNSt3__112basic_stringIcNS_11char_traitsIcEENS_9allocatorIcEEEC1B8ue170006IPKcLi0EEET_S9_RKS4_, symObjAddr: 0x20FF4, symBinAddr: 0x100025210, symSize: 0x44 }
  - { offsetInCU: 0x5EA52, offset: 0x5EA52, size: 0x8, addend: 0x0, symName: __ZNKSt3__112basic_stringIcNS_11char_traitsIcEENS_9allocatorIcEEE14__get_long_capB8ue170006Ev, symObjAddr: 0x21038, symBinAddr: 0x100025254, symSize: 0x30 }
  - { offsetInCU: 0x5EA82, offset: 0x5EA82, size: 0x8, addend: 0x0, symName: __ZNKSt3__16__lessIvvEclB8ue170006IPKcS4_EEbRKT_RKT0_, symObjAddr: 0x210F0, symBinAddr: 0x10002530C, symSize: 0x34 }
  - { offsetInCU: 0x5EAD6, offset: 0x5EAD6, size: 0x8, addend: 0x0, symName: __ZNSt3__112basic_stringIcNS_11char_traitsIcEENS_9allocatorIcEEE15__set_long_sizeB8ue170006Em, symObjAddr: 0x21124, symBinAddr: 0x100025340, symSize: 0x38 }
  - { offsetInCU: 0x5EB0B, offset: 0x5EB0B, size: 0x8, addend: 0x0, symName: __ZNSt3__112basic_stringIcNS_11char_traitsIcEENS_9allocatorIcEEE16__set_short_sizeB8ue170006Em, symObjAddr: 0x2115C, symBinAddr: 0x100025378, symSize: 0x78 }
  - { offsetInCU: 0x5EB40, offset: 0x5EB40, size: 0x8, addend: 0x0, symName: __ZNSt3__117__compressed_pairINS_12basic_stringIcNS_11char_traitsIcEENS_9allocatorIcEEE5__repES5_E6secondB8ue170006Ev, symObjAddr: 0x211D4, symBinAddr: 0x1000253F0, symSize: 0x24 }
  - { offsetInCU: 0x5EB66, offset: 0x5EB66, size: 0x8, addend: 0x0, symName: __ZNSt3__122__compressed_pair_elemINS_9allocatorIcEELi1ELb1EE5__getB8ue170006Ev, symObjAddr: 0x211F8, symBinAddr: 0x100025414, symSize: 0x14 }
  - { offsetInCU: 0x5EB8C, offset: 0x5EB8C, size: 0x8, addend: 0x0, symName: __ZNSt3__112basic_stringIcNS_11char_traitsIcEENS_9allocatorIcEEEC2B8ue170006IPKcLi0EEET_S9_RKS4_, symObjAddr: 0x2120C, symBinAddr: 0x100025428, symSize: 0x50 }
  - { offsetInCU: 0x5EBF2, offset: 0x5EBF2, size: 0x8, addend: 0x0, symName: __ZNSt3__117__compressed_pairINS_12basic_stringIcNS_11char_traitsIcEENS_9allocatorIcEEE5__repES5_EC1B8ue170006INS_18__default_init_tagERKS5_EEOT_OT0_, symObjAddr: 0x2125C, symBinAddr: 0x100025478, symSize: 0x3C }
  - { offsetInCU: 0x5EC4A, offset: 0x5EC4A, size: 0x8, addend: 0x0, symName: __ZNSt3__112basic_stringIcNS_11char_traitsIcEENS_9allocatorIcEEE6__initIPKcLi0EEEvT_S9_, symObjAddr: 0x21298, symBinAddr: 0x1000254B4, symSize: 0x54 }
  - { offsetInCU: 0x5ECAE, offset: 0x5ECAE, size: 0x8, addend: 0x0, symName: __ZNSt3__117__compressed_pairINS_12basic_stringIcNS_11char_traitsIcEENS_9allocatorIcEEE5__repES5_EC2B8ue170006INS_18__default_init_tagERKS5_EEOT_OT0_, symObjAddr: 0x212EC, symBinAddr: 0x100025508, symSize: 0x40 }
  - { offsetInCU: 0x5ED06, offset: 0x5ED06, size: 0x8, addend: 0x0, symName: __ZNSt3__122__compressed_pair_elemINS_9allocatorIcEELi1ELb1EEC2B8ue170006IRKS2_vEEOT_, symObjAddr: 0x2132C, symBinAddr: 0x100025548, symSize: 0x18 }
  - { offsetInCU: 0x5ED48, offset: 0x5ED48, size: 0x8, addend: 0x0, symName: __ZNSt3__112basic_stringIcNS_11char_traitsIcEENS_9allocatorIcEEE16__init_with_sizeB8ue170006IPKcS8_EEvT_T0_m, symObjAddr: 0x21344, symBinAddr: 0x100025560, symSize: 0x144 }
  - { offsetInCU: 0x5EDDB, offset: 0x5EDDB, size: 0x8, addend: 0x0, symName: __ZNKSt3__112basic_stringIcNS_11char_traitsIcEENS_9allocatorIcEEE8max_sizeB8ue170006Ev, symObjAddr: 0x21488, symBinAddr: 0x1000256A4, symSize: 0xAC }
  - { offsetInCU: 0x5EE2D, offset: 0x5EE2D, size: 0x8, addend: 0x0, symName: __ZNKSt3__112basic_stringIcNS_11char_traitsIcEENS_9allocatorIcEEE20__throw_length_errorB8ue170006Ev, symObjAddr: 0x21534, symBinAddr: 0x100025750, symSize: 0x1C }
  - { offsetInCU: 0x5EE53, offset: 0x5EE53, size: 0x8, addend: 0x0, symName: __ZNSt3__112basic_stringIcNS_11char_traitsIcEENS_9allocatorIcEEE13__fits_in_ssoB8ue170006Em, symObjAddr: 0x21550, symBinAddr: 0x10002576C, symSize: 0x20 }
  - { offsetInCU: 0x5EE77, offset: 0x5EE77, size: 0x8, addend: 0x0, symName: __ZNSt3__112basic_stringIcNS_11char_traitsIcEENS_9allocatorIcEEE11__recommendB8ue170006Em, symObjAddr: 0x215B0, symBinAddr: 0x1000257CC, symSize: 0x84 }
  - { offsetInCU: 0x5EEAA, offset: 0x5EEAA, size: 0x8, addend: 0x0, symName: __ZNSt3__112basic_stringIcNS_11char_traitsIcEENS_9allocatorIcEEE16__begin_lifetimeB8ue170006EPcm, symObjAddr: 0x21634, symBinAddr: 0x100025850, symSize: 0x14 }
  - { offsetInCU: 0x5EEDD, offset: 0x5EEDD, size: 0x8, addend: 0x0, symName: __ZNSt3__112basic_stringIcNS_11char_traitsIcEENS_9allocatorIcEEE18__set_long_pointerB8ue170006EPc, symObjAddr: 0x21648, symBinAddr: 0x100025864, symSize: 0x38 }
  - { offsetInCU: 0x5EF12, offset: 0x5EF12, size: 0x8, addend: 0x0, symName: __ZNSt3__112basic_stringIcNS_11char_traitsIcEENS_9allocatorIcEEE14__set_long_capB8ue170006Em, symObjAddr: 0x21680, symBinAddr: 0x10002589C, symSize: 0x70 }
  - { offsetInCU: 0x5EF51, offset: 0x5EF51, size: 0x8, addend: 0x0, symName: __ZNSt3__116allocator_traitsINS_9allocatorIcEEE8max_sizeB8ue170006IS2_vEEmRKS2_, symObjAddr: 0x216F0, symBinAddr: 0x10002590C, symSize: 0x24 }
  - { offsetInCU: 0x5EF7F, offset: 0x5EF7F, size: 0x8, addend: 0x0, symName: __ZNKSt3__112basic_stringIcNS_11char_traitsIcEENS_9allocatorIcEEE7__allocB8ue170006Ev, symObjAddr: 0x21714, symBinAddr: 0x100025930, symSize: 0x24 }
  - { offsetInCU: 0x5EFA5, offset: 0x5EFA5, size: 0x8, addend: 0x0, symName: __ZNSt3__114numeric_limitsImE3maxB8ue170006Ev, symObjAddr: 0x21738, symBinAddr: 0x100025954, symSize: 0x14 }
  - { offsetInCU: 0x5EFB9, offset: 0x5EFB9, size: 0x8, addend: 0x0, symName: __ZNKSt3__19allocatorIcE8max_sizeB8ue170006Ev, symObjAddr: 0x2174C, symBinAddr: 0x100025968, symSize: 0x14 }
  - { offsetInCU: 0x5EFDF, offset: 0x5EFDF, size: 0x8, addend: 0x0, symName: __ZNKSt3__117__compressed_pairINS_12basic_stringIcNS_11char_traitsIcEENS_9allocatorIcEEE5__repES5_E6secondB8ue170006Ev, symObjAddr: 0x21760, symBinAddr: 0x10002597C, symSize: 0x24 }
  - { offsetInCU: 0x5F005, offset: 0x5F005, size: 0x8, addend: 0x0, symName: __ZNKSt3__122__compressed_pair_elemINS_9allocatorIcEELi1ELb1EE5__getB8ue170006Ev, symObjAddr: 0x21784, symBinAddr: 0x1000259A0, symSize: 0x14 }
  - { offsetInCU: 0x5F02B, offset: 0x5F02B, size: 0x8, addend: 0x0, symName: __ZNSt3__123__libcpp_numeric_limitsImLb1EE3maxB8ue170006Ev, symObjAddr: 0x21798, symBinAddr: 0x1000259B4, symSize: 0x8 }
  - { offsetInCU: 0x5F03F, offset: 0x5F03F, size: 0x8, addend: 0x0, symName: __ZNSt3__19allocatorIcE8allocateB8ue170006Em, symObjAddr: 0x217A0, symBinAddr: 0x1000259BC, symSize: 0x58 }
  - { offsetInCU: 0x5F073, offset: 0x5F073, size: 0x8, addend: 0x0, symName: __ZNSt3__112basic_stringIcNS_11char_traitsIcEENS_9allocatorIcEEE10__align_itB8ue170006ILm16EEEmm, symObjAddr: 0x217F8, symBinAddr: 0x100025A14, symSize: 0x1C }
  - { offsetInCU: 0x5F0A1, offset: 0x5F0A1, size: 0x8, addend: 0x0, symName: __ZNSt3__116allocator_traitsINS_9allocatorIcEEE37select_on_container_copy_constructionB8ue170006IS2_vvEES2_RKS2_, symObjAddr: 0x21814, symBinAddr: 0x100025A30, symSize: 0x10 }
  - { offsetInCU: 0x5F0D0, offset: 0x5F0D0, size: 0x8, addend: 0x0, symName: __ZNKSt3__112basic_stringIcNS_11char_traitsIcEENS_9allocatorIcEEE13get_allocatorB8ue170006Ev, symObjAddr: 0x21824, symBinAddr: 0x100025A40, symSize: 0x24 }
  - { offsetInCU: 0x5F0F6, offset: 0x5F0F6, size: 0x8, addend: 0x0, symName: __ZNSt3__112basic_stringIcNS_11char_traitsIcEENS_9allocatorIcEEEC1B8ue170006ENS_24__uninitialized_size_tagEmRKS4_, symObjAddr: 0x21848, symBinAddr: 0x100025A64, symSize: 0x3C }
  - { offsetInCU: 0x5F149, offset: 0x5F149, size: 0x8, addend: 0x0, symName: __ZNSt3__111char_traitsIcE4copyB8ue170006EPcPKcm, symObjAddr: 0x21884, symBinAddr: 0x100025AA0, symSize: 0x40 }
  - { offsetInCU: 0x5F188, offset: 0x5F188, size: 0x8, addend: 0x0, symName: __ZNSt3__111char_traitsIcE6assignB8ue170006EPcmc, symObjAddr: 0x218C4, symBinAddr: 0x100025AE0, symSize: 0x44 }
  - { offsetInCU: 0x5F1C7, offset: 0x5F1C7, size: 0x8, addend: 0x0, symName: __ZNSt3__112basic_stringIcNS_11char_traitsIcEENS_9allocatorIcEEEC2B8ue170006ENS_24__uninitialized_size_tagEmRKS4_, symObjAddr: 0x21908, symBinAddr: 0x100025B24, symSize: 0x110 }
  - { offsetInCU: 0x5F246, offset: 0x5F246, size: 0x8, addend: 0x0, symName: __ZNSt3__116allocator_traitsINS_9allocatorIcEEE8allocateB8ue170006ERS2_m, symObjAddr: 0x21A18, symBinAddr: 0x100025C34, symSize: 0x2C }
  - { offsetInCU: 0x5F293, offset: 0x5F293, size: 0x8, addend: 0x0, symName: __ZNKSt3__114__copy_trivialclB8ue170006IKccLi0EEENS_4pairIPT_PT0_EES5_S5_S7_, symObjAddr: 0x21C64, symBinAddr: 0x100025E80, symSize: 0x48 }
  - { offsetInCU: 0x5F31B, offset: 0x5F31B, size: 0x8, addend: 0x0, symName: __ZNSt3__14pairIPKcS2_EC1B8ue170006IS2_S2_LPv0EEEOT_OT0_, symObjAddr: 0x21DCC, symBinAddr: 0x100025FE8, symSize: 0x3C }
  - { offsetInCU: 0x5F379, offset: 0x5F379, size: 0x8, addend: 0x0, symName: __ZNSt3__14pairIPKcS2_EC2B8ue170006IS2_S2_LPv0EEEOT_OT0_, symObjAddr: 0x21E08, symBinAddr: 0x100026024, symSize: 0x34 }
  - { offsetInCU: 0x5F3D7, offset: 0x5F3D7, size: 0x8, addend: 0x0, symName: __ZNSt3__118__unwrap_iter_implIPKcLb1EE8__unwrapB8ue170006ES2_, symObjAddr: 0x21E3C, symBinAddr: 0x100026058, symSize: 0x24 }
  - { offsetInCU: 0x5F405, offset: 0x5F405, size: 0x8, addend: 0x0, symName: __ZNSt3__14pairIPKcPcEC1B8ue170006IRS2_S3_LPv0EEEOT_OT0_, symObjAddr: 0x21F74, symBinAddr: 0x100026190, symSize: 0x3C }
  - { offsetInCU: 0x5F463, offset: 0x5F463, size: 0x8, addend: 0x0, symName: __ZNSt3__14pairIPKcPcEC2B8ue170006IRS2_S3_LPv0EEEOT_OT0_, symObjAddr: 0x21FB0, symBinAddr: 0x1000261CC, symSize: 0x34 }
  - { offsetInCU: 0x5F4C1, offset: 0x5F4C1, size: 0x8, addend: 0x0, symName: __ZNSt3__118__unwrap_iter_implIPcLb1EE8__unwrapB8ue170006ES1_, symObjAddr: 0x21FE4, symBinAddr: 0x100026200, symSize: 0x24 }
  - { offsetInCU: 0x5F4E4, offset: 0x5F4E4, size: 0x8, addend: 0x0, symName: __ZNSt3__14pairIPKcPcEC1B8ue170006IS2_S3_LPv0EEEOT_OT0_, symObjAddr: 0x22008, symBinAddr: 0x100026224, symSize: 0x3C }
  - { offsetInCU: 0x5F542, offset: 0x5F542, size: 0x8, addend: 0x0, symName: __ZNSt3__14pairIPKcPcEC2B8ue170006IS2_S3_LPv0EEEOT_OT0_, symObjAddr: 0x22044, symBinAddr: 0x100026260, symSize: 0x34 }
  - { offsetInCU: 0x5F5A0, offset: 0x5F5A0, size: 0x8, addend: 0x0, symName: __ZNSt3__118__unwrap_iter_implIPKcLb1EE8__rewrapB8ue170006ES2_S2_, symObjAddr: 0x220B4, symBinAddr: 0x1000262D0, symSize: 0x48 }
  - { offsetInCU: 0x5F5D1, offset: 0x5F5D1, size: 0x8, addend: 0x0, symName: __ZNSt3__118__unwrap_iter_implIPcLb1EE8__rewrapB8ue170006ES1_S1_, symObjAddr: 0x220FC, symBinAddr: 0x100026318, symSize: 0x48 }
  - { offsetInCU: 0x5F602, offset: 0x5F602, size: 0x8, addend: 0x0, symName: __ZNSt3__113unordered_mapINS_12basic_stringIcNS_11char_traitsIcEENS_9allocatorIcEEEEZN8Geometry8from_txtERKS6_E6HeaderNS_4hashIS6_EENS_8equal_toIS6_EENS4_INS_4pairIS8_SA_EEEEEC2ESt16initializer_listISG_E, symObjAddr: 0x22200, symBinAddr: 0x10002641C, symSize: 0x8C }
  - { offsetInCU: 0x5F63D, offset: 0x5F63D, size: 0x8, addend: 0x0, symName: __ZNSt3__112__hash_tableINS_17__hash_value_typeINS_12basic_stringIcNS_11char_traitsIcEENS_9allocatorIcEEEEZN8Geometry8from_txtERKS7_E6HeaderEENS_22__unordered_map_hasherIS7_SC_NS_4hashIS7_EENS_8equal_toIS7_EELb1EEENS_21__unordered_map_equalIS7_SC_SH_SF_Lb1EEENS5_ISC_EEEC1Ev, symObjAddr: 0x2228C, symBinAddr: 0x1000264A8, symSize: 0x2C }
  - { offsetInCU: 0x5F669, offset: 0x5F669, size: 0x8, addend: 0x0, symName: __ZNSt3__113unordered_mapINS_12basic_stringIcNS_11char_traitsIcEENS_9allocatorIcEEEEZN8Geometry8from_txtERKS6_E6HeaderNS_4hashIS6_EENS_8equal_toIS6_EENS4_INS_4pairIS8_SA_EEEEE6insertIPKSG_EEvT_SM_, symObjAddr: 0x222B8, symBinAddr: 0x1000264D4, symSize: 0x70 }
  - { offsetInCU: 0x5F6B8, offset: 0x5F6B8, size: 0x8, addend: 0x0, symName: __ZNKSt16initializer_listINSt3__14pairIKNS0_12basic_stringIcNS0_11char_traitsIcEENS0_9allocatorIcEEEEZN8Geometry8from_txtERS8_E6HeaderEEE5beginB8ue170006Ev, symObjAddr: 0x22328, symBinAddr: 0x100026544, symSize: 0x18 }
  - { offsetInCU: 0x5F6DE, offset: 0x5F6DE, size: 0x8, addend: 0x0, symName: __ZNKSt16initializer_listINSt3__14pairIKNS0_12basic_stringIcNS0_11char_traitsIcEENS0_9allocatorIcEEEEZN8Geometry8from_txtERS8_E6HeaderEEE3endB8ue170006Ev, symObjAddr: 0x22340, symBinAddr: 0x10002655C, symSize: 0x20 }
  - { offsetInCU: 0x5F704, offset: 0x5F704, size: 0x8, addend: 0x0, symName: __ZNSt3__112__hash_tableINS_17__hash_value_typeINS_12basic_stringIcNS_11char_traitsIcEENS_9allocatorIcEEEEZN8Geometry8from_txtERKS7_E6HeaderEENS_22__unordered_map_hasherIS7_SC_NS_4hashIS7_EENS_8equal_toIS7_EELb1EEENS_21__unordered_map_equalIS7_SC_SH_SF_Lb1EEENS5_ISC_EEED1Ev, symObjAddr: 0x22360, symBinAddr: 0x10002657C, symSize: 0x2C }
  - { offsetInCU: 0x5F730, offset: 0x5F730, size: 0x8, addend: 0x0, symName: __ZNSt3__112__hash_tableINS_17__hash_value_typeINS_12basic_stringIcNS_11char_traitsIcEENS_9allocatorIcEEEEZN8Geometry8from_txtERKS7_E6HeaderEENS_22__unordered_map_hasherIS7_SC_NS_4hashIS7_EENS_8equal_toIS7_EELb1EEENS_21__unordered_map_equalIS7_SC_SH_SF_Lb1EEENS5_ISC_EEEC2Ev, symObjAddr: 0x2238C, symBinAddr: 0x1000265A8, symSize: 0x7C }
  - { offsetInCU: 0x5F75C, offset: 0x5F75C, size: 0x8, addend: 0x0, symName: __ZNSt3__110unique_ptrIA_PNS_16__hash_node_baseIPNS_11__hash_nodeINS_17__hash_value_typeINS_12basic_stringIcNS_11char_traitsIcEENS_9allocatorIcEEEEZN8Geometry8from_txtERKS9_E6HeaderEEPvEEEENS_25__bucket_list_deallocatorINS7_ISJ_EEEEEC1B8ue170006ILb1EvEEv, symObjAddr: 0x22408, symBinAddr: 0x100026624, symSize: 0x2C }
  - { offsetInCU: 0x5F791, offset: 0x5F791, size: 0x8, addend: 0x0, symName: __ZNSt3__117__compressed_pairINS_16__hash_node_baseIPNS_11__hash_nodeINS_17__hash_value_typeINS_12basic_stringIcNS_11char_traitsIcEENS_9allocatorIcEEEEZN8Geometry8from_txtERKS9_E6HeaderEEPvEEEENS7_ISG_EEEC1B8ue170006ILb1EvEEv, symObjAddr: 0x22434, symBinAddr: 0x100026650, symSize: 0x2C }
  - { offsetInCU: 0x5F7C6, offset: 0x5F7C6, size: 0x8, addend: 0x0, symName: __ZNSt3__117__compressed_pairImNS_22__unordered_map_hasherINS_12basic_stringIcNS_11char_traitsIcEENS_9allocatorIcEEEENS_17__hash_value_typeIS7_ZN8Geometry8from_txtERKS7_E6HeaderEENS_4hashIS7_EENS_8equal_toIS7_EELb1EEEEC1B8ue170006IiNS_18__default_init_tagEEEOT_OT0_, symObjAddr: 0x22460, symBinAddr: 0x10002667C, symSize: 0x3C }
  - { offsetInCU: 0x5F824, offset: 0x5F824, size: 0x8, addend: 0x0, symName: __ZNSt3__117__compressed_pairIfNS_21__unordered_map_equalINS_12basic_stringIcNS_11char_traitsIcEENS_9allocatorIcEEEENS_17__hash_value_typeIS7_ZN8Geometry8from_txtERKS7_E6HeaderEENS_8equal_toIS7_EENS_4hashIS7_EELb1EEEEC1B8ue170006IfNS_18__default_init_tagEEEOT_OT0_, symObjAddr: 0x2249C, symBinAddr: 0x1000266B8, symSize: 0x3C }
  - { offsetInCU: 0x5F87C, offset: 0x5F87C, size: 0x8, addend: 0x0, symName: __ZNSt3__110unique_ptrIA_PNS_16__hash_node_baseIPNS_11__hash_nodeINS_17__hash_value_typeINS_12basic_stringIcNS_11char_traitsIcEENS_9allocatorIcEEEEZN8Geometry8from_txtERKS9_E6HeaderEEPvEEEENS_25__bucket_list_deallocatorINS7_ISJ_EEEEEC2B8ue170006ILb1EvEEv, symObjAddr: 0x224D8, symBinAddr: 0x1000266F4, symSize: 0x3C }
  - { offsetInCU: 0x5F8B7, offset: 0x5F8B7, size: 0x8, addend: 0x0, symName: __ZNSt3__117__compressed_pairIPPNS_16__hash_node_baseIPNS_11__hash_nodeINS_17__hash_value_typeINS_12basic_stringIcNS_11char_traitsIcEENS_9allocatorIcEEEEZN8Geometry8from_txtERKS9_E6HeaderEEPvEEEENS_25__bucket_list_deallocatorINS7_ISJ_EEEEEC1B8ue170006INS_16__value_init_tagESQ_EEOT_OT0_, symObjAddr: 0x22514, symBinAddr: 0x100026730, symSize: 0x3C }
  - { offsetInCU: 0x5F90F, offset: 0x5F90F, size: 0x8, addend: 0x0, symName: __ZNSt3__117__compressed_pairIPPNS_16__hash_node_baseIPNS_11__hash_nodeINS_17__hash_value_typeINS_12basic_stringIcNS_11char_traitsIcEENS_9allocatorIcEEEEZN8Geometry8from_txtERKS9_E6HeaderEEPvEEEENS_25__bucket_list_deallocatorINS7_ISJ_EEEEEC2B8ue170006INS_16__value_init_tagESQ_EEOT_OT0_, symObjAddr: 0x22550, symBinAddr: 0x10002676C, symSize: 0x40 }
  - { offsetInCU: 0x5F967, offset: 0x5F967, size: 0x8, addend: 0x0, symName: __ZNSt3__122__compressed_pair_elemIPPNS_16__hash_node_baseIPNS_11__hash_nodeINS_17__hash_value_typeINS_12basic_stringIcNS_11char_traitsIcEENS_9allocatorIcEEEEZN8Geometry8from_txtERKS9_E6HeaderEEPvEEEELi0ELb0EEC2B8ue170006ENS_16__value_init_tagE, symObjAddr: 0x22590, symBinAddr: 0x1000267AC, symSize: 0x18 }
  - { offsetInCU: 0x5F99C, offset: 0x5F99C, size: 0x8, addend: 0x0, symName: __ZNSt3__122__compressed_pair_elemINS_25__bucket_list_deallocatorINS_9allocatorIPNS_16__hash_node_baseIPNS_11__hash_nodeINS_17__hash_value_typeINS_12basic_stringIcNS_11char_traitsIcEENS2_IcEEEEZN8Geometry8from_txtERKSA_E6HeaderEEPvEEEEEEEELi1ELb0EEC2B8ue170006ENS_16__value_init_tagE, symObjAddr: 0x225A8, symBinAddr: 0x1000267C4, symSize: 0x2C }
  - { offsetInCU: 0x5F9D1, offset: 0x5F9D1, size: 0x8, addend: 0x0, symName: __ZNSt3__125__bucket_list_deallocatorINS_9allocatorIPNS_16__hash_node_baseIPNS_11__hash_nodeINS_17__hash_value_typeINS_12basic_stringIcNS_11char_traitsIcEENS1_IcEEEEZN8Geometry8from_txtERKS9_E6HeaderEEPvEEEEEEEC1B8ue170006Ev, symObjAddr: 0x225D4, symBinAddr: 0x1000267F0, symSize: 0x2C }
  - { offsetInCU: 0x5F9FB, offset: 0x5F9FB, size: 0x8, addend: 0x0, symName: __ZNSt3__125__bucket_list_deallocatorINS_9allocatorIPNS_16__hash_node_baseIPNS_11__hash_nodeINS_17__hash_value_typeINS_12basic_stringIcNS_11char_traitsIcEENS1_IcEEEEZN8Geometry8from_txtERKS9_E6HeaderEEPvEEEEEEEC2B8ue170006Ev, symObjAddr: 0x22600, symBinAddr: 0x10002681C, symSize: 0x40 }
  - { offsetInCU: 0x5FA25, offset: 0x5FA25, size: 0x8, addend: 0x0, symName: __ZNSt3__117__compressed_pairImNS_9allocatorIPNS_16__hash_node_baseIPNS_11__hash_nodeINS_17__hash_value_typeINS_12basic_stringIcNS_11char_traitsIcEENS1_IcEEEEZN8Geometry8from_txtERKS9_E6HeaderEEPvEEEEEEEC1B8ue170006IiNS_18__default_init_tagEEEOT_OT0_, symObjAddr: 0x22640, symBinAddr: 0x10002685C, symSize: 0x3C }
  - { offsetInCU: 0x5FA7D, offset: 0x5FA7D, size: 0x8, addend: 0x0, symName: __ZNSt3__117__compressed_pairImNS_9allocatorIPNS_16__hash_node_baseIPNS_11__hash_nodeINS_17__hash_value_typeINS_12basic_stringIcNS_11char_traitsIcEENS1_IcEEEEZN8Geometry8from_txtERKS9_E6HeaderEEPvEEEEEEEC2B8ue170006IiNS_18__default_init_tagEEEOT_OT0_, symObjAddr: 0x2267C, symBinAddr: 0x100026898, symSize: 0x40 }
  - { offsetInCU: 0x5FAD5, offset: 0x5FAD5, size: 0x8, addend: 0x0, symName: __ZNSt3__122__compressed_pair_elemImLi0ELb0EEC2B8ue170006IivEEOT_, symObjAddr: 0x226BC, symBinAddr: 0x1000268D8, symSize: 0x24 }
  - { offsetInCU: 0x5FB17, offset: 0x5FB17, size: 0x8, addend: 0x0, symName: __ZNSt3__122__compressed_pair_elemINS_9allocatorIPNS_16__hash_node_baseIPNS_11__hash_nodeINS_17__hash_value_typeINS_12basic_stringIcNS_11char_traitsIcEENS1_IcEEEEZN8Geometry8from_txtERKS9_E6HeaderEEPvEEEEEELi1ELb1EEC2B8ue170006ENS_18__default_init_tagE, symObjAddr: 0x226E0, symBinAddr: 0x1000268FC, symSize: 0x2C }
  - { offsetInCU: 0x5FB4C, offset: 0x5FB4C, size: 0x8, addend: 0x0, symName: __ZNSt3__19allocatorIPNS_16__hash_node_baseIPNS_11__hash_nodeINS_17__hash_value_typeINS_12basic_stringIcNS_11char_traitsIcEENS0_IcEEEEZN8Geometry8from_txtERKS8_E6HeaderEEPvEEEEEC2B8ue170006Ev, symObjAddr: 0x2270C, symBinAddr: 0x100026928, symSize: 0x2C }
  - { offsetInCU: 0x5FB76, offset: 0x5FB76, size: 0x8, addend: 0x0, symName: __ZNSt3__116__non_trivial_ifILb1ENS_9allocatorIPNS_16__hash_node_baseIPNS_11__hash_nodeINS_17__hash_value_typeINS_12basic_stringIcNS_11char_traitsIcEENS1_IcEEEEZN8Geometry8from_txtERKS9_E6HeaderEEPvEEEEEEEC2B8ue170006Ev, symObjAddr: 0x22738, symBinAddr: 0x100026954, symSize: 0x14 }
  - { offsetInCU: 0x5FBA0, offset: 0x5FBA0, size: 0x8, addend: 0x0, symName: __ZNSt3__117__compressed_pairINS_16__hash_node_baseIPNS_11__hash_nodeINS_17__hash_value_typeINS_12basic_stringIcNS_11char_traitsIcEENS_9allocatorIcEEEEZN8Geometry8from_txtERKS9_E6HeaderEEPvEEEENS7_ISG_EEEC2B8ue170006ILb1EvEEv, symObjAddr: 0x2274C, symBinAddr: 0x100026968, symSize: 0x34 }
  - { offsetInCU: 0x5FBD5, offset: 0x5FBD5, size: 0x8, addend: 0x0, symName: __ZNSt3__122__compressed_pair_elemINS_16__hash_node_baseIPNS_11__hash_nodeINS_17__hash_value_typeINS_12basic_stringIcNS_11char_traitsIcEENS_9allocatorIcEEEEZN8Geometry8from_txtERKS9_E6HeaderEEPvEEEELi0ELb0EEC2B8ue170006ENS_16__value_init_tagE, symObjAddr: 0x22780, symBinAddr: 0x10002699C, symSize: 0x2C }
  - { offsetInCU: 0x5FC0A, offset: 0x5FC0A, size: 0x8, addend: 0x0, symName: __ZNSt3__122__compressed_pair_elemINS_9allocatorINS_11__hash_nodeINS_17__hash_value_typeINS_12basic_stringIcNS_11char_traitsIcEENS1_IcEEEEZN8Geometry8from_txtERKS8_E6HeaderEEPvEEEELi1ELb1EEC2B8ue170006ENS_16__value_init_tagE, symObjAddr: 0x227AC, symBinAddr: 0x1000269C8, symSize: 0x2C }
  - { offsetInCU: 0x5FC3F, offset: 0x5FC3F, size: 0x8, addend: 0x0, symName: __ZNSt3__116__hash_node_baseIPNS_11__hash_nodeINS_17__hash_value_typeINS_12basic_stringIcNS_11char_traitsIcEENS_9allocatorIcEEEEZN8Geometry8from_txtERKS8_E6HeaderEEPvEEEC1B8ue170006Ev, symObjAddr: 0x227D8, symBinAddr: 0x1000269F4, symSize: 0x2C }
  - { offsetInCU: 0x5FC69, offset: 0x5FC69, size: 0x8, addend: 0x0, symName: __ZNSt3__116__hash_node_baseIPNS_11__hash_nodeINS_17__hash_value_typeINS_12basic_stringIcNS_11char_traitsIcEENS_9allocatorIcEEEEZN8Geometry8from_txtERKS8_E6HeaderEEPvEEEC2B8ue170006Ev, symObjAddr: 0x22804, symBinAddr: 0x100026A20, symSize: 0x18 }
  - { offsetInCU: 0x5FC93, offset: 0x5FC93, size: 0x8, addend: 0x0, symName: __ZNSt3__19allocatorINS_11__hash_nodeINS_17__hash_value_typeINS_12basic_stringIcNS_11char_traitsIcEENS0_IcEEEEZN8Geometry8from_txtERKS7_E6HeaderEEPvEEEC2B8ue170006Ev, symObjAddr: 0x2281C, symBinAddr: 0x100026A38, symSize: 0x2C }
  - { offsetInCU: 0x5FCBD, offset: 0x5FCBD, size: 0x8, addend: 0x0, symName: __ZNSt3__116__non_trivial_ifILb1ENS_9allocatorINS_11__hash_nodeINS_17__hash_value_typeINS_12basic_stringIcNS_11char_traitsIcEENS1_IcEEEEZN8Geometry8from_txtERKS8_E6HeaderEEPvEEEEEC2B8ue170006Ev, symObjAddr: 0x22848, symBinAddr: 0x100026A64, symSize: 0x14 }
  - { offsetInCU: 0x5FCE7, offset: 0x5FCE7, size: 0x8, addend: 0x0, symName: __ZNSt3__117__compressed_pairImNS_22__unordered_map_hasherINS_12basic_stringIcNS_11char_traitsIcEENS_9allocatorIcEEEENS_17__hash_value_typeIS7_ZN8Geometry8from_txtERKS7_E6HeaderEENS_4hashIS7_EENS_8equal_toIS7_EELb1EEEEC2B8ue170006IiNS_18__default_init_tagEEEOT_OT0_, symObjAddr: 0x2285C, symBinAddr: 0x100026A78, symSize: 0x40 }
  - { offsetInCU: 0x5FD3F, offset: 0x5FD3F, size: 0x8, addend: 0x0, symName: __ZNSt3__122__compressed_pair_elemINS_22__unordered_map_hasherINS_12basic_stringIcNS_11char_traitsIcEENS_9allocatorIcEEEENS_17__hash_value_typeIS7_ZN8Geometry8from_txtERKS7_E6HeaderEENS_4hashIS7_EENS_8equal_toIS7_EELb1EEELi1ELb1EEC2B8ue170006ENS_18__default_init_tagE, symObjAddr: 0x2289C, symBinAddr: 0x100026AB8, symSize: 0x2C }
  - { offsetInCU: 0x5FD74, offset: 0x5FD74, size: 0x8, addend: 0x0, symName: __ZNSt3__122__unordered_map_hasherINS_12basic_stringIcNS_11char_traitsIcEENS_9allocatorIcEEEENS_17__hash_value_typeIS6_ZN8Geometry8from_txtERKS6_E6HeaderEENS_4hashIS6_EENS_8equal_toIS6_EELb1EEC2B8ue170006Ev, symObjAddr: 0x228C8, symBinAddr: 0x100026AE4, symSize: 0x14 }
  - { offsetInCU: 0x5FD9E, offset: 0x5FD9E, size: 0x8, addend: 0x0, symName: __ZNSt3__117__compressed_pairIfNS_21__unordered_map_equalINS_12basic_stringIcNS_11char_traitsIcEENS_9allocatorIcEEEENS_17__hash_value_typeIS7_ZN8Geometry8from_txtERKS7_E6HeaderEENS_8equal_toIS7_EENS_4hashIS7_EELb1EEEEC2B8ue170006IfNS_18__default_init_tagEEEOT_OT0_, symObjAddr: 0x228DC, symBinAddr: 0x100026AF8, symSize: 0x40 }
  - { offsetInCU: 0x5FDF6, offset: 0x5FDF6, size: 0x8, addend: 0x0, symName: __ZNSt3__122__compressed_pair_elemIfLi0ELb0EEC2B8ue170006IfvEEOT_, symObjAddr: 0x2291C, symBinAddr: 0x100026B38, symSize: 0x24 }
  - { offsetInCU: 0x5FE38, offset: 0x5FE38, size: 0x8, addend: 0x0, symName: __ZNSt3__122__compressed_pair_elemINS_21__unordered_map_equalINS_12basic_stringIcNS_11char_traitsIcEENS_9allocatorIcEEEENS_17__hash_value_typeIS7_ZN8Geometry8from_txtERKS7_E6HeaderEENS_8equal_toIS7_EENS_4hashIS7_EELb1EEELi1ELb1EEC2B8ue170006ENS_18__default_init_tagE, symObjAddr: 0x22940, symBinAddr: 0x100026B5C, symSize: 0x2C }
  - { offsetInCU: 0x5FE6D, offset: 0x5FE6D, size: 0x8, addend: 0x0, symName: __ZNSt3__121__unordered_map_equalINS_12basic_stringIcNS_11char_traitsIcEENS_9allocatorIcEEEENS_17__hash_value_typeIS6_ZN8Geometry8from_txtERKS6_E6HeaderEENS_8equal_toIS6_EENS_4hashIS6_EELb1EEC2B8ue170006Ev, symObjAddr: 0x2296C, symBinAddr: 0x100026B88, symSize: 0x14 }
  - { offsetInCU: 0x5FE97, offset: 0x5FE97, size: 0x8, addend: 0x0, symName: __ZNSt3__112__hash_tableINS_17__hash_value_typeINS_12basic_stringIcNS_11char_traitsIcEENS_9allocatorIcEEEEZN8Geometry8from_txtERKS7_E6HeaderEENS_22__unordered_map_hasherIS7_SC_NS_4hashIS7_EENS_8equal_toIS7_EELb1EEENS_21__unordered_map_equalIS7_SC_SH_SF_Lb1EEENS5_ISC_EEE15__insert_uniqueB8ue170006ERKNS_4pairIS9_SB_EE, symObjAddr: 0x22980, symBinAddr: 0x100026B9C, symSize: 0x50 }
  - { offsetInCU: 0x5FECC, offset: 0x5FECC, size: 0x8, addend: 0x0, symName: __ZNSt3__112__hash_tableINS_17__hash_value_typeINS_12basic_stringIcNS_11char_traitsIcEENS_9allocatorIcEEEEZN8Geometry8from_txtERKS7_E6HeaderEENS_22__unordered_map_hasherIS7_SC_NS_4hashIS7_EENS_8equal_toIS7_EELb1EEENS_21__unordered_map_equalIS7_SC_SH_SF_Lb1EEENS5_ISC_EEE25__emplace_unique_key_argsIS7_JRKNS_4pairIS9_SB_EEEEENSO_INS_15__hash_iteratorIPNS_11__hash_nodeISC_PvEEEEbEERKT_DpOT0_, symObjAddr: 0x229D0, symBinAddr: 0x100026BEC, symSize: 0x4D8 }
  - { offsetInCU: 0x5FFAC, offset: 0x5FFAC, size: 0x8, addend: 0x0, symName: __ZNSt3__122__hash_key_value_typesINS_17__hash_value_typeINS_12basic_stringIcNS_11char_traitsIcEENS_9allocatorIcEEEEZN8Geometry8from_txtERKS7_E6HeaderEEE9__get_keyB8ue170006ERKNS_4pairIS9_SB_EE, symObjAddr: 0x22EA8, symBinAddr: 0x1000270C4, symSize: 0x14 }
  - { offsetInCU: 0x5FFCF, offset: 0x5FFCF, size: 0x8, addend: 0x0, symName: __ZNSt3__112__hash_tableINS_17__hash_value_typeINS_12basic_stringIcNS_11char_traitsIcEENS_9allocatorIcEEEEZN8Geometry8from_txtERKS7_E6HeaderEENS_22__unordered_map_hasherIS7_SC_NS_4hashIS7_EENS_8equal_toIS7_EELb1EEENS_21__unordered_map_equalIS7_SC_SH_SF_Lb1EEENS5_ISC_EEE13hash_functionB8ue170006Ev, symObjAddr: 0x22EBC, symBinAddr: 0x1000270D8, symSize: 0x28 }
  - { offsetInCU: 0x5FFF5, offset: 0x5FFF5, size: 0x8, addend: 0x0, symName: __ZNKSt3__122__unordered_map_hasherINS_12basic_stringIcNS_11char_traitsIcEENS_9allocatorIcEEEENS_17__hash_value_typeIS6_ZN8Geometry8from_txtERKS6_E6HeaderEENS_4hashIS6_EENS_8equal_toIS6_EELb1EEclB8ue170006ESA_, symObjAddr: 0x22EE4, symBinAddr: 0x100027100, symSize: 0x2C }
  - { offsetInCU: 0x6002A, offset: 0x6002A, size: 0x8, addend: 0x0, symName: __ZNKSt3__112__hash_tableINS_17__hash_value_typeINS_12basic_stringIcNS_11char_traitsIcEENS_9allocatorIcEEEEZN8Geometry8from_txtERKS7_E6HeaderEENS_22__unordered_map_hasherIS7_SC_NS_4hashIS7_EENS_8equal_toIS7_EELb1EEENS_21__unordered_map_equalIS7_SC_SH_SF_Lb1EEENS5_ISC_EEE12bucket_countB8ue170006Ev, symObjAddr: 0x22F10, symBinAddr: 0x10002712C, symSize: 0x28 }
  - { offsetInCU: 0x60050, offset: 0x60050, size: 0x8, addend: 0x0, symName: __ZNKSt3__110unique_ptrIA_PNS_16__hash_node_baseIPNS_11__hash_nodeINS_17__hash_value_typeINS_12basic_stringIcNS_11char_traitsIcEENS_9allocatorIcEEEEZN8Geometry8from_txtERKS9_E6HeaderEEPvEEEENS_25__bucket_list_deallocatorINS7_ISJ_EEEEEixB8ue170006Em, symObjAddr: 0x22FD0, symBinAddr: 0x1000271EC, symSize: 0x34 }
  - { offsetInCU: 0x60085, offset: 0x60085, size: 0x8, addend: 0x0, symName: __ZNKSt3__116__hash_node_baseIPNS_11__hash_nodeINS_17__hash_value_typeINS_12basic_stringIcNS_11char_traitsIcEENS_9allocatorIcEEEEZN8Geometry8from_txtERKS8_E6HeaderEEPvEEE6__hashB8ue170006Ev, symObjAddr: 0x23004, symBinAddr: 0x100027220, symSize: 0x18 }
  - { offsetInCU: 0x600AB, offset: 0x600AB, size: 0x8, addend: 0x0, symName: __ZNSt3__112__hash_tableINS_17__hash_value_typeINS_12basic_stringIcNS_11char_traitsIcEENS_9allocatorIcEEEEZN8Geometry8from_txtERKS7_E6HeaderEENS_22__unordered_map_hasherIS7_SC_NS_4hashIS7_EENS_8equal_toIS7_EELb1EEENS_21__unordered_map_equalIS7_SC_SH_SF_Lb1EEENS5_ISC_EEE6key_eqB8ue170006Ev, symObjAddr: 0x2301C, symBinAddr: 0x100027238, symSize: 0x28 }
  - { offsetInCU: 0x600D1, offset: 0x600D1, size: 0x8, addend: 0x0, symName: __ZNKSt3__121__unordered_map_equalINS_12basic_stringIcNS_11char_traitsIcEENS_9allocatorIcEEEENS_17__hash_value_typeIS6_ZN8Geometry8from_txtERKS6_E6HeaderEENS_8equal_toIS6_EENS_4hashIS6_EELb1EEclB8ue170006ERKSC_SA_, symObjAddr: 0x23044, symBinAddr: 0x100027260, symSize: 0x48 }
  - { offsetInCU: 0x60115, offset: 0x60115, size: 0x8, addend: 0x0, symName: __ZNSt3__116__hash_node_baseIPNS_11__hash_nodeINS_17__hash_value_typeINS_12basic_stringIcNS_11char_traitsIcEENS_9allocatorIcEEEEZN8Geometry8from_txtERKS8_E6HeaderEEPvEEE8__upcastB8ue170006Ev, symObjAddr: 0x2308C, symBinAddr: 0x1000272A8, symSize: 0x24 }
  - { offsetInCU: 0x6013B, offset: 0x6013B, size: 0x8, addend: 0x0, symName: __ZNSt3__112__hash_tableINS_17__hash_value_typeINS_12basic_stringIcNS_11char_traitsIcEENS_9allocatorIcEEEEZN8Geometry8from_txtERKS7_E6HeaderEENS_22__unordered_map_hasherIS7_SC_NS_4hashIS7_EENS_8equal_toIS7_EELb1EEENS_21__unordered_map_equalIS7_SC_SH_SF_Lb1EEENS5_ISC_EEE21__construct_node_hashIRKNS_4pairIS9_SB_EEJEEENS_10unique_ptrINS_11__hash_nodeISC_PvEENS_22__hash_node_destructorINS5_ISV_EEEEEEmOT_DpOT0_, symObjAddr: 0x230B0, symBinAddr: 0x1000272CC, symSize: 0x140 }
  - { offsetInCU: 0x601AE, offset: 0x601AE, size: 0x8, addend: 0x0, symName: __ZNSt3__112__hash_tableINS_17__hash_value_typeINS_12basic_stringIcNS_11char_traitsIcEENS_9allocatorIcEEEEZN8Geometry8from_txtERKS7_E6HeaderEENS_22__unordered_map_hasherIS7_SC_NS_4hashIS7_EENS_8equal_toIS7_EELb1EEENS_21__unordered_map_equalIS7_SC_SH_SF_Lb1EEENS5_ISC_EEE4sizeB8ue170006Ev, symObjAddr: 0x231F0, symBinAddr: 0x10002740C, symSize: 0x28 }
  - { offsetInCU: 0x601D4, offset: 0x601D4, size: 0x8, addend: 0x0, symName: __ZNSt3__112__hash_tableINS_17__hash_value_typeINS_12basic_stringIcNS_11char_traitsIcEENS_9allocatorIcEEEEZN8Geometry8from_txtERKS7_E6HeaderEENS_22__unordered_map_hasherIS7_SC_NS_4hashIS7_EENS_8equal_toIS7_EELb1EEENS_21__unordered_map_equalIS7_SC_SH_SF_Lb1EEENS5_ISC_EEE15max_load_factorB8ue170006Ev, symObjAddr: 0x23218, symBinAddr: 0x100027434, symSize: 0x28 }
  - { offsetInCU: 0x601FA, offset: 0x601FA, size: 0x8, addend: 0x0, symName: __ZNSt3__112__hash_tableINS_17__hash_value_typeINS_12basic_stringIcNS_11char_traitsIcEENS_9allocatorIcEEEEZN8Geometry8from_txtERKS7_E6HeaderEENS_22__unordered_map_hasherIS7_SC_NS_4hashIS7_EENS_8equal_toIS7_EELb1EEENS_21__unordered_map_equalIS7_SC_SH_SF_Lb1EEENS5_ISC_EEE15__rehash_uniqueB8ue170006Em, symObjAddr: 0x23240, symBinAddr: 0x10002745C, symSize: 0x2C }
  - { offsetInCU: 0x6022E, offset: 0x6022E, size: 0x8, addend: 0x0, symName: __Z4ceilB8ue170006f, symObjAddr: 0x232BC, symBinAddr: 0x1000274D8, symSize: 0x18 }
  - { offsetInCU: 0x6025D, offset: 0x6025D, size: 0x8, addend: 0x0, symName: __ZNSt3__117__compressed_pairINS_16__hash_node_baseIPNS_11__hash_nodeINS_17__hash_value_typeINS_12basic_stringIcNS_11char_traitsIcEENS_9allocatorIcEEEEZN8Geometry8from_txtERKS9_E6HeaderEEPvEEEENS7_ISG_EEE5firstB8ue170006Ev, symObjAddr: 0x232D4, symBinAddr: 0x1000274F0, symSize: 0x24 }
  - { offsetInCU: 0x60283, offset: 0x60283, size: 0x8, addend: 0x0, symName: __ZNSt3__116__hash_node_baseIPNS_11__hash_nodeINS_17__hash_value_typeINS_12basic_stringIcNS_11char_traitsIcEENS_9allocatorIcEEEEZN8Geometry8from_txtERKS8_E6HeaderEEPvEEE5__ptrB8ue170006Ev, symObjAddr: 0x232F8, symBinAddr: 0x100027514, symSize: 0x24 }
  - { offsetInCU: 0x602A9, offset: 0x602A9, size: 0x8, addend: 0x0, symName: __ZNKSt3__110unique_ptrINS_11__hash_nodeINS_17__hash_value_typeINS_12basic_stringIcNS_11char_traitsIcEENS_9allocatorIcEEEEZN8Geometry8from_txtERKS8_E6HeaderEEPvEENS_22__hash_node_destructorINS6_ISF_EEEEEptB8ue170006Ev, symObjAddr: 0x2331C, symBinAddr: 0x100027538, symSize: 0x28 }
  - { offsetInCU: 0x602CF, offset: 0x602CF, size: 0x8, addend: 0x0, symName: __ZNKSt3__110unique_ptrINS_11__hash_nodeINS_17__hash_value_typeINS_12basic_stringIcNS_11char_traitsIcEENS_9allocatorIcEEEEZN8Geometry8from_txtERKS8_E6HeaderEEPvEENS_22__hash_node_destructorINS6_ISF_EEEEE3getB8ue170006Ev, symObjAddr: 0x23344, symBinAddr: 0x100027560, symSize: 0x28 }
  - { offsetInCU: 0x602F5, offset: 0x602F5, size: 0x8, addend: 0x0, symName: __ZNSt3__110unique_ptrINS_11__hash_nodeINS_17__hash_value_typeINS_12basic_stringIcNS_11char_traitsIcEENS_9allocatorIcEEEEZN8Geometry8from_txtERKS8_E6HeaderEEPvEENS_22__hash_node_destructorINS6_ISF_EEEEE7releaseB8ue170006Ev, symObjAddr: 0x2336C, symBinAddr: 0x100027588, symSize: 0x44 }
  - { offsetInCU: 0x6032A, offset: 0x6032A, size: 0x8, addend: 0x0, symName: __ZNSt3__110unique_ptrINS_11__hash_nodeINS_17__hash_value_typeINS_12basic_stringIcNS_11char_traitsIcEENS_9allocatorIcEEEEZN8Geometry8from_txtERKS8_E6HeaderEEPvEENS_22__hash_node_destructorINS6_ISF_EEEEED1B8ue170006Ev, symObjAddr: 0x233B0, symBinAddr: 0x1000275CC, symSize: 0x2C }
  - { offsetInCU: 0x60354, offset: 0x60354, size: 0x8, addend: 0x0, symName: __ZNSt3__115__hash_iteratorIPNS_11__hash_nodeINS_17__hash_value_typeINS_12basic_stringIcNS_11char_traitsIcEENS_9allocatorIcEEEEZN8Geometry8from_txtERKS8_E6HeaderEEPvEEEC1B8ue170006EPNS_16__hash_node_baseISG_EE, symObjAddr: 0x233DC, symBinAddr: 0x1000275F8, symSize: 0x34 }
  - { offsetInCU: 0x60393, offset: 0x60393, size: 0x8, addend: 0x0, symName: __ZNSt3__14pairINS_15__hash_iteratorIPNS_11__hash_nodeINS_17__hash_value_typeINS_12basic_stringIcNS_11char_traitsIcEENS_9allocatorIcEEEEZN8Geometry8from_txtERKS9_E6HeaderEEPvEEEEbEC1B8ue170006ISI_RbLSF_0EEEOT_OT0_, symObjAddr: 0x23410, symBinAddr: 0x10002762C, symSize: 0x3C }
  - { offsetInCU: 0x603F1, offset: 0x603F1, size: 0x8, addend: 0x0, symName: __ZNSt3__117__compressed_pairImNS_22__unordered_map_hasherINS_12basic_stringIcNS_11char_traitsIcEENS_9allocatorIcEEEENS_17__hash_value_typeIS7_ZN8Geometry8from_txtERKS7_E6HeaderEENS_4hashIS7_EENS_8equal_toIS7_EELb1EEEE6secondB8ue170006Ev, symObjAddr: 0x2344C, symBinAddr: 0x100027668, symSize: 0x24 }
  - { offsetInCU: 0x60417, offset: 0x60417, size: 0x8, addend: 0x0, symName: __ZNSt3__122__compressed_pair_elemINS_22__unordered_map_hasherINS_12basic_stringIcNS_11char_traitsIcEENS_9allocatorIcEEEENS_17__hash_value_typeIS7_ZN8Geometry8from_txtERKS7_E6HeaderEENS_4hashIS7_EENS_8equal_toIS7_EELb1EEELi1ELb1EE5__getB8ue170006Ev, symObjAddr: 0x23470, symBinAddr: 0x10002768C, symSize: 0x14 }
  - { offsetInCU: 0x6043D, offset: 0x6043D, size: 0x8, addend: 0x0, symName: __ZNKSt3__113__string_hashIcNS_9allocatorIcEEEclB8ue170006ERKNS_12basic_stringIcNS_11char_traitsIcEES2_EE, symObjAddr: 0x23484, symBinAddr: 0x1000276A0, symSize: 0x64 }
  - { offsetInCU: 0x60472, offset: 0x60472, size: 0x8, addend: 0x0, symName: __ZNKSt3__121__murmur2_or_cityhashImLm64EEclB8ue170006EPKvm, symObjAddr: 0x23524, symBinAddr: 0x100027740, symSize: 0x410 }
  - { offsetInCU: 0x6050C, offset: 0x6050C, size: 0x8, addend: 0x0, symName: __ZNSt3__121__murmur2_or_cityhashImLm64EE18__hash_len_0_to_16B8ue170006EPKcm, symObjAddr: 0x23934, symBinAddr: 0x100027B50, symSize: 0x1C0 }
  - { offsetInCU: 0x605E5, offset: 0x605E5, size: 0x8, addend: 0x0, symName: __ZNSt3__121__murmur2_or_cityhashImLm64EE19__hash_len_17_to_32B8ue170006EPKcm, symObjAddr: 0x23AF4, symBinAddr: 0x100027D10, symSize: 0x130 }
  - { offsetInCU: 0x6064E, offset: 0x6064E, size: 0x8, addend: 0x0, symName: __ZNSt3__121__murmur2_or_cityhashImLm64EE19__hash_len_33_to_64B8ue170006EPKcm, symObjAddr: 0x23C24, symBinAddr: 0x100027E40, symSize: 0x2B8 }
  - { offsetInCU: 0x60703, offset: 0x60703, size: 0x8, addend: 0x0, symName: __ZNSt3__121__murmur2_or_cityhashImLm64EE13__hash_len_16B8ue170006Emm, symObjAddr: 0x23EFC, symBinAddr: 0x100028118, symSize: 0x80 }
  - { offsetInCU: 0x6075E, offset: 0x6075E, size: 0x8, addend: 0x0, symName: __ZNSt3__121__murmur2_or_cityhashImLm64EE29__weak_hash_len_32_with_seedsB8ue170006EPKcmm, symObjAddr: 0x23F7C, symBinAddr: 0x100028198, symSize: 0x88 }
  - { offsetInCU: 0x6079D, offset: 0x6079D, size: 0x8, addend: 0x0, symName: __ZNSt3__121__murmur2_or_cityhashImLm64EE8__rotateB8ue170006Emi, symObjAddr: 0x24004, symBinAddr: 0x100028220, symSize: 0x64 }
  - { offsetInCU: 0x607CE, offset: 0x607CE, size: 0x8, addend: 0x0, symName: __ZNSt3__14pairImmEaSB8ue170006EOS1_, symObjAddr: 0x24068, symBinAddr: 0x100028284, symSize: 0x30 }
  - { offsetInCU: 0x60803, offset: 0x60803, size: 0x8, addend: 0x0, symName: __ZNSt3__121__murmur2_or_cityhashImLm64EE11__shift_mixB8ue170006Em, symObjAddr: 0x240D4, symBinAddr: 0x1000282F0, symSize: 0x1C }
  - { offsetInCU: 0x60826, offset: 0x60826, size: 0x8, addend: 0x0, symName: __ZNSt3__121__murmur2_or_cityhashImLm64EE22__rotate_by_at_least_1B8ue170006Emi, symObjAddr: 0x240F0, symBinAddr: 0x10002830C, symSize: 0x38 }
  - { offsetInCU: 0x60857, offset: 0x60857, size: 0x8, addend: 0x0, symName: __ZNSt3__121__murmur2_or_cityhashImLm64EE29__weak_hash_len_32_with_seedsB8ue170006Emmmmmm, symObjAddr: 0x24148, symBinAddr: 0x100028364, symSize: 0xD8 }
  - { offsetInCU: 0x608D4, offset: 0x608D4, size: 0x8, addend: 0x0, symName: __ZNSt3__14pairImmEC1B8ue170006ImmLPv0EEEOT_OT0_, symObjAddr: 0x24220, symBinAddr: 0x10002843C, symSize: 0x3C }
  - { offsetInCU: 0x60932, offset: 0x60932, size: 0x8, addend: 0x0, symName: __ZNSt3__14pairImmEC2B8ue170006ImmLPv0EEEOT_OT0_, symObjAddr: 0x2425C, symBinAddr: 0x100028478, symSize: 0x34 }
  - { offsetInCU: 0x60990, offset: 0x60990, size: 0x8, addend: 0x0, symName: __ZNKSt3__110unique_ptrIA_PNS_16__hash_node_baseIPNS_11__hash_nodeINS_17__hash_value_typeINS_12basic_stringIcNS_11char_traitsIcEENS_9allocatorIcEEEEZN8Geometry8from_txtERKS9_E6HeaderEEPvEEEENS_25__bucket_list_deallocatorINS7_ISJ_EEEEE11get_deleterB8ue170006Ev, symObjAddr: 0x24290, symBinAddr: 0x1000284AC, symSize: 0x24 }
  - { offsetInCU: 0x609B6, offset: 0x609B6, size: 0x8, addend: 0x0, symName: __ZNKSt3__125__bucket_list_deallocatorINS_9allocatorIPNS_16__hash_node_baseIPNS_11__hash_nodeINS_17__hash_value_typeINS_12basic_stringIcNS_11char_traitsIcEENS1_IcEEEEZN8Geometry8from_txtERKS9_E6HeaderEEPvEEEEEEE4sizeB8ue170006Ev, symObjAddr: 0x242B4, symBinAddr: 0x1000284D0, symSize: 0x28 }
  - { offsetInCU: 0x609DC, offset: 0x609DC, size: 0x8, addend: 0x0, symName: __ZNKSt3__117__compressed_pairIPPNS_16__hash_node_baseIPNS_11__hash_nodeINS_17__hash_value_typeINS_12basic_stringIcNS_11char_traitsIcEENS_9allocatorIcEEEEZN8Geometry8from_txtERKS9_E6HeaderEEPvEEEENS_25__bucket_list_deallocatorINS7_ISJ_EEEEE6secondB8ue170006Ev, symObjAddr: 0x242DC, symBinAddr: 0x1000284F8, symSize: 0x28 }
  - { offsetInCU: 0x60A02, offset: 0x60A02, size: 0x8, addend: 0x0, symName: __ZNKSt3__122__compressed_pair_elemINS_25__bucket_list_deallocatorINS_9allocatorIPNS_16__hash_node_baseIPNS_11__hash_nodeINS_17__hash_value_typeINS_12basic_stringIcNS_11char_traitsIcEENS2_IcEEEEZN8Geometry8from_txtERKSA_E6HeaderEEPvEEEEEEEELi1ELb0EE5__getB8ue170006Ev, symObjAddr: 0x24304, symBinAddr: 0x100028520, symSize: 0x14 }
  - { offsetInCU: 0x60A28, offset: 0x60A28, size: 0x8, addend: 0x0, symName: __ZNKSt3__117__compressed_pairImNS_9allocatorIPNS_16__hash_node_baseIPNS_11__hash_nodeINS_17__hash_value_typeINS_12basic_stringIcNS_11char_traitsIcEENS1_IcEEEEZN8Geometry8from_txtERKS9_E6HeaderEEPvEEEEEEE5firstB8ue170006Ev, symObjAddr: 0x24318, symBinAddr: 0x100028534, symSize: 0x24 }
  - { offsetInCU: 0x60A4E, offset: 0x60A4E, size: 0x8, addend: 0x0, symName: __ZNKSt3__122__compressed_pair_elemImLi0ELb0EE5__getB8ue170006Ev, symObjAddr: 0x2433C, symBinAddr: 0x100028558, symSize: 0x14 }
  - { offsetInCU: 0x60A74, offset: 0x60A74, size: 0x8, addend: 0x0, symName: __ZNKSt3__117__compressed_pairIPPNS_16__hash_node_baseIPNS_11__hash_nodeINS_17__hash_value_typeINS_12basic_stringIcNS_11char_traitsIcEENS_9allocatorIcEEEEZN8Geometry8from_txtERKS9_E6HeaderEEPvEEEENS_25__bucket_list_deallocatorINS7_ISJ_EEEEE5firstB8ue170006Ev, symObjAddr: 0x24350, symBinAddr: 0x10002856C, symSize: 0x24 }
  - { offsetInCU: 0x60A9A, offset: 0x60A9A, size: 0x8, addend: 0x0, symName: __ZNKSt3__122__compressed_pair_elemIPPNS_16__hash_node_baseIPNS_11__hash_nodeINS_17__hash_value_typeINS_12basic_stringIcNS_11char_traitsIcEENS_9allocatorIcEEEEZN8Geometry8from_txtERKS9_E6HeaderEEPvEEEELi0ELb0EE5__getB8ue170006Ev, symObjAddr: 0x24374, symBinAddr: 0x100028590, symSize: 0x14 }
  - { offsetInCU: 0x60AC0, offset: 0x60AC0, size: 0x8, addend: 0x0, symName: __ZNSt3__117__compressed_pairIfNS_21__unordered_map_equalINS_12basic_stringIcNS_11char_traitsIcEENS_9allocatorIcEEEENS_17__hash_value_typeIS7_ZN8Geometry8from_txtERKS7_E6HeaderEENS_8equal_toIS7_EENS_4hashIS7_EELb1EEEE6secondB8ue170006Ev, symObjAddr: 0x24388, symBinAddr: 0x1000285A4, symSize: 0x24 }
  - { offsetInCU: 0x60AE6, offset: 0x60AE6, size: 0x8, addend: 0x0, symName: __ZNSt3__122__compressed_pair_elemINS_21__unordered_map_equalINS_12basic_stringIcNS_11char_traitsIcEENS_9allocatorIcEEEENS_17__hash_value_typeIS7_ZN8Geometry8from_txtERKS7_E6HeaderEENS_8equal_toIS7_EENS_4hashIS7_EELb1EEELi1ELb1EE5__getB8ue170006Ev, symObjAddr: 0x243AC, symBinAddr: 0x1000285C8, symSize: 0x14 }
  - { offsetInCU: 0x60B0C, offset: 0x60B0C, size: 0x8, addend: 0x0, symName: __ZNKSt3__18equal_toINS_12basic_stringIcNS_11char_traitsIcEENS_9allocatorIcEEEEEclB8ue170006ERKS6_S9_, symObjAddr: 0x243C0, symBinAddr: 0x1000285DC, symSize: 0x34 }
  - { offsetInCU: 0x60B50, offset: 0x60B50, size: 0x8, addend: 0x0, symName: __ZNKSt3__117__hash_value_typeINS_12basic_stringIcNS_11char_traitsIcEENS_9allocatorIcEEEEZN8Geometry8from_txtERKS6_E6HeaderE11__get_valueB8ue170006Ev, symObjAddr: 0x243F4, symBinAddr: 0x100028610, symSize: 0x24 }
  - { offsetInCU: 0x60B76, offset: 0x60B76, size: 0x8, addend: 0x0, symName: __ZNSt3__111char_traitsIcE7compareB8ue170006EPKcS3_m, symObjAddr: 0x24560, symBinAddr: 0x10002877C, symSize: 0x34 }
  - { offsetInCU: 0x60BB5, offset: 0x60BB5, size: 0x8, addend: 0x0, symName: __ZNSt3__114pointer_traitsIPNS_16__hash_node_baseIPNS_11__hash_nodeINS_17__hash_value_typeINS_12basic_stringIcNS_11char_traitsIcEENS_9allocatorIcEEEEZN8Geometry8from_txtERKS9_E6HeaderEEPvEEEEE10pointer_toB8ue170006ERSI_, symObjAddr: 0x245CC, symBinAddr: 0x1000287E8, symSize: 0x14 }
  - { offsetInCU: 0x60BD8, offset: 0x60BD8, size: 0x8, addend: 0x0, symName: __ZNSt3__112__hash_tableINS_17__hash_value_typeINS_12basic_stringIcNS_11char_traitsIcEENS_9allocatorIcEEEEZN8Geometry8from_txtERKS7_E6HeaderEENS_22__unordered_map_hasherIS7_SC_NS_4hashIS7_EENS_8equal_toIS7_EELb1EEENS_21__unordered_map_equalIS7_SC_SH_SF_Lb1EEENS5_ISC_EEE12__node_allocB8ue170006Ev, symObjAddr: 0x245E0, symBinAddr: 0x1000287FC, symSize: 0x28 }
  - { offsetInCU: 0x60BFE, offset: 0x60BFE, size: 0x8, addend: 0x0, symName: __ZNSt3__116allocator_traitsINS_9allocatorINS_11__hash_nodeINS_17__hash_value_typeINS_12basic_stringIcNS_11char_traitsIcEENS1_IcEEEEZN8Geometry8from_txtERKS8_E6HeaderEEPvEEEEE8allocateB8ue170006ERSG_m, symObjAddr: 0x24608, symBinAddr: 0x100028824, symSize: 0x2C }
  - { offsetInCU: 0x60C31, offset: 0x60C31, size: 0x8, addend: 0x0, symName: __ZNSt3__122__hash_node_destructorINS_9allocatorINS_11__hash_nodeINS_17__hash_value_typeINS_12basic_stringIcNS_11char_traitsIcEENS1_IcEEEEZN8Geometry8from_txtERKS8_E6HeaderEEPvEEEEEC1B8ue170006ERSG_b, symObjAddr: 0x24634, symBinAddr: 0x100028850, symSize: 0x48 }
  - { offsetInCU: 0x60C7F, offset: 0x60C7F, size: 0x8, addend: 0x0, symName: __ZNSt3__110unique_ptrINS_11__hash_nodeINS_17__hash_value_typeINS_12basic_stringIcNS_11char_traitsIcEENS_9allocatorIcEEEEZN8Geometry8from_txtERKS8_E6HeaderEEPvEENS_22__hash_node_destructorINS6_ISF_EEEEEC1B8ue170006ILb1EvEEPSF_NS_16__dependent_typeINS_27__unique_ptr_deleter_sfinaeISI_EEXT_EE20__good_rval_ref_typeE, symObjAddr: 0x2467C, symBinAddr: 0x100028898, symSize: 0x3C }
  - { offsetInCU: 0x60CD0, offset: 0x60CD0, size: 0x8, addend: 0x0, symName: __ZNSt3__116allocator_traitsINS_9allocatorINS_11__hash_nodeINS_17__hash_value_typeINS_12basic_stringIcNS_11char_traitsIcEENS1_IcEEEEZN8Geometry8from_txtERKS8_E6HeaderEEPvEEEEE9constructB8ue170006INS_4pairISA_SC_EEJRKSK_EvEEvRSG_PT_DpOT0_, symObjAddr: 0x246B8, symBinAddr: 0x1000288D4, symSize: 0x34 }
  - { offsetInCU: 0x60D27, offset: 0x60D27, size: 0x8, addend: 0x0, symName: __ZNSt3__122__hash_key_value_typesINS_17__hash_value_typeINS_12basic_stringIcNS_11char_traitsIcEENS_9allocatorIcEEEEZN8Geometry8from_txtERKS7_E6HeaderEEE9__get_ptrB8ue170006ERSC_, symObjAddr: 0x246EC, symBinAddr: 0x100028908, symSize: 0x24 }
  - { offsetInCU: 0x60D4A, offset: 0x60D4A, size: 0x8, addend: 0x0, symName: __ZNSt3__110unique_ptrINS_11__hash_nodeINS_17__hash_value_typeINS_12basic_stringIcNS_11char_traitsIcEENS_9allocatorIcEEEEZN8Geometry8from_txtERKS8_E6HeaderEEPvEENS_22__hash_node_destructorINS6_ISF_EEEEE11get_deleterB8ue170006Ev, symObjAddr: 0x24710, symBinAddr: 0x10002892C, symSize: 0x24 }
  - { offsetInCU: 0x60D70, offset: 0x60D70, size: 0x8, addend: 0x0, symName: __ZNSt3__117__compressed_pairINS_16__hash_node_baseIPNS_11__hash_nodeINS_17__hash_value_typeINS_12basic_stringIcNS_11char_traitsIcEENS_9allocatorIcEEEEZN8Geometry8from_txtERKS9_E6HeaderEEPvEEEENS7_ISG_EEE6secondB8ue170006Ev, symObjAddr: 0x24734, symBinAddr: 0x100028950, symSize: 0x24 }
  - { offsetInCU: 0x60D96, offset: 0x60D96, size: 0x8, addend: 0x0, symName: __ZNSt3__122__compressed_pair_elemINS_9allocatorINS_11__hash_nodeINS_17__hash_value_typeINS_12basic_stringIcNS_11char_traitsIcEENS1_IcEEEEZN8Geometry8from_txtERKS8_E6HeaderEEPvEEEELi1ELb1EE5__getB8ue170006Ev, symObjAddr: 0x24758, symBinAddr: 0x100028974, symSize: 0x14 }
  - { offsetInCU: 0x60DBC, offset: 0x60DBC, size: 0x8, addend: 0x0, symName: __ZNSt3__19allocatorINS_11__hash_nodeINS_17__hash_value_typeINS_12basic_stringIcNS_11char_traitsIcEENS0_IcEEEEZN8Geometry8from_txtERKS7_E6HeaderEEPvEEE8allocateB8ue170006Em, symObjAddr: 0x2476C, symBinAddr: 0x100028988, symSize: 0x5C }
  - { offsetInCU: 0x60DFA, offset: 0x60DFA, size: 0x8, addend: 0x0, symName: __ZNSt3__116allocator_traitsINS_9allocatorINS_11__hash_nodeINS_17__hash_value_typeINS_12basic_stringIcNS_11char_traitsIcEENS1_IcEEEEZN8Geometry8from_txtERKS8_E6HeaderEEPvEEEEE8max_sizeB8ue170006ISG_vEEmRKSG_, symObjAddr: 0x247C8, symBinAddr: 0x1000289E4, symSize: 0x24 }
  - { offsetInCU: 0x60E28, offset: 0x60E28, size: 0x8, addend: 0x0, symName: __ZNKSt3__19allocatorINS_11__hash_nodeINS_17__hash_value_typeINS_12basic_stringIcNS_11char_traitsIcEENS0_IcEEEEZN8Geometry8from_txtERKS7_E6HeaderEEPvEEE8max_sizeB8ue170006Ev, symObjAddr: 0x247EC, symBinAddr: 0x100028A08, symSize: 0x18 }
  - { offsetInCU: 0x60E4E, offset: 0x60E4E, size: 0x8, addend: 0x0, symName: __ZNSt3__122__hash_node_destructorINS_9allocatorINS_11__hash_nodeINS_17__hash_value_typeINS_12basic_stringIcNS_11char_traitsIcEENS1_IcEEEEZN8Geometry8from_txtERKS8_E6HeaderEEPvEEEEEC2B8ue170006ERSG_b, symObjAddr: 0x24804, symBinAddr: 0x100028A20, symSize: 0x38 }
  - { offsetInCU: 0x60E96, offset: 0x60E96, size: 0x8, addend: 0x0, symName: __ZNSt3__110unique_ptrINS_11__hash_nodeINS_17__hash_value_typeINS_12basic_stringIcNS_11char_traitsIcEENS_9allocatorIcEEEEZN8Geometry8from_txtERKS8_E6HeaderEEPvEENS_22__hash_node_destructorINS6_ISF_EEEEEC2B8ue170006ILb1EvEEPSF_NS_16__dependent_typeINS_27__unique_ptr_deleter_sfinaeISI_EEXT_EE20__good_rval_ref_typeE, symObjAddr: 0x2483C, symBinAddr: 0x100028A58, symSize: 0x48 }
  - { offsetInCU: 0x60EE7, offset: 0x60EE7, size: 0x8, addend: 0x0, symName: __ZNSt3__117__compressed_pairIPNS_11__hash_nodeINS_17__hash_value_typeINS_12basic_stringIcNS_11char_traitsIcEENS_9allocatorIcEEEEZN8Geometry8from_txtERKS8_E6HeaderEEPvEENS_22__hash_node_destructorINS6_ISF_EEEEEC1B8ue170006IRSG_SJ_EEOT_OT0_, symObjAddr: 0x24884, symBinAddr: 0x100028AA0, symSize: 0x3C }
  - { offsetInCU: 0x60F3F, offset: 0x60F3F, size: 0x8, addend: 0x0, symName: __ZNSt3__117__compressed_pairIPNS_11__hash_nodeINS_17__hash_value_typeINS_12basic_stringIcNS_11char_traitsIcEENS_9allocatorIcEEEEZN8Geometry8from_txtERKS8_E6HeaderEEPvEENS_22__hash_node_destructorINS6_ISF_EEEEEC2B8ue170006IRSG_SJ_EEOT_OT0_, symObjAddr: 0x248C0, symBinAddr: 0x100028ADC, symSize: 0x48 }
  - { offsetInCU: 0x60F97, offset: 0x60F97, size: 0x8, addend: 0x0, symName: __ZNSt3__122__compressed_pair_elemIPNS_11__hash_nodeINS_17__hash_value_typeINS_12basic_stringIcNS_11char_traitsIcEENS_9allocatorIcEEEEZN8Geometry8from_txtERKS8_E6HeaderEEPvEELi0ELb0EEC2B8ue170006IRSG_vEEOT_, symObjAddr: 0x24908, symBinAddr: 0x100028B24, symSize: 0x24 }
  - { offsetInCU: 0x60FD9, offset: 0x60FD9, size: 0x8, addend: 0x0, symName: __ZNSt3__122__compressed_pair_elemINS_22__hash_node_destructorINS_9allocatorINS_11__hash_nodeINS_17__hash_value_typeINS_12basic_stringIcNS_11char_traitsIcEENS2_IcEEEEZN8Geometry8from_txtERKS9_E6HeaderEEPvEEEEEELi1ELb0EEC2B8ue170006ISI_vEEOT_, symObjAddr: 0x2492C, symBinAddr: 0x100028B48, symSize: 0x24 }
  - { offsetInCU: 0x6101B, offset: 0x6101B, size: 0x8, addend: 0x0, symName: __ZNSt3__19allocatorINS_11__hash_nodeINS_17__hash_value_typeINS_12basic_stringIcNS_11char_traitsIcEENS0_IcEEEEZN8Geometry8from_txtERKS7_E6HeaderEEPvEEE9constructB8ue170006INS_4pairIS9_SB_EEJRKSI_EEEvPT_DpOT0_, symObjAddr: 0x24950, symBinAddr: 0x100028B6C, symSize: 0x30 }
  - { offsetInCU: 0x61071, offset: 0x61071, size: 0x8, addend: 0x0, symName: __ZNSt3__14pairIKNS_12basic_stringIcNS_11char_traitsIcEENS_9allocatorIcEEEEZN8Geometry8from_txtERS7_E6HeaderEC1B8ue170006ERKSB_, symObjAddr: 0x24980, symBinAddr: 0x100028B9C, symSize: 0x34 }
  - { offsetInCU: 0x610A6, offset: 0x610A6, size: 0x8, addend: 0x0, symName: __ZNSt3__14pairIKNS_12basic_stringIcNS_11char_traitsIcEENS_9allocatorIcEEEEZN8Geometry8from_txtERS7_E6HeaderEC2B8ue170006ERKSB_, symObjAddr: 0x249B4, symBinAddr: 0x100028BD0, symSize: 0x40 }
  - { offsetInCU: 0x610DB, offset: 0x610DB, size: 0x8, addend: 0x0, symName: __ZNSt3__117__hash_value_typeINS_12basic_stringIcNS_11char_traitsIcEENS_9allocatorIcEEEEZN8Geometry8from_txtERKS6_E6HeaderE11__get_valueB8ue170006Ev, symObjAddr: 0x249F4, symBinAddr: 0x100028C10, symSize: 0x24 }
  - { offsetInCU: 0x61101, offset: 0x61101, size: 0x8, addend: 0x0, symName: __ZNSt3__117__compressed_pairIPNS_11__hash_nodeINS_17__hash_value_typeINS_12basic_stringIcNS_11char_traitsIcEENS_9allocatorIcEEEEZN8Geometry8from_txtERKS8_E6HeaderEEPvEENS_22__hash_node_destructorINS6_ISF_EEEEE6secondB8ue170006Ev, symObjAddr: 0x24A50, symBinAddr: 0x100028C6C, symSize: 0x28 }
  - { offsetInCU: 0x61127, offset: 0x61127, size: 0x8, addend: 0x0, symName: __ZNSt3__122__compressed_pair_elemINS_22__hash_node_destructorINS_9allocatorINS_11__hash_nodeINS_17__hash_value_typeINS_12basic_stringIcNS_11char_traitsIcEENS2_IcEEEEZN8Geometry8from_txtERKS9_E6HeaderEEPvEEEEEELi1ELb0EE5__getB8ue170006Ev, symObjAddr: 0x24A78, symBinAddr: 0x100028C94, symSize: 0x14 }
  - { offsetInCU: 0x6114D, offset: 0x6114D, size: 0x8, addend: 0x0, symName: __ZNSt3__117__compressed_pairImNS_22__unordered_map_hasherINS_12basic_stringIcNS_11char_traitsIcEENS_9allocatorIcEEEENS_17__hash_value_typeIS7_ZN8Geometry8from_txtERKS7_E6HeaderEENS_4hashIS7_EENS_8equal_toIS7_EELb1EEEE5firstB8ue170006Ev, symObjAddr: 0x24A8C, symBinAddr: 0x100028CA8, symSize: 0x24 }
  - { offsetInCU: 0x61173, offset: 0x61173, size: 0x8, addend: 0x0, symName: __ZNSt3__122__compressed_pair_elemImLi0ELb0EE5__getB8ue170006Ev, symObjAddr: 0x24AB0, symBinAddr: 0x100028CCC, symSize: 0x14 }
  - { offsetInCU: 0x61199, offset: 0x61199, size: 0x8, addend: 0x0, symName: __ZNSt3__117__compressed_pairIfNS_21__unordered_map_equalINS_12basic_stringIcNS_11char_traitsIcEENS_9allocatorIcEEEENS_17__hash_value_typeIS7_ZN8Geometry8from_txtERKS7_E6HeaderEENS_8equal_toIS7_EENS_4hashIS7_EELb1EEEE5firstB8ue170006Ev, symObjAddr: 0x24AC4, symBinAddr: 0x100028CE0, symSize: 0x24 }
  - { offsetInCU: 0x611BF, offset: 0x611BF, size: 0x8, addend: 0x0, symName: __ZNSt3__122__compressed_pair_elemIfLi0ELb0EE5__getB8ue170006Ev, symObjAddr: 0x24AE8, symBinAddr: 0x100028D04, symSize: 0x14 }
  - { offsetInCU: 0x611E5, offset: 0x611E5, size: 0x8, addend: 0x0, symName: __ZNSt3__112__hash_tableINS_17__hash_value_typeINS_12basic_stringIcNS_11char_traitsIcEENS_9allocatorIcEEEEZN8Geometry8from_txtERKS7_E6HeaderEENS_22__unordered_map_hasherIS7_SC_NS_4hashIS7_EENS_8equal_toIS7_EELb1EEENS_21__unordered_map_equalIS7_SC_SH_SF_Lb1EEENS5_ISC_EEE8__rehashILb1EEEvm, symObjAddr: 0x24AFC, symBinAddr: 0x100028D18, symSize: 0x1A8 }
  - { offsetInCU: 0x61235, offset: 0x61235, size: 0x8, addend: 0x0, symName: __ZNSt3__112__hash_tableINS_17__hash_value_typeINS_12basic_stringIcNS_11char_traitsIcEENS_9allocatorIcEEEEZN8Geometry8from_txtERKS7_E6HeaderEENS_22__unordered_map_hasherIS7_SC_NS_4hashIS7_EENS_8equal_toIS7_EELb1EEENS_21__unordered_map_equalIS7_SC_SH_SF_Lb1EEENS5_ISC_EEE11__do_rehashILb1EEEvm, symObjAddr: 0x24CA4, symBinAddr: 0x100028EC0, symSize: 0x288 }
  - { offsetInCU: 0x61318, offset: 0x61318, size: 0x8, addend: 0x0, symName: __ZNSt3__110unique_ptrIA_PNS_16__hash_node_baseIPNS_11__hash_nodeINS_17__hash_value_typeINS_12basic_stringIcNS_11char_traitsIcEENS_9allocatorIcEEEEZN8Geometry8from_txtERKS9_E6HeaderEEPvEEEENS_25__bucket_list_deallocatorINS7_ISJ_EEEEE11get_deleterB8ue170006Ev, symObjAddr: 0x24F98, symBinAddr: 0x1000291B4, symSize: 0x24 }
  - { offsetInCU: 0x6133E, offset: 0x6133E, size: 0x8, addend: 0x0, symName: __ZNSt3__125__bucket_list_deallocatorINS_9allocatorIPNS_16__hash_node_baseIPNS_11__hash_nodeINS_17__hash_value_typeINS_12basic_stringIcNS_11char_traitsIcEENS1_IcEEEEZN8Geometry8from_txtERKS9_E6HeaderEEPvEEEEEEE7__allocB8ue170006Ev, symObjAddr: 0x24FBC, symBinAddr: 0x1000291D8, symSize: 0x24 }
  - { offsetInCU: 0x61364, offset: 0x61364, size: 0x8, addend: 0x0, symName: __ZNSt3__110unique_ptrIA_PNS_16__hash_node_baseIPNS_11__hash_nodeINS_17__hash_value_typeINS_12basic_stringIcNS_11char_traitsIcEENS_9allocatorIcEEEEZN8Geometry8from_txtERKS9_E6HeaderEEPvEEEENS_25__bucket_list_deallocatorINS7_ISJ_EEEEE5resetB8ue170006IPSJ_EENS_9enable_ifIXsr28_CheckArrayPointerConversionIT_EE5valueEvE4typeESS_, symObjAddr: 0x24FE0, symBinAddr: 0x1000291FC, symSize: 0x78 }
  - { offsetInCU: 0x613B1, offset: 0x613B1, size: 0x8, addend: 0x0, symName: __ZNSt3__116allocator_traitsINS_9allocatorIPNS_16__hash_node_baseIPNS_11__hash_nodeINS_17__hash_value_typeINS_12basic_stringIcNS_11char_traitsIcEENS1_IcEEEEZN8Geometry8from_txtERKS9_E6HeaderEEPvEEEEEEE8allocateB8ue170006ERSK_m, symObjAddr: 0x25058, symBinAddr: 0x100029274, symSize: 0x2C }
  - { offsetInCU: 0x613E4, offset: 0x613E4, size: 0x8, addend: 0x0, symName: __ZNSt3__125__bucket_list_deallocatorINS_9allocatorIPNS_16__hash_node_baseIPNS_11__hash_nodeINS_17__hash_value_typeINS_12basic_stringIcNS_11char_traitsIcEENS1_IcEEEEZN8Geometry8from_txtERKS9_E6HeaderEEPvEEEEEEE4sizeB8ue170006Ev, symObjAddr: 0x25084, symBinAddr: 0x1000292A0, symSize: 0x24 }
  - { offsetInCU: 0x6140A, offset: 0x6140A, size: 0x8, addend: 0x0, symName: __ZNSt3__117__compressed_pairIPPNS_16__hash_node_baseIPNS_11__hash_nodeINS_17__hash_value_typeINS_12basic_stringIcNS_11char_traitsIcEENS_9allocatorIcEEEEZN8Geometry8from_txtERKS9_E6HeaderEEPvEEEENS_25__bucket_list_deallocatorINS7_ISJ_EEEEE6secondB8ue170006Ev, symObjAddr: 0x250A8, symBinAddr: 0x1000292C4, symSize: 0x28 }
  - { offsetInCU: 0x61430, offset: 0x61430, size: 0x8, addend: 0x0, symName: __ZNSt3__122__compressed_pair_elemINS_25__bucket_list_deallocatorINS_9allocatorIPNS_16__hash_node_baseIPNS_11__hash_nodeINS_17__hash_value_typeINS_12basic_stringIcNS_11char_traitsIcEENS2_IcEEEEZN8Geometry8from_txtERKSA_E6HeaderEEPvEEEEEEEELi1ELb0EE5__getB8ue170006Ev, symObjAddr: 0x250D0, symBinAddr: 0x1000292EC, symSize: 0x14 }
  - { offsetInCU: 0x61456, offset: 0x61456, size: 0x8, addend: 0x0, symName: __ZNSt3__117__compressed_pairImNS_9allocatorIPNS_16__hash_node_baseIPNS_11__hash_nodeINS_17__hash_value_typeINS_12basic_stringIcNS_11char_traitsIcEENS1_IcEEEEZN8Geometry8from_txtERKS9_E6HeaderEEPvEEEEEEE6secondB8ue170006Ev, symObjAddr: 0x250E4, symBinAddr: 0x100029300, symSize: 0x24 }
  - { offsetInCU: 0x6147C, offset: 0x6147C, size: 0x8, addend: 0x0, symName: __ZNSt3__122__compressed_pair_elemINS_9allocatorIPNS_16__hash_node_baseIPNS_11__hash_nodeINS_17__hash_value_typeINS_12basic_stringIcNS_11char_traitsIcEENS1_IcEEEEZN8Geometry8from_txtERKS9_E6HeaderEEPvEEEEEELi1ELb1EE5__getB8ue170006Ev, symObjAddr: 0x25108, symBinAddr: 0x100029324, symSize: 0x14 }
  - { offsetInCU: 0x614A2, offset: 0x614A2, size: 0x8, addend: 0x0, symName: __ZNSt3__117__compressed_pairIPPNS_16__hash_node_baseIPNS_11__hash_nodeINS_17__hash_value_typeINS_12basic_stringIcNS_11char_traitsIcEENS_9allocatorIcEEEEZN8Geometry8from_txtERKS9_E6HeaderEEPvEEEENS_25__bucket_list_deallocatorINS7_ISJ_EEEEE5firstB8ue170006Ev, symObjAddr: 0x2511C, symBinAddr: 0x100029338, symSize: 0x24 }
  - { offsetInCU: 0x614C8, offset: 0x614C8, size: 0x8, addend: 0x0, symName: __ZNSt3__125__bucket_list_deallocatorINS_9allocatorIPNS_16__hash_node_baseIPNS_11__hash_nodeINS_17__hash_value_typeINS_12basic_stringIcNS_11char_traitsIcEENS1_IcEEEEZN8Geometry8from_txtERKS9_E6HeaderEEPvEEEEEEEclB8ue170006EPSJ_, symObjAddr: 0x25140, symBinAddr: 0x10002935C, symSize: 0x58 }
  - { offsetInCU: 0x614FD, offset: 0x614FD, size: 0x8, addend: 0x0, symName: __ZNSt3__122__compressed_pair_elemIPPNS_16__hash_node_baseIPNS_11__hash_nodeINS_17__hash_value_typeINS_12basic_stringIcNS_11char_traitsIcEENS_9allocatorIcEEEEZN8Geometry8from_txtERKS9_E6HeaderEEPvEEEELi0ELb0EE5__getB8ue170006Ev, symObjAddr: 0x25198, symBinAddr: 0x1000293B4, symSize: 0x14 }
  - { offsetInCU: 0x61523, offset: 0x61523, size: 0x8, addend: 0x0, symName: __ZNSt3__116allocator_traitsINS_9allocatorIPNS_16__hash_node_baseIPNS_11__hash_nodeINS_17__hash_value_typeINS_12basic_stringIcNS_11char_traitsIcEENS1_IcEEEEZN8Geometry8from_txtERKS9_E6HeaderEEPvEEEEEEE10deallocateB8ue170006ERSK_PSJ_m, symObjAddr: 0x251AC, symBinAddr: 0x1000293C8, symSize: 0x34 }
  - { offsetInCU: 0x61565, offset: 0x61565, size: 0x8, addend: 0x0, symName: __ZNSt3__19allocatorIPNS_16__hash_node_baseIPNS_11__hash_nodeINS_17__hash_value_typeINS_12basic_stringIcNS_11char_traitsIcEENS0_IcEEEEZN8Geometry8from_txtERKS8_E6HeaderEEPvEEEEE10deallocateB8ue170006EPSI_m, symObjAddr: 0x251E0, symBinAddr: 0x1000293FC, symSize: 0x40 }
  - { offsetInCU: 0x615A7, offset: 0x615A7, size: 0x8, addend: 0x0, symName: __ZNSt3__19allocatorIPNS_16__hash_node_baseIPNS_11__hash_nodeINS_17__hash_value_typeINS_12basic_stringIcNS_11char_traitsIcEENS0_IcEEEEZN8Geometry8from_txtERKS8_E6HeaderEEPvEEEEE8allocateB8ue170006Em, symObjAddr: 0x25220, symBinAddr: 0x10002943C, symSize: 0x58 }
  - { offsetInCU: 0x615E5, offset: 0x615E5, size: 0x8, addend: 0x0, symName: __ZNSt3__116allocator_traitsINS_9allocatorIPNS_16__hash_node_baseIPNS_11__hash_nodeINS_17__hash_value_typeINS_12basic_stringIcNS_11char_traitsIcEENS1_IcEEEEZN8Geometry8from_txtERKS9_E6HeaderEEPvEEEEEEE8max_sizeB8ue170006ISK_vEEmRKSK_, symObjAddr: 0x25278, symBinAddr: 0x100029494, symSize: 0x24 }
  - { offsetInCU: 0x61613, offset: 0x61613, size: 0x8, addend: 0x0, symName: __ZNKSt3__19allocatorIPNS_16__hash_node_baseIPNS_11__hash_nodeINS_17__hash_value_typeINS_12basic_stringIcNS_11char_traitsIcEENS0_IcEEEEZN8Geometry8from_txtERKS8_E6HeaderEEPvEEEEE8max_sizeB8ue170006Ev, symObjAddr: 0x2529C, symBinAddr: 0x1000294B8, symSize: 0x14 }
  - { offsetInCU: 0x61639, offset: 0x61639, size: 0x8, addend: 0x0, symName: __ZNSt3__117__compressed_pairImNS_9allocatorIPNS_16__hash_node_baseIPNS_11__hash_nodeINS_17__hash_value_typeINS_12basic_stringIcNS_11char_traitsIcEENS1_IcEEEEZN8Geometry8from_txtERKS9_E6HeaderEEPvEEEEEEE5firstB8ue170006Ev, symObjAddr: 0x252B0, symBinAddr: 0x1000294CC, symSize: 0x24 }
  - { offsetInCU: 0x6165F, offset: 0x6165F, size: 0x8, addend: 0x0, symName: __ZNSt3__122__compressed_pair_elemINS_16__hash_node_baseIPNS_11__hash_nodeINS_17__hash_value_typeINS_12basic_stringIcNS_11char_traitsIcEENS_9allocatorIcEEEEZN8Geometry8from_txtERKS9_E6HeaderEEPvEEEELi0ELb0EE5__getB8ue170006Ev, symObjAddr: 0x252F0, symBinAddr: 0x10002950C, symSize: 0x14 }
  - { offsetInCU: 0x61685, offset: 0x61685, size: 0x8, addend: 0x0, symName: __ZNKSt3__117__compressed_pairIPNS_11__hash_nodeINS_17__hash_value_typeINS_12basic_stringIcNS_11char_traitsIcEENS_9allocatorIcEEEEZN8Geometry8from_txtERKS8_E6HeaderEEPvEENS_22__hash_node_destructorINS6_ISF_EEEEE5firstB8ue170006Ev, symObjAddr: 0x25304, symBinAddr: 0x100029520, symSize: 0x24 }
  - { offsetInCU: 0x616AB, offset: 0x616AB, size: 0x8, addend: 0x0, symName: __ZNKSt3__122__compressed_pair_elemIPNS_11__hash_nodeINS_17__hash_value_typeINS_12basic_stringIcNS_11char_traitsIcEENS_9allocatorIcEEEEZN8Geometry8from_txtERKS8_E6HeaderEEPvEELi0ELb0EE5__getB8ue170006Ev, symObjAddr: 0x25328, symBinAddr: 0x100029544, symSize: 0x14 }
  - { offsetInCU: 0x616D1, offset: 0x616D1, size: 0x8, addend: 0x0, symName: __ZNSt3__117__compressed_pairIPNS_11__hash_nodeINS_17__hash_value_typeINS_12basic_stringIcNS_11char_traitsIcEENS_9allocatorIcEEEEZN8Geometry8from_txtERKS8_E6HeaderEEPvEENS_22__hash_node_destructorINS6_ISF_EEEEE5firstB8ue170006Ev, symObjAddr: 0x2533C, symBinAddr: 0x100029558, symSize: 0x24 }
  - { offsetInCU: 0x616F7, offset: 0x616F7, size: 0x8, addend: 0x0, symName: __ZNSt3__122__compressed_pair_elemIPNS_11__hash_nodeINS_17__hash_value_typeINS_12basic_stringIcNS_11char_traitsIcEENS_9allocatorIcEEEEZN8Geometry8from_txtERKS8_E6HeaderEEPvEELi0ELb0EE5__getB8ue170006Ev, symObjAddr: 0x25360, symBinAddr: 0x10002957C, symSize: 0x14 }
  - { offsetInCU: 0x6171D, offset: 0x6171D, size: 0x8, addend: 0x0, symName: __ZNSt3__110unique_ptrINS_11__hash_nodeINS_17__hash_value_typeINS_12basic_stringIcNS_11char_traitsIcEENS_9allocatorIcEEEEZN8Geometry8from_txtERKS8_E6HeaderEEPvEENS_22__hash_node_destructorINS6_ISF_EEEEED2B8ue170006Ev, symObjAddr: 0x25374, symBinAddr: 0x100029590, symSize: 0x30 }
  - { offsetInCU: 0x61747, offset: 0x61747, size: 0x8, addend: 0x0, symName: __ZNSt3__110unique_ptrINS_11__hash_nodeINS_17__hash_value_typeINS_12basic_stringIcNS_11char_traitsIcEENS_9allocatorIcEEEEZN8Geometry8from_txtERKS8_E6HeaderEEPvEENS_22__hash_node_destructorINS6_ISF_EEEEE5resetB8ue170006EPSF_, symObjAddr: 0x253A4, symBinAddr: 0x1000295C0, symSize: 0x78 }
  - { offsetInCU: 0x6178B, offset: 0x6178B, size: 0x8, addend: 0x0, symName: __ZNSt3__122__hash_node_destructorINS_9allocatorINS_11__hash_nodeINS_17__hash_value_typeINS_12basic_stringIcNS_11char_traitsIcEENS1_IcEEEEZN8Geometry8from_txtERKS8_E6HeaderEEPvEEEEEclB8ue170006EPSF_, symObjAddr: 0x2541C, symBinAddr: 0x100029638, symSize: 0x98 }
  - { offsetInCU: 0x617C0, offset: 0x617C0, size: 0x8, addend: 0x0, symName: __ZNSt3__116allocator_traitsINS_9allocatorINS_11__hash_nodeINS_17__hash_value_typeINS_12basic_stringIcNS_11char_traitsIcEENS1_IcEEEEZN8Geometry8from_txtERKS8_E6HeaderEEPvEEEEE7destroyB8ue170006INS_4pairISA_SC_EEvvEEvRSG_PT_, symObjAddr: 0x254B4, symBinAddr: 0x1000296D0, symSize: 0x28 }
  - { offsetInCU: 0x617FA, offset: 0x617FA, size: 0x8, addend: 0x0, symName: __ZNSt3__116allocator_traitsINS_9allocatorINS_11__hash_nodeINS_17__hash_value_typeINS_12basic_stringIcNS_11char_traitsIcEENS1_IcEEEEZN8Geometry8from_txtERKS8_E6HeaderEEPvEEEEE10deallocateB8ue170006ERSG_PSF_m, symObjAddr: 0x254DC, symBinAddr: 0x1000296F8, symSize: 0x34 }
  - { offsetInCU: 0x6183C, offset: 0x6183C, size: 0x8, addend: 0x0, symName: __ZNSt3__19allocatorINS_11__hash_nodeINS_17__hash_value_typeINS_12basic_stringIcNS_11char_traitsIcEENS0_IcEEEEZN8Geometry8from_txtERKS7_E6HeaderEEPvEEE10deallocateB8ue170006EPSE_m, symObjAddr: 0x25510, symBinAddr: 0x10002972C, symSize: 0x44 }
  - { offsetInCU: 0x6187E, offset: 0x6187E, size: 0x8, addend: 0x0, symName: __ZNSt3__115__hash_iteratorIPNS_11__hash_nodeINS_17__hash_value_typeINS_12basic_stringIcNS_11char_traitsIcEENS_9allocatorIcEEEEZN8Geometry8from_txtERKS8_E6HeaderEEPvEEEC2B8ue170006EPNS_16__hash_node_baseISG_EE, symObjAddr: 0x25554, symBinAddr: 0x100029770, symSize: 0x20 }
  - { offsetInCU: 0x618B7, offset: 0x618B7, size: 0x8, addend: 0x0, symName: __ZNSt3__14pairINS_15__hash_iteratorIPNS_11__hash_nodeINS_17__hash_value_typeINS_12basic_stringIcNS_11char_traitsIcEENS_9allocatorIcEEEEZN8Geometry8from_txtERKS9_E6HeaderEEPvEEEEbEC2B8ue170006ISI_RbLSF_0EEEOT_OT0_, symObjAddr: 0x25574, symBinAddr: 0x100029790, symSize: 0x38 }
  - { offsetInCU: 0x61915, offset: 0x61915, size: 0x8, addend: 0x0, symName: __ZNSt3__112__hash_tableINS_17__hash_value_typeINS_12basic_stringIcNS_11char_traitsIcEENS_9allocatorIcEEEEZN8Geometry8from_txtERKS7_E6HeaderEENS_22__unordered_map_hasherIS7_SC_NS_4hashIS7_EENS_8equal_toIS7_EELb1EEENS_21__unordered_map_equalIS7_SC_SH_SF_Lb1EEENS5_ISC_EEED2Ev, symObjAddr: 0x255AC, symBinAddr: 0x1000297C8, symSize: 0x48 }
  - { offsetInCU: 0x61941, offset: 0x61941, size: 0x8, addend: 0x0, symName: __ZNSt3__112__hash_tableINS_17__hash_value_typeINS_12basic_stringIcNS_11char_traitsIcEENS_9allocatorIcEEEEZN8Geometry8from_txtERKS7_E6HeaderEENS_22__unordered_map_hasherIS7_SC_NS_4hashIS7_EENS_8equal_toIS7_EELb1EEENS_21__unordered_map_equalIS7_SC_SH_SF_Lb1EEENS5_ISC_EEE17__deallocate_nodeEPNS_16__hash_node_baseIPNS_11__hash_nodeISC_PvEEEE, symObjAddr: 0x255F4, symBinAddr: 0x100029810, symSize: 0xA4 }
  - { offsetInCU: 0x619AB, offset: 0x619AB, size: 0x8, addend: 0x0, symName: __ZNSt3__110unique_ptrIA_PNS_16__hash_node_baseIPNS_11__hash_nodeINS_17__hash_value_typeINS_12basic_stringIcNS_11char_traitsIcEENS_9allocatorIcEEEEZN8Geometry8from_txtERKS9_E6HeaderEEPvEEEENS_25__bucket_list_deallocatorINS7_ISJ_EEEEED1B8ue170006Ev, symObjAddr: 0x25698, symBinAddr: 0x1000298B4, symSize: 0x2C }
  - { offsetInCU: 0x619D5, offset: 0x619D5, size: 0x8, addend: 0x0, symName: __ZNSt3__110unique_ptrIA_PNS_16__hash_node_baseIPNS_11__hash_nodeINS_17__hash_value_typeINS_12basic_stringIcNS_11char_traitsIcEENS_9allocatorIcEEEEZN8Geometry8from_txtERKS9_E6HeaderEEPvEEEENS_25__bucket_list_deallocatorINS7_ISJ_EEEEED2B8ue170006Ev, symObjAddr: 0x256C4, symBinAddr: 0x1000298E0, symSize: 0x30 }
  - { offsetInCU: 0x619FF, offset: 0x619FF, size: 0x8, addend: 0x0, symName: __ZNSt3__110unique_ptrIA_PNS_16__hash_node_baseIPNS_11__hash_nodeINS_17__hash_value_typeINS_12basic_stringIcNS_11char_traitsIcEENS_9allocatorIcEEEEZN8Geometry8from_txtERKS9_E6HeaderEEPvEEEENS_25__bucket_list_deallocatorINS7_ISJ_EEEEE5resetB8ue170006EDn, symObjAddr: 0x256F4, symBinAddr: 0x100029910, symSize: 0x6C }
  - { offsetInCU: 0x61A3F, offset: 0x61A3F, size: 0x8, addend: 0x0, symName: __ZNSt3__113unordered_mapINS_12basic_stringIcNS_11char_traitsIcEENS_9allocatorIcEEEEZN8Geometry8from_txtERKS6_E6HeaderNS_4hashIS6_EENS_8equal_toIS6_EENS4_INS_4pairIS8_SA_EEEEED2B8ue170006Ev, symObjAddr: 0x25760, symBinAddr: 0x10002997C, symSize: 0x2C }
  - { offsetInCU: 0x61A69, offset: 0x61A69, size: 0x8, addend: 0x0, symName: __ZNSt3__16vectorINS0_IdNS_9allocatorIdEEEENS1_IS3_EEEC2B8ue170006Ev, symObjAddr: 0x2578C, symBinAddr: 0x1000299A8, symSize: 0x4C }
  - { offsetInCU: 0x61A93, offset: 0x61A93, size: 0x8, addend: 0x0, symName: __ZNSt3__117__compressed_pairIPNS_6vectorIdNS_9allocatorIdEEEENS2_IS4_EEEC1B8ue170006IDnNS_18__default_init_tagEEEOT_OT0_, symObjAddr: 0x257D8, symBinAddr: 0x1000299F4, symSize: 0x3C }
  - { offsetInCU: 0x61AEB, offset: 0x61AEB, size: 0x8, addend: 0x0, symName: __ZNSt3__117__compressed_pairIPNS_6vectorIdNS_9allocatorIdEEEENS2_IS4_EEEC2B8ue170006IDnNS_18__default_init_tagEEEOT_OT0_, symObjAddr: 0x25814, symBinAddr: 0x100029A30, symSize: 0x40 }
  - { offsetInCU: 0x61B43, offset: 0x61B43, size: 0x8, addend: 0x0, symName: __ZNSt3__122__compressed_pair_elemIPNS_6vectorIdNS_9allocatorIdEEEELi0ELb0EEC2B8ue170006IDnvEEOT_, symObjAddr: 0x25854, symBinAddr: 0x100029A70, symSize: 0x1C }
  - { offsetInCU: 0x61B85, offset: 0x61B85, size: 0x8, addend: 0x0, symName: __ZNSt3__122__compressed_pair_elemINS_9allocatorINS_6vectorIdNS1_IdEEEEEELi1ELb1EEC2B8ue170006ENS_18__default_init_tagE, symObjAddr: 0x25870, symBinAddr: 0x100029A8C, symSize: 0x2C }
  - { offsetInCU: 0x61BBA, offset: 0x61BBA, size: 0x8, addend: 0x0, symName: __ZNSt3__19allocatorINS_6vectorIdNS0_IdEEEEEC2B8ue170006Ev, symObjAddr: 0x2589C, symBinAddr: 0x100029AB8, symSize: 0x2C }
  - { offsetInCU: 0x61BE4, offset: 0x61BE4, size: 0x8, addend: 0x0, symName: __ZNSt3__116__non_trivial_ifILb1ENS_9allocatorINS_6vectorIdNS1_IdEEEEEEEC2B8ue170006Ev, symObjAddr: 0x258C8, symBinAddr: 0x100029AE4, symSize: 0x14 }
  - { offsetInCU: 0x61C0E, offset: 0x61C0E, size: 0x8, addend: 0x0, symName: __ZNSt3__16vectorINS0_IdNS_9allocatorIdEEEENS1_IS3_EEED2B8ue170006Ev, symObjAddr: 0x258DC, symBinAddr: 0x100029AF8, symSize: 0x44 }
  - { offsetInCU: 0x61C38, offset: 0x61C38, size: 0x8, addend: 0x0, symName: __ZNSt3__16vectorINS0_IdNS_9allocatorIdEEEENS1_IS3_EEE16__destroy_vectorC1B8ue170006ERS5_, symObjAddr: 0x25920, symBinAddr: 0x100029B3C, symSize: 0x34 }
  - { offsetInCU: 0x61C71, offset: 0x61C71, size: 0x8, addend: 0x0, symName: __ZNSt3__16vectorINS0_IdNS_9allocatorIdEEEENS1_IS3_EEE16__destroy_vectorclB8ue170006Ev, symObjAddr: 0x25954, symBinAddr: 0x100029B70, symSize: 0x90 }
  - { offsetInCU: 0x61C97, offset: 0x61C97, size: 0x8, addend: 0x0, symName: __ZNSt3__16vectorINS0_IdNS_9allocatorIdEEEENS1_IS3_EEE16__destroy_vectorC2B8ue170006ERS5_, symObjAddr: 0x259E4, symBinAddr: 0x100029C00, symSize: 0x20 }
  - { offsetInCU: 0x61CD0, offset: 0x61CD0, size: 0x8, addend: 0x0, symName: __ZNSt3__16vectorINS0_IdNS_9allocatorIdEEEENS1_IS3_EEE7__clearB8ue170006Ev, symObjAddr: 0x25A04, symBinAddr: 0x100029C20, symSize: 0x28 }
  - { offsetInCU: 0x61CF6, offset: 0x61CF6, size: 0x8, addend: 0x0, symName: __ZNKSt3__16vectorINS0_IdNS_9allocatorIdEEEENS1_IS3_EEE17__annotate_deleteB8ue170006Ev, symObjAddr: 0x25A2C, symBinAddr: 0x100029C48, symSize: 0xD4 }
  - { offsetInCU: 0x61D1C, offset: 0x61D1C, size: 0x8, addend: 0x0, symName: __ZNSt3__116allocator_traitsINS_9allocatorINS_6vectorIdNS1_IdEEEEEEE10deallocateB8ue170006ERS5_PS4_m, symObjAddr: 0x25B00, symBinAddr: 0x100029D1C, symSize: 0x34 }
  - { offsetInCU: 0x61D5E, offset: 0x61D5E, size: 0x8, addend: 0x0, symName: __ZNSt3__16vectorINS0_IdNS_9allocatorIdEEEENS1_IS3_EEE7__allocB8ue170006Ev, symObjAddr: 0x25B34, symBinAddr: 0x100029D50, symSize: 0x28 }
  - { offsetInCU: 0x61D84, offset: 0x61D84, size: 0x8, addend: 0x0, symName: __ZNKSt3__16vectorINS0_IdNS_9allocatorIdEEEENS1_IS3_EEE8capacityB8ue170006Ev, symObjAddr: 0x25B5C, symBinAddr: 0x100029D78, symSize: 0x40 }
  - { offsetInCU: 0x61DAA, offset: 0x61DAA, size: 0x8, addend: 0x0, symName: __ZNSt3__16vectorINS0_IdNS_9allocatorIdEEEENS1_IS3_EEE22__base_destruct_at_endB8ue170006EPS3_, symObjAddr: 0x25B9C, symBinAddr: 0x100029DB8, symSize: 0x8C }
  - { offsetInCU: 0x61DEE, offset: 0x61DEE, size: 0x8, addend: 0x0, symName: __ZNSt3__116allocator_traitsINS_9allocatorINS_6vectorIdNS1_IdEEEEEEE7destroyB8ue170006IS4_vEEvRS5_PT_, symObjAddr: 0x25C28, symBinAddr: 0x100029E44, symSize: 0x2C }
  - { offsetInCU: 0x61E2B, offset: 0x61E2B, size: 0x8, addend: 0x0, symName: __ZNSt3__19allocatorINS_6vectorIdNS0_IdEEEEE7destroyB8ue170006EPS3_, symObjAddr: 0x25C68, symBinAddr: 0x100029E84, symSize: 0x28 }
  - { offsetInCU: 0x61E5F, offset: 0x61E5F, size: 0x8, addend: 0x0, symName: __ZNKSt3__16vectorINS0_IdNS_9allocatorIdEEEENS1_IS3_EEE31__annotate_contiguous_containerB8ue170006EPKvS7_S7_S7_, symObjAddr: 0x25C90, symBinAddr: 0x100029EAC, symSize: 0x20 }
  - { offsetInCU: 0x61EB1, offset: 0x61EB1, size: 0x8, addend: 0x0, symName: __ZNKSt3__16vectorINS0_IdNS_9allocatorIdEEEENS1_IS3_EEE4dataB8ue170006Ev, symObjAddr: 0x25CB0, symBinAddr: 0x100029ECC, symSize: 0x28 }
  - { offsetInCU: 0x61ED7, offset: 0x61ED7, size: 0x8, addend: 0x0, symName: __ZNKSt3__16vectorINS0_IdNS_9allocatorIdEEEENS1_IS3_EEE4sizeB8ue170006Ev, symObjAddr: 0x25CD8, symBinAddr: 0x100029EF4, symSize: 0x28 }
  - { offsetInCU: 0x61EFD, offset: 0x61EFD, size: 0x8, addend: 0x0, symName: __ZNSt3__19allocatorINS_6vectorIdNS0_IdEEEEE10deallocateB8ue170006EPS3_m, symObjAddr: 0x25D00, symBinAddr: 0x100029F1C, symSize: 0x44 }
  - { offsetInCU: 0x61F3F, offset: 0x61F3F, size: 0x8, addend: 0x0, symName: __ZNSt3__117__compressed_pairIPNS_6vectorIdNS_9allocatorIdEEEENS2_IS4_EEE6secondB8ue170006Ev, symObjAddr: 0x25D44, symBinAddr: 0x100029F60, symSize: 0x24 }
  - { offsetInCU: 0x61F65, offset: 0x61F65, size: 0x8, addend: 0x0, symName: __ZNSt3__122__compressed_pair_elemINS_9allocatorINS_6vectorIdNS1_IdEEEEEELi1ELb1EE5__getB8ue170006Ev, symObjAddr: 0x25D68, symBinAddr: 0x100029F84, symSize: 0x14 }
  - { offsetInCU: 0x61F8B, offset: 0x61F8B, size: 0x8, addend: 0x0, symName: __ZNKSt3__16vectorINS0_IdNS_9allocatorIdEEEENS1_IS3_EEE9__end_capB8ue170006Ev, symObjAddr: 0x25D7C, symBinAddr: 0x100029F98, symSize: 0x28 }
  - { offsetInCU: 0x61FB1, offset: 0x61FB1, size: 0x8, addend: 0x0, symName: __ZNKSt3__117__compressed_pairIPNS_6vectorIdNS_9allocatorIdEEEENS2_IS4_EEE5firstB8ue170006Ev, symObjAddr: 0x25DA4, symBinAddr: 0x100029FC0, symSize: 0x24 }
  - { offsetInCU: 0x61FD7, offset: 0x61FD7, size: 0x8, addend: 0x0, symName: __ZNKSt3__122__compressed_pair_elemIPNS_6vectorIdNS_9allocatorIdEEEELi0ELb0EE5__getB8ue170006Ev, symObjAddr: 0x25DC8, symBinAddr: 0x100029FE4, symSize: 0x14 }
  - { offsetInCU: 0x61FFD, offset: 0x61FFD, size: 0x8, addend: 0x0, symName: __ZNSt3__113basic_filebufIcNS_11char_traitsIcEEE4openERKNS_12basic_stringIcS2_NS_9allocatorIcEEEEj, symObjAddr: 0x25DDC, symBinAddr: 0x100029FF8, symSize: 0x44 }
  - { offsetInCU: 0x62041, offset: 0x62041, size: 0x8, addend: 0x0, symName: __ZNKSt3__112basic_stringIcNS_11char_traitsIcEENS_9allocatorIcEEE5c_strB8ue170006Ev, symObjAddr: 0x25E20, symBinAddr: 0x10002A03C, symSize: 0x24 }
  - { offsetInCU: 0x62067, offset: 0x62067, size: 0x8, addend: 0x0, symName: __ZNKSt3__19basic_iosIcNS_11char_traitsIcEEE4failB8ue170006Ev, symObjAddr: 0x25E44, symBinAddr: 0x10002A060, symSize: 0x28 }
  - { offsetInCU: 0x6208D, offset: 0x6208D, size: 0x8, addend: 0x0, symName: __ZNKSt3__18ios_base4failB8ue170006Ev, symObjAddr: 0x25E6C, symBinAddr: 0x10002A088, symSize: 0x28 }
  - { offsetInCU: 0x620B5, offset: 0x620B5, size: 0x8, addend: 0x0, symName: __ZNSt3__111char_traitsIcE4findB8ue170006EPKcmRS2_, symObjAddr: 0x25F70, symBinAddr: 0x10002A18C, symSize: 0x70 }
  - { offsetInCU: 0x620F4, offset: 0x620F4, size: 0x8, addend: 0x0, symName: __ZNSt3__112basic_stringIcNS_11char_traitsIcEENS_9allocatorIcEEE15__make_iteratorB8ue170006EPc, symObjAddr: 0x260FC, symBinAddr: 0x10002A318, symSize: 0x30 }
  - { offsetInCU: 0x62129, offset: 0x62129, size: 0x8, addend: 0x0, symName: __ZNSt3__111__wrap_iterIPcEC1B8ue170006ES1_, symObjAddr: 0x2612C, symBinAddr: 0x10002A348, symSize: 0x34 }
  - { offsetInCU: 0x62161, offset: 0x62161, size: 0x8, addend: 0x0, symName: __ZNSt3__111__wrap_iterIPcEC2B8ue170006ES1_, symObjAddr: 0x26160, symBinAddr: 0x10002A37C, symSize: 0x20 }
  - { offsetInCU: 0x62199, offset: 0x62199, size: 0x8, addend: 0x0, symName: __ZNKSt3__111__wrap_iterIPcEdeB8ue170006Ev, symObjAddr: 0x261B4, symBinAddr: 0x10002A3D0, symSize: 0x18 }
  - { offsetInCU: 0x621BF, offset: 0x621BF, size: 0x8, addend: 0x0, symName: __ZNSt3__111__wrap_iterIPcEppB8ue170006Ev, symObjAddr: 0x261CC, symBinAddr: 0x10002A3E8, symSize: 0x20 }
  - { offsetInCU: 0x621E5, offset: 0x621E5, size: 0x8, addend: 0x0, symName: __ZNKSt3__111__wrap_iterIPcE4baseB8ue170006Ev, symObjAddr: 0x26234, symBinAddr: 0x10002A450, symSize: 0x18 }
  - { offsetInCU: 0x6220B, offset: 0x6220B, size: 0x8, addend: 0x0, symName: __ZNKSt3__112__hash_tableINS_17__hash_value_typeINS_12basic_stringIcNS_11char_traitsIcEENS_9allocatorIcEEEEZN8Geometry8from_txtERKS7_E6HeaderEENS_22__unordered_map_hasherIS7_SC_NS_4hashIS7_EENS_8equal_toIS7_EELb1EEENS_21__unordered_map_equalIS7_SC_SH_SF_Lb1EEENS5_ISC_EEE4findIS7_EENS_21__hash_const_iteratorIPNS_11__hash_nodeISC_PvEEEERKT_, symObjAddr: 0x2624C, symBinAddr: 0x10002A468, symSize: 0x1B8 }
  - { offsetInCU: 0x62295, offset: 0x62295, size: 0x8, addend: 0x0, symName: __ZNSt3__125__hash_map_const_iteratorINS_21__hash_const_iteratorIPNS_11__hash_nodeINS_17__hash_value_typeINS_12basic_stringIcNS_11char_traitsIcEENS_9allocatorIcEEEEZN8Geometry8from_txtERKS9_E6HeaderEEPvEEEEEC1B8ue170006ESI_, symObjAddr: 0x26404, symBinAddr: 0x10002A620, symSize: 0x34 }
  - { offsetInCU: 0x622CE, offset: 0x622CE, size: 0x8, addend: 0x0, symName: __ZNKSt3__112__hash_tableINS_17__hash_value_typeINS_12basic_stringIcNS_11char_traitsIcEENS_9allocatorIcEEEEZN8Geometry8from_txtERKS7_E6HeaderEENS_22__unordered_map_hasherIS7_SC_NS_4hashIS7_EENS_8equal_toIS7_EELb1EEENS_21__unordered_map_equalIS7_SC_SH_SF_Lb1EEENS5_ISC_EEE13hash_functionB8ue170006Ev, symObjAddr: 0x26438, symBinAddr: 0x10002A654, symSize: 0x28 }
  - { offsetInCU: 0x622F4, offset: 0x622F4, size: 0x8, addend: 0x0, symName: __ZNKSt3__112__hash_tableINS_17__hash_value_typeINS_12basic_stringIcNS_11char_traitsIcEENS_9allocatorIcEEEEZN8Geometry8from_txtERKS7_E6HeaderEENS_22__unordered_map_hasherIS7_SC_NS_4hashIS7_EENS_8equal_toIS7_EELb1EEENS_21__unordered_map_equalIS7_SC_SH_SF_Lb1EEENS5_ISC_EEE6key_eqB8ue170006Ev, symObjAddr: 0x26460, symBinAddr: 0x10002A67C, symSize: 0x28 }
  - { offsetInCU: 0x6231A, offset: 0x6231A, size: 0x8, addend: 0x0, symName: __ZNSt3__121__hash_const_iteratorIPNS_11__hash_nodeINS_17__hash_value_typeINS_12basic_stringIcNS_11char_traitsIcEENS_9allocatorIcEEEEZN8Geometry8from_txtERKS8_E6HeaderEEPvEEEC1B8ue170006EPNS_16__hash_node_baseISG_EE, symObjAddr: 0x26488, symBinAddr: 0x10002A6A4, symSize: 0x34 }
  - { offsetInCU: 0x62353, offset: 0x62353, size: 0x8, addend: 0x0, symName: __ZNKSt3__112__hash_tableINS_17__hash_value_typeINS_12basic_stringIcNS_11char_traitsIcEENS_9allocatorIcEEEEZN8Geometry8from_txtERKS7_E6HeaderEENS_22__unordered_map_hasherIS7_SC_NS_4hashIS7_EENS_8equal_toIS7_EELb1EEENS_21__unordered_map_equalIS7_SC_SH_SF_Lb1EEENS5_ISC_EEE3endEv, symObjAddr: 0x264BC, symBinAddr: 0x10002A6D8, symSize: 0x2C }
